 sb.mod

 Timestamp is 4ff49c07 (Wed Jul 04 21:39:51 2012)

 Preferred load address is 00400000

 Start         Length     Name                   Class
 0001:00000000 000f0f71H .text                   CODE
 0001:000f0f71 000024a1H .text$x                 CODE
 0001:000f3412 0000c825H .text$yc                CODE
 0001:000ffc37 000011f2H .text$yd                CODE
 0002:00000000 000004f0H .idata$5                DATA
 0002:000004f0 00000004H .CRT$XCA                DATA
 0002:000004f4 00001544H .CRT$XCU                DATA
 0002:00001a38 00000004H .CRT$XCZ                DATA
 0002:00001a3c 00000004H .CRT$XIA                DATA
 0002:00001a40 00000014H .CRT$XIC                DATA
 0002:00001a54 00000004H .CRT$XIY                DATA
 0002:00001a58 00000004H .CRT$XIZ                DATA
 0002:00001a5c 00000004H .CRT$XPA                DATA
 0002:00001a60 00000004H .CRT$XPX                DATA
 0002:00001a64 00000004H .CRT$XPXA               DATA
 0002:00001a68 00000004H .CRT$XPZ                DATA
 0002:00001a6c 00000004H .CRT$XTA                DATA
 0002:00001a70 00000004H .CRT$XTZ                DATA
 0002:00001a80 0001ec9aH .rdata                  DATA
 0002:0002071c 00000056H .rdata$debug            DATA
 0002:00020774 00001634H .rdata$r                DATA
 0002:00021da8 00000004H .rtc$IAA                DATA
 0002:00021dac 00000004H .rtc$IZZ                DATA
 0002:00021db0 00000004H .rtc$TAA                DATA
 0002:00021db4 00000004H .rtc$TZZ                DATA
 0002:00021db8 000048a4H .xdata$x                DATA
 0002:0002665c 000000c8H .idata$2                DATA
 0002:00026724 00000014H .idata$3                DATA
 0002:00026738 000004f0H .idata$4                DATA
 0002:00026c28 0000135cH .idata$6                DATA
 0002:00027f84 00000000H .edata                  DATA
 0003:00000000 00005f90H .data                   DATA
 0003:00005fa0 000a36a4H .bss                    DATA
 0004:00000000 000000b4H .rsrc$01                DATA
 0004:000000c0 000025c0H .rsrc$02                DATA

  Address         Publics by Value              Rva+Base       Lib:Object

 0000:00000000       __except_list              00000000     <absolute>
 0000:00000000       ___safe_se_handler_table   00000000     <absolute>
 0000:00000000       ___safe_se_handler_count   00000000     <absolute>
 0000:00000000       ___ImageBase               00400000     <linker-defined>
 0001:00000000       ??_H@YGXPAXIHP6EPAX0@Z@Z   00401000 f i pch1.obj
 0001:00000115       _main                      00401115 f   SDL_win32_main.obj
 0001:000001dd       ?cleanup@BlendMapNode@@QAEXH@Z 004011dd f   blend.obj
 0001:00000223       ?splitsolid@BlendMapNode@@QAEXAAEE@Z 00401223 f   blend.obj
 0001:0000025d       ?setblendmaporigin@@YA_NPAUBlendMapCache@@ABUivec@@H@Z 0040125d f   blend.obj
 0001:000003c4       ?lookupblendmap@@YAEPAUBlendMapCache@@ABUvec@@@Z 004013c4 f   blend.obj
 0001:0000076a       ?fillblendmap@@YAXHHHHE@Z  0040176a f   blend.obj
 0001:00000979       ?invertblendmap@@YAXHHHH@Z 00401979 f   blend.obj
 0001:00000ad6       ?optimizeblendmap@@YAXXZ   00401ad6 f   blend.obj
 0001:00000ae8       ?var_blendpaintmode@@YAXXZ 00401ae8 f   blend.obj
 0001:00000dad       ?blitblendmap@@YAXPAEHHHH@Z 00401dad f   blend.obj
 0001:00000e05       ?resetblendmap@@YAXXZ      00401e05 f   blend.obj
 0001:00000e29       ?gentex@BlendBrush@@QAEXXZ 00401e29 f i blend.obj
 0001:00000f03       ?reorient@BlendBrush@@QAEX_N00@Z 00401f03 f i blend.obj
 0001:00000fc8       ?clearblendbrushes@@YAXXZ  00401fc8 f   blend.obj
 0001:00001001       ??_GBlendBrush@@QAEPAXI@Z  00402001 f i blend.obj
 0001:00001037       ?delblendbrush@@YAXPBD@Z   00402037 f   blend.obj
 0001:000010ca       ?addblendbrush@@YAXPBD0@Z  004020ca f   blend.obj
 0001:0000126a       ?nextblendbrush@@YAXPAH@Z  0040226a f   blend.obj
 0001:000012b6       ?setblendbrush@@YAXPBD@Z   004022b6 f   blend.obj
 0001:000012ef       ?getblendbrushname@@YAXPAH@Z 004022ef f   blend.obj
 0001:0000131b       ?curblendbrush@@YAXXZ      0040231b f   blend.obj
 0001:00001328       ?canpaintblendmap@@YA_N_N00@Z 00402328 f   blend.obj
 0001:00001388       ?rotateblendbrush@@YAXPAH@Z 00402388 f   blend.obj
 0001:000013e9       ?paintblendmap@@YAX_N@Z    004023e9 f   blend.obj
 0001:000014f6       ?trypaintblendmap@@YAXXZ   004024f6 f   blend.obj
 0001:00001549       ?run@?$_icmd_paintblendmap@$0CKP@@@SAXPAH@Z 00402549 f   blend.obj
 0001:00001574       ?clearblendmapsel@@YAXXZ   00402574 f   blend.obj
 0001:0000162d       ?invertblendmapsel@@YAXXZ  0040262d f   blend.obj
 0001:000016e6       ?invertblendmap@@YAXXZ     004026e6 f   blend.obj
 0001:0000174d       ?showblendmap@@YAXXZ       0040274d f   blend.obj
 0001:000017a2       ?run@?$_icmd_clearblendmap@$0COD@@@SAXXZ 004027a2 f   blend.obj
 0001:000017d1       ?renderblendbrush@@YAXXZ   004027d1 f   blend.obj
 0001:00001928       ?loadblendmap@@YA_NPAUstream@@AAEAAUBlendMapNode@@@Z 00402928 f   blend.obj
 0001:000019e0       ?saveblendmap@@YAXPAUstream@@EAAUBlendMapNode@@@Z 004029e0 f   blend.obj
 0001:00001a48       ?growbuf@?$vector@PAUBlendBrush@@@@QAEXH@Z 00402a48 f i blend.obj
 0001:00001ac4       ?cleanup@ImageData@@QAEXXZ 00402ac4 f i blend.obj
 0001:00001aed       ??1ImageData@@QAE@XZ       00402aed f i blend.obj
 0001:00001af7       ??0ImageData@@QAE@XZ       00402af7 f i blend.obj
 0001:00001b05       ?newstring@@YAPADPBDI@Z    00402b05 f i blend.obj
 0001:00001b2a       ?create_ent@cubeloader@@QAEXAAUc_persistent_entity@1@@Z 00402b2a f i cubeloader.obj
 0001:00001cd5       ?getcube@cubeloader@@QAEAAUcube@@HHH@Z 00402cd5 f i cubeloader.obj
 0001:00001d22       ?neighbours@cubeloader@@QAEHAAUc_sqr@1@@Z 00402d22 f i cubeloader.obj
 0001:00001d59       ?preprocess_cubes@cubeloader@@QAEXXZ 00402d59 f i cubeloader.obj
 0001:00001dd8       ?getfloorceil@cubeloader@@QAEHAAUc_sqr@1@AAH1@Z 00402dd8 f i cubeloader.obj
 0001:00001e39       ?boundingbox@cubeloader@@QAEXXZ 00402e39 f i cubeloader.obj
 0001:00001ee1       ?hf@cubeloader@@QAEXHHHHHH@Z 00402ee1 f i cubeloader.obj
 0001:00001f66       ?cornersolid@cubeloader@@QAE_NHPAUc_sqr@1@@Z 00402f66 f i cubeloader.obj
 0001:00001f84       ?create_cubes@cubeloader@@QAEXXZ 00402f84 f i cubeloader.obj
 0001:000022f6       ?load_cube_world@cubeloader@@QAEXPAD@Z 004032f6 f i cubeloader.obj
 0001:000027a2       ?importcube@@YAXPAD@Z      004037a2 f   cubeloader.obj
 0001:000027d9       ??Rstringformatter@@QAAXPBDZZ 004037d9 f i cubeloader.obj
 0001:000027fc       ?var_ambient@@YAXXZ        004037fc f   lightmap.obj
 0001:00002841       ?var_skylight@@YAXXZ       00403841 f   lightmap.obj
 0001:00002886       ?check_calclight_canceled@@YAXXZ 00403886 f   lightmap.obj
 0001:000028c7       ?show_calclight_progress@@YAXXZ 004038c7 f   lightmap.obj
 0001:00002a71       ?insert@PackNode@@QAE_NAAG0GG@Z 00403a71 f   lightmap.obj
 0001:00002c64       ?insert@LightMap@@QAE_NAAG0PAEGG@Z 00403c64 f   lightmap.obj
 0001:00002ca5       ?copy@LightMap@@QAEXGGPAEGG@Z 00403ca5 f   lightmap.obj
 0001:00005794       ??0lightcacheentry@@QAE@XZ 00406794 f i lightmap.obj
 0001:000057bf       ??1lightcacheentry@@QAE@XZ 004067bf f i lightmap.obj
 0001:000057e5       ?var_lightcachesize@@YAXXZ 004067e5 f   lightmap.obj
 0001:000057ed       ?clearlightcache@@YAXH@Z   004067ed f   lightmap.obj
 0001:00005928       ?checklightcache@@YAABU?$vector@H@@HH@Z 00406928 f   lightmap.obj
 0001:00007815       ?work@lightmapworker@@SAHPAX@Z 00408815 f   lightmap.obj
 0001:00008329       ?previewblends@@YAXABUivec@@0@Z 00409329 f   lightmap.obj
 0001:000083cd       ?cleanuplightmaps@@YAXXZ   004093cd f   lightmap.obj
 0001:00008451       ?resetlightmaps@@YAX_N@Z   00409451 f   lightmap.obj
 0001:000084a9       ??0lightmapworker@@QAE@XZ  004094a9 f   lightmap.obj
 0001:000085b2       ??1lightmapworker@@QAE@XZ  004095b2 f   lightmap.obj
 0001:00008635       ?cleanupthread@lightmapworker@@QAEXXZ 00409635 f   lightmap.obj
 0001:00008655       ?reset@lightmapworker@@QAEXXZ 00409655 f   lightmap.obj
 0001:000086a0       ?setlightmapquality@@YA_NH@Z 004096a0 f   lightmap.obj
 0001:000089c8       ?calclight@@YAXPAH@Z       004099c8 f   lightmap.obj
 0001:00008bc8       ?patchlight@@YAXPAH@Z      00409bc8 f   lightmap.obj
 0001:00008ddb       ?clearlightmaps@@YAXXZ     00409ddb f   lightmap.obj
 0001:00008e20       ?var_fullbright@@YAXXZ     00409e20 f   lightmap.obj
 0001:00008e2f       ?var_fullbrightlevel@@YAXXZ 00409e2f f   lightmap.obj
 0001:000090dd       ?genreservedlightmaptexs@@YAXXZ 0040a0dd f   lightmap.obj
 0001:00009367       ?var_roundlightmaptex@@YAXXZ 0040a367 f   lightmap.obj
 0001:00009367       ?var_batchlightmaps@@YAXXZ 0040a367 f   lightmap.obj
 0001:00009367       ?var_convertlms@@YAXXZ     0040a367 f   lightmap.obj
 0001:0000937a       ?genlightmaptexs@@YAXHH@Z  0040a37a f   lightmap.obj
 0001:00009739       ?clearlights@@YAXXZ        0040a739 f   lightmap.obj
 0001:000097b0       ?lightent@@YAXAAUextentity@@M@Z 0040a7b0 f   lightmap.obj
 0001:00009838       ?initlights@@YAXXZ         0040a838 f   lightmap.obj
 0001:00009c4e       ?lightreaching@@YAXABUvec@@AAU1@1_NPAUextentity@@M@Z 0040ac4e f   lightmap.obj
 0001:0000a11b       ?brightestlight@@YAPAUentity@@ABUvec@@0@Z 0040b11b f   lightmap.obj
 0001:0000a3a8       ?brightencube@@YAXAAUcube@@@Z 0040b3a8 f   lightmap.obj
 0001:0000a3da       ?newsurfaces@@YAXAAUcube@@PBUsurfaceinfo@@H@Z 0040b3da f   lightmap.obj
 0001:0000a431       ?freesurfaces@@YAXAAUcube@@@Z 0040b431 f   lightmap.obj
 0001:0000a456       ?dumplms@@YAXXZ            0040b456 f   lightmap.obj
 0001:0000a557       ?add@?$vector@ULightMap@@@@QAEAAULightMap@@XZ 0040b557 f i lightmap.obj
 0001:0000a5b7       ?shrink@?$vector@ULightMap@@@@QAEXH@Z 0040b5b7 f i lightmap.obj
 0001:0000a614       ?add@?$vector@ULightMapTexture@@@@QAEAAULightMapTexture@@XZ 0040b614 f i lightmap.obj
 0001:0000a680       ?add@?$vector@PAUlightmapworker@@@@QAEAAPAUlightmapworker@@ABQAU2@@Z 0040b680 f i lightmap.obj
 0001:0000a6c6       ?clear@?$hashset@Ucompressval@@@@QAEXXZ 0040b6c6 f i lightmap.obj
 0001:0000a6fe       ?growbuf@?$vector@ULightMap@@@@QAEXH@Z 0040b6fe f i lightmap.obj
 0001:0000a760       ?growbuf@?$vector@ULightMapTexture@@@@QAEXH@Z 0040b760 f i lightmap.obj
 0001:0000a7c2       ?growbuf@?$vector@PAUlightmapworker@@@@QAEXH@Z 0040b7c2 f i lightmap.obj
 0001:0000a826       ?deletechunks@?$hashset@Ucompressval@@@@QAEXXZ 0040b826 f i lightmap.obj
 0001:0000a84a       ??$?AUcompresskey@@@?$hashset@Ucompressval@@@@QAEAAUcompressval@@ABUcompresskey@@@Z 0040b84a f i lightmap.obj
 0001:0000a88f       ?insert@?$hashset@Ucompressval@@@@QAEPAUchain@1@I@Z 0040b88f f i lightmap.obj
 0001:0000a927       ??0LightMap@@QAE@XZ        0040b927 f i lightmap.obj
 0001:0000a994       ?calcsize@ImageData@@QBEHXZ 0040b994 f i lightmap.obj
 0001:0000aa17       ?setdata@ImageData@@QAEXPAEHHHHHI@Z 0040ba17 f i lightmap.obj
 0001:0000aa70       ?boundbox@model@@QAEXHAAUvec@@0@Z 0040ba70 f i lightmap.obj
 0001:0000aaca       ?above@model@@QAEMH@Z      0040baca f i lightmap.obj
 0001:0000aaeb       ??8bvec@@QBE_NABU0@@Z      0040baeb f i lightmap.obj
 0001:0000ab08       ??0ivec@@QAE@HHHHH@Z       0040bb08 f i lightmap.obj
 0001:0000ab3e       ??0bvec@@QAE@XZ            0040bb3e f i normal.obj
 0001:0000ab3e       ??0plane@@QAE@XZ           0040bb3e f i lightmap.obj
 0001:0000ab3e       ??0vec@@QAE@XZ             0040bb3e f i lightmap.obj
 0001:0000ab41       ??8vec@@QBE_NABU0@@Z       0040bb41 f i lightmap.obj
 0001:0000ab6d       ??0bvec@@QAE@ABUvec@@@Z    0040bb6d f i lightmap.obj
 0001:0000aba3       ?orthonormalize@vec@@QBEXAAU1@0@Z 0040bba3 f i lightmap.obj
 0001:0000ac66       ?iszero@vec@@QBE_NXZ       0040bc66 f i lightmap.obj
 0001:0000ac8e       ?normalize@vec@@QAEAAU1@XZ 0040bc8e f i lightmap.obj
 0001:0000acb0       ?mul@vec@@QAEAAU1@M@Z      0040bcb0 f i lightmap.obj
 0001:0000accf       ?magnitude@vec@@QBEMXZ     0040bccf f i lightmap.obj
 0001:0000acf4       ??0PackNode@@QAE@GGGG@Z    0040bcf4 f i lightmap.obj
 0001:0000ad2d       ??1PackNode@@QAE@XZ        0040bd2d f i lightmap.obj
 0001:0000ad32       ?clear@PackNode@@QAEXXZ    0040bd32 f i lightmap.obj
 0001:0000add3       ?findnormal@@YAXABUvec@@0AAU1@@Z 0040bdd3 f   normal.obj
 0001:0000af75       ?show_calcnormals_progress@@YAXXZ 0040bf75 f   normal.obj
 0001:0000afa7       ?addnormals@@YAXAAUcube@@ABUivec@@H@Z 0040bfa7 f   normal.obj
 0001:0000b4a5       ?calcnormals@@YAXXZ        0040c4a5 f   normal.obj
 0001:0000b525       ?clearnormals@@YAXXZ       0040c525 f   normal.obj
 0001:0000b565       ?calclerpverts@@YAXABUvec@@PBU1@100PAUlerpvert@@AAH@Z 0040c565 f   normal.obj
 0001:0000b6bb       ?setlerpstep@@YAXMAAUlerpbounds@@@Z 0040c6bb f   normal.obj
 0001:0000b7d8       ?initlerpbounds@@YAXPBUlerpvert@@HAAUlerpbounds@@1@Z 0040c7d8 f   normal.obj
 0001:0000b8ab       ?updatelerpbounds@@YAXMPBUlerpvert@@HAAUlerpbounds@@1@Z 0040c8ab f   normal.obj
 0001:0000b939       ?lerpnormal@@YAXMPBUlerpvert@@HAAUlerpbounds@@1AAUvec@@2@Z 0040c939 f   normal.obj
 0001:0000ba9d       ?newnormals@@YAXAAUcube@@@Z 0040ca9d f   normal.obj
 0001:0000bb2b       ?freenormals@@YAXAAUcube@@@Z 0040cb2b f   normal.obj
 0001:0000bb48       ??0?$hashtable@Uvec@@Unval@@@@QAE@H@Z 0040cb48 f i normal.obj
 0001:0000bbb7       ??A?$hashtable@Uvec@@Unval@@@@QAEAAUnval@@ABUvec@@@Z 0040cbb7 f i normal.obj
 0001:0000bc21       ??1?$hashset@U?$hashtableentry@Uvec@@Unval@@@@@@QAE@XZ 0040cc21 f i normal.obj
 0001:0000bc3d       ?deletechunks@?$hashset@U?$hashtableentry@Uvec@@Unval@@@@@@QAEXXZ 0040cc3d f i normal.obj
 0001:0000bc61       ?growbuf@?$vector@Unormal@@@@QAEXH@Z 0040cc61 f i normal.obj
 0001:0000bcc3       ?insert@?$hashset@U?$hashtableentry@Uvec@@Unval@@@@@@QAEPAUchain@1@I@Z 0040ccc3 f i normal.obj
 0001:0000bd76       ??9vec@@QBE_NABU0@@Z       0040cd76 f i normal.obj
 0001:0000bda2       ?newcubeext@@YAPAUcubeext@@AAUcube@@@Z 0040cda2 f   octa.obj
 0001:0000bdfb       ?newcubes@@YAPAUcube@@I@Z  0040cdfb f   octa.obj
 0001:0000be45       ?familysize@@YAHAAUcube@@@Z 0040ce45 f   octa.obj
 0001:0000be73       ?freeocta@@YAXPAUcube@@@Z  0040ce73 f   octa.obj
 0001:0000bea1       ?discardchildren@@YAXAAUcube@@_NH@Z 0040cea1 f   octa.obj
 0001:0000bf90       ?getcubevector@@YAXAAUcube@@HHHHAAUivec@@@Z 0040cf90 f   octa.obj
 0001:0000bffc       ?setcubevector@@YAXAAUcube@@HHHHABUivec@@@Z 0040cffc f   octa.obj
 0001:0000c1b3       ?optiface@@YAXPAEAAUcube@@@Z 0040d1b3 f   octa.obj
 0001:0000c1de       ?printcube@@YAXXZ          0040d1de f   octa.obj
 0001:0000c25e       ?isvalidcube@@YA_NAAUcube@@@Z 0040d25e f   octa.obj
 0001:0000c2c3       ?validatec@@YAXPAUcube@@H@Z 0040d2c3 f   octa.obj
 0001:0000c364       ?lookupcube@@YAAAUcube@@HHHHAAUivec@@AAH@Z 0040d364 f   octa.obj
 0001:0000c4a8       ?lookupmaterial@@YAHABUvec@@@Z 0040d4a8 f   octa.obj
 0001:0000c53b       ?neighbourcube@@YAAAUcube@@AAU1@HHHHHAAUivec@@AAH@Z 0040d53b f   octa.obj
 0001:0000c631       ?getmippedtexture@@YAHAAUcube@@H@Z 0040d631 f   octa.obj
 0001:0000c719       ?forcemip@@YAXAAUcube@@_N@Z 0040d719 f   octa.obj
 0001:0000c7ce       ?midedge@@YAHABUivec@@0HHAA_N@Z 0040d7ce f   octa.obj
 0001:0000c8e8       ?subdividecube@@YA_NAAUcube@@_N1@Z 0040d8e8 f   octa.obj
 0001:0000cd6f       ?visibleorient@@YAHAAUcube@@H@Z 0040dd6f f   octa.obj
 0001:0000cdf9       ?remip@@YA_NAAUcube@@HHHH@Z 0040ddf9 f   octa.obj
 0001:0000d1e6       ?mpremip@@YAX_N@Z          0040e1e6 f   octa.obj
 0001:0000d2b0       ?remip_@@YAXXZ             0040e2b0 f   octa.obj
 0001:0000d2fc       ?genvertp@@YAXAAUcube@@AAUivec@@11AAUplane@@@Z 0040e2fc f   octa.obj
 0001:0000d3da       ?threeplaneintersect@@YA_NAAUplane@@00AAUvec@@@Z 0040e3da f   octa.obj
 0001:0000d4ca       ?genedgespanvert@@YAXAAUivec@@AAUcube@@AAUvec@@@Z 0040e4ca f   octa.obj
 0001:0000d668       ?edgespan2vectorcube@@YAXAAUcube@@@Z 0040e668 f   octa.obj
 0001:0000d7d2       ?genvectorvert@@YAXABUivec@@AAUcube@@AAU1@@Z 0040e7d2 f   octa.obj
 0001:0000d803       ?flataxisface@@YA_NAAUcube@@H@Z 0040e803 f   octa.obj
 0001:0000d831       ?touchingface@@YA_NAAUcube@@H@Z 0040e831 f   octa.obj
 0001:0000d859       ?faceconvexity@@YAHAAUcube@@H@Z 0040e859 f   octa.obj
 0001:0000d918       ?faceverts@@YAHAAUcube@@HH@Z 0040e918 f   octa.obj
 0001:0000d93f       ?faceedges@@YAIAAUcube@@H@Z 0040e93f f   octa.obj
 0001:0000de38       ?collapsedface@@YA_NI@Z    0040ee38 f   octa.obj
 0001:0000e044       ?visibleface@@YA_NAAUcube@@HHHHHEEE@Z 0040f044 f   octa.obj
 0001:0000e285       ?visibletris@@YAHAAUcube@@HHHHH@Z 0040f285 f   octa.obj
 0001:0000e684       ?calcvert@@YAXAAUcube@@HHHHAAUvec@@H_N@Z 0040f684 f   octa.obj
 0001:0000e70f       ?genclipplane@@YAHAAUcube@@HPAUvec@@PAUplane@@@Z 0040f70f f   octa.obj
 0001:0000e7f6       ?genclipplanes@@YAXAAUcube@@HHHHAAUclipplanes@@@Z 0040f7f6 f   octa.obj
 0001:0000ed47       ?mergefaces@@YAHHPAUcubeface@@H@Z 0040fd47 f   octa.obj
 0001:0000ed83       ?mincubeface@@YAXAAUcube@@HABUivec@@HABUmergeinfo@@AAU3@EE@Z 0040fd83 f   octa.obj
 0001:0000f0bb       ?mincubeface@@YA_NAAUcube@@HABUivec@@HAAUmergeinfo@@@Z 004100bb f   octa.obj
 0001:0000f174       ?gencubeface@@YA_NAAUcube@@HABUivec@@HAAU2@AAHAAUcubeface@@@Z 00410174 f   octa.obj
 0001:0000f4d0       ?addmergeinfo@@YAXAAUcube@@HAAUcubeface@@@Z 004104d0 f   octa.obj
 0001:0000f5e0       ?freemergeinfo@@YAXAAUcube@@@Z 004105e0 f   octa.obj
 0001:0000f607       ?genmergeinfo@@YAXPAUcube@@ABUivec@@H@Z 00410607 f   octa.obj
 0001:0000f8e6       ?genmergedverts@@YAXAAUcube@@HABUivec@@HABUmergeinfo@@PAUvec@@PAUplane@@@Z 004108e6 f   octa.obj
 0001:0000fb63       ?calcmergedsize@@YAHHABUivec@@HABUmergeinfo@@PBUvec@@@Z 00410b63 f   octa.obj
 0001:0000fd14       ?invalidatemerges@@YAXAAUcube@@_N@Z 00410d14 f   octa.obj
 0001:0000fd47       ??0?$hashtable@Ucfkey@@Ucfval@@@@QAE@H@Z 00410d47 f i octa.obj
 0001:0000fdb6       ??A?$hashtable@Ucfkey@@Ucfval@@@@QAEAAUcfval@@ABUcfkey@@@Z 00410db6 f i octa.obj
 0001:0000fe59       ??1?$hashset@U?$hashtableentry@Ucfkey@@Ucfval@@@@@@QAE@XZ 00410e59 f i octa.obj
 0001:0000fe7d       ?deletechunks@?$hashset@U?$hashtableentry@Ucfkey@@Ucfval@@@@@@QAEXXZ 00410e7d f i octa.obj
 0001:0000fed1       ??1chain@?$hashset@U?$hashtableentry@Ucfkey@@Ucfval@@@@@@QAE@XZ 00410ed1 f i octa.obj
 0001:0000fef5       ??1?$hashtableentry@Ucfkey@@Ucfval@@@@QAE@XZ 00410ef5 f i octa.obj
 0001:0000ff1d       ??1cfval@@QAE@XZ           00410f1d f i octa.obj
 0001:0000ff41       ?insert@?$hashset@U?$hashtableentry@Ucfkey@@Ucfval@@@@@@QAEPAUchain@1@I@Z 00410f41 f i octa.obj
 0001:0000ffe6       ??0chain@?$hashset@U?$hashtableentry@Ucfkey@@Ucfval@@@@@@QAE@XZ 00410fe6 f i octa.obj
 0001:00010017       ??8ivec@@QBE_NABU0@@Z      00411017 f i octa.obj
 0001:00010034       ?cross@ivec@@QAEAAU1@ABU1@0@Z 00411034 f i octa.obj
 0001:0001006d       ??8plane@@QBE_NABU0@@Z     0041106d f i octa.obj
 0001:000100a6       ??$cross@Uplane@@U1@@vec@@QAEAAU0@ABUplane@@0@Z 004110a6 f i octa.obj
 0001:000100a6       ??$cross@Uquat@@Uvec@@@vec@@QAEAAU0@ABUquat@@ABU0@@Z 004110a6 f i physics.obj
 0001:000100a6       ??$cross@Uplane@@Uvec@@@vec@@QAEAAU0@ABUplane@@ABU0@@Z 004110a6 f i lightmap.obj
 0001:000100a6       ??$cross@Uvec@@U1@@vec@@QAEAAU0@ABU0@0@Z 004110a6 f i octa.obj
 0001:000100d5       ?toplane@plane@@QAE_NABUvec@@00@Z 004110d5 f i octa.obj
 0001:00010183       ?mul@ivec@@QAEAAU1@H@Z     00411183 f i octa.obj
 0001:000101a5       ??0ivec@@QAE@ABUvec@@@Z    004111a5 f i octa.obj
 0001:000101c7       ??0ivec@@QAE@HHHH@Z        004111c7 f i octa.obj
 0001:000101f6       ?boxs@@YAXHUvec@@ABU1@@Z   004111f6 f   octaedit.obj
 0001:000102b6       ?boxs3D@@YAXABUvec@@U1@H@Z 004112b6 f   octaedit.obj
 0001:00010300       ?boxsgrid@@YAXHUvec@@0H@Z  00411300 f   octaedit.obj
 0001:00010466       ?var_dragging@@YAXXZ       00411466 f   octaedit.obj
 0001:000104ab       ?var_moving@@YAXXZ         004114ab f   octaedit.obj
 0001:000104fe       ?var_gridpower@@YAXXZ      004114fe f   octaedit.obj
 0001:00010531       ?var_hmapedit@@YAXXZ       00411531 f   octaedit.obj
 0001:0001053c       ?cubecancel@@YAXXZ         0041153c f   octaedit.obj
 0001:0001055f       ?cancelsel@@YAXXZ          0041155f f   octaedit.obj
 0001:00010569       ?toggleedit@@YAX_N@Z       00411569 f   octaedit.obj
 0001:0001062b       ?noedit@@YA_N_N0@Z         0041162b f   octaedit.obj
 0001:00010714       ?reorient@@YAXXZ           00411714 f   octaedit.obj
 0001:0001075f       ?selextend@@YAXXZ          0041175f f   octaedit.obj
 0001:000107c9       ?run@?$_icmd_edittoggle@$0LL@@@SAXXZ 004117c9 f   octaedit.obj
 0001:000107d2       ?blockcube@@YAAAUcube@@HHHABUblock3@@H@Z 004117d2 f   octaedit.obj
 0001:00010853       ?run@?$_icmd_havesel@$0NG@@@SAXXZ 00411853 f   octaedit.obj
 0001:0001086c       ?countselchild@@YAXPAUcube@@ABUivec@@H@Z 0041186c f   octaedit.obj
 0001:00010911       ?normalizelookupcube@@YAXHHH@Z 00411911 f   octaedit.obj
 0001:00010984       ?updateselection@@YAXXZ    00411984 f   octaedit.obj
 0001:00010a2d       ?editmoveplane@@YAXABUvec@@0HMAAU1@1_N@Z 00411a2d f   octaedit.obj
 0001:00010ae2       ?rendereditcursor@@YAXXZ   00411ae2 f   octaedit.obj
 0001:000116a4       ?readychanges@@YAXAAUblock3@@PAUcube@@ABUivec@@H@Z 004126a4 f   octaedit.obj
 0001:0001179c       ?commitchanges@@YAX_N@Z    0041279c f   octaedit.obj
 0001:000117f2       ?changed@@YAXABUblock3@@_N@Z 004127f2 f   octaedit.obj
 0001:0001188d       ?copycube@@YA?AUcube@@AAU1@@Z 0041288d f   octaedit.obj
 0001:00011919       ?pastecube@@YAXAAUcube@@0@Z 00412919 f   octaedit.obj
 0001:00011949       ?blockcopy@@YAXABUblock3@@HPAU1@@Z 00412949 f   octaedit.obj
 0001:00011a1f       ?freeblock@@YAXPAUblock3@@_N@Z 00412a1f f   octaedit.obj
 0001:00011a66       ?selgridmap@@YAXAAUselinfo@@PAH@Z 00412a66 f   octaedit.obj
 0001:00011b2b       ?freeundo@@YAXPAUundoblock@@@Z 00412b2b f   octaedit.obj
 0001:00011b46       ?pasteundo@@YAXPAUundoblock@@@Z 00412b46 f   octaedit.obj
 0001:00011c28       ?pruneundos@@YAXH@Z        00412c28 f   octaedit.obj
 0001:00011caf       ?clearundos@@YAXXZ         00412caf f   octaedit.obj
 0001:00011cb8       ?newundocube@@YAPAUundoblock@@AAUselinfo@@@Z 00412cb8 f   octaedit.obj
 0001:00011d19       ?addundo@@YAXPAUundoblock@@@Z 00412d19 f   octaedit.obj
 0001:00011da6       ?makeundoex@@YAXAAUselinfo@@@Z 00412da6 f   octaedit.obj
 0001:00011dca       ?makeundo@@YAXXZ           00412dca f   octaedit.obj
 0001:00011e0c       ?swapundo@@YAXAAUundolist@@0PBD@Z 00412e0c f   octaedit.obj
 0001:00011f88       ?editundo@@YAXXZ           00412f88 f   octaedit.obj
 0001:00011fa0       ?editredo@@YAXXZ           00412fa0 f   octaedit.obj
 0001:00012284       ?unpackeditinfo@@YA_NAAPAUeditinfo@@PBEHH@Z 00413284 f   octaedit.obj
 0001:0001231a       ?mpcopy@@YAXAAPAUeditinfo@@AAUselinfo@@_N@Z 0041331a f   octaedit.obj
 0001:0001241e       ?mppaste@@YAXAAPAUeditinfo@@AAUselinfo@@_N@Z 0041341e f   octaedit.obj
 0001:00012585       ?copy@@YAXXZ               00413585 f   octaedit.obj
 0001:000125a8       ?pastehilite@@YAXXZ        004135a8 f   octaedit.obj
 0001:000125cf       ?paste@@YAXXZ              004135cf f   octaedit.obj
 0001:000125f4       ?compacteditvslots@@YAXXZ  004135f4 f   octaedit.obj
 0001:000126c6       ?clearbrush@@YAXXZ         004136c6 f   octaedit.obj
 0001:000126fd       ?brushvert@@YAXPAH00@Z     004136fd f   octaedit.obj
 0001:0001280e       ?run@?$_icmd_hmapcancel@$0DOP@@@SAXXZ 0041380e f   octaedit.obj
 0001:00012816       ?run@?$_icmd_hmapselect@$0DPH@@@SAXXZ 00413816 f   octaedit.obj
 0001:0001287c       ?isheightmap@@YA_NHH_NPAUcube@@@Z 0041387c f i octaedit.obj
 0001:000128b8       ?getcube@hmap@@YAPAUcube@@Uivec@@H@Z 004138b8 f   octaedit.obj
 0001:000129b6       ?getface@hmap@@YAIPAUcube@@H@Z 004139b6 f   octaedit.obj
 0001:000129e2       ?pushside@hmap@@YAXAAUcube@@HHHH@Z 004139e2 f   octaedit.obj
 0001:00012a35       ?addpoint@hmap@@YAXHHHH@Z  00413a35 f   octaedit.obj
 0001:00012a5d       ?select@hmap@@YAXHHH@Z     00413a5d f   octaedit.obj
 0001:00012d9c       ?ripple@hmap@@YAXHHH_N@Z   00413d9c f   octaedit.obj
 0001:000132da       ?paint@hmap@@YAXXZ         004142da f   octaedit.obj
 0001:00013338       ?smooth@hmap@@YAXXZ        00414338 f   octaedit.obj
 0001:00013418       ?run@hmap@@YAXHH@Z         00414418 f   octaedit.obj
 0001:00013894       ?pushedge@@YAXAAEHH@Z      00414894 f   octaedit.obj
 0001:0001392e       ?linkedpush@@YAXAAUcube@@HHHHH@Z 0041492e f   octaedit.obj
 0001:000139f5       ?mpeditface@@YAXHHAAUselinfo@@_N@Z 004149f5 f   octaedit.obj
 0001:00013e0d       ?editface@@YAXPAH0@Z       00414e0d f   octaedit.obj
 0001:00013e8b       ?pushsel@@YAXPAH@Z         00414e8b f   octaedit.obj
 0001:00013eff       ?mpdelcube@@YAXAAUselinfo@@_N@Z 00414eff f   octaedit.obj
 0001:00014013       ?delcube@@YAXXZ            00415013 f   octaedit.obj
 0001:00014032       ?tofronttex@@YAXXZ         00415032 f   octaedit.obj
 0001:000142af       ?edittexcube@@YAXAAUcube@@HHAA_N@Z 004152af f   octaedit.obj
 0001:0001433a       ?mpeditvslot@@YAXAAUVSlot@@HAAUselinfo@@_N@Z 0041533a f   octaedit.obj
 0001:0001452f       ?vdelta@@YAXPAD@Z          0041552f f   octaedit.obj
 0001:0001456a       ?vrotate@@YAXPAH@Z         0041556a f   octaedit.obj
 0001:000145ff       ?voffset@@YAXPAH0@Z        004155ff f   octaedit.obj
 0001:0001469e       ?vscroll@@YAXPAM0@Z        0041569e f   octaedit.obj
 0001:0001472e       ?vscale@@YAXPAM@Z          0041572e f   octaedit.obj
 0001:000147f9       ?vlayer@@YAXPAH@Z          004157f9 f   octaedit.obj
 0001:00014889       ?valpha@@YAXPAM0@Z         00415889 f   octaedit.obj
 0001:00014953       ?vcolor@@YAXPAM00@Z        00415953 f   octaedit.obj
 0001:00014a60       ?vreset@@YAXXZ             00415a60 f   octaedit.obj
 0001:00014acf       ?vshaderparam@@YAXPBDPAM111@Z 00415acf f   octaedit.obj
 0001:00014bbc       ?mpedittex@@YAXHHAAUselinfo@@_N@Z 00415bbc f   octaedit.obj
 0001:00014d13       ?filltexlist@@YAXXZ        00415d13 f   octaedit.obj
 0001:00014da0       ?compactmruvslots@@YAXXZ   00415da0 f   octaedit.obj
 0001:00014e5b       ?edittex@@YAXH_N@Z         00415e5b f   octaedit.obj
 0001:00014eb2       ?edittex_@@YAXPAH@Z        00415eb2 f   octaedit.obj
 0001:00014f2d       ?gettex@@YAXXZ             00415f2d f   octaedit.obj
 0001:00015073       ?getcurtex@@YAXXZ          00416073 f   octaedit.obj
 0001:000150ac       ?getseltex@@YAXXZ          004160ac f   octaedit.obj
 0001:00015105       ?gettexname@@YAXPAH0@Z     00416105 f   octaedit.obj
 0001:0001514c       ?run@?$_icmd_getreptex@$0HDA@@@SAXXZ 0041614c f   octaedit.obj
 0001:00015179       ?replacetexcube@@YAXAAUcube@@HH@Z 00416179 f   octaedit.obj
 0001:000151c2       ?mpreplacetex@@YAXHH_NAAUselinfo@@0@Z 004161c2 f   octaedit.obj
 0001:00015305       ?replace@@YAX_N@Z          00416305 f   octaedit.obj
 0001:00015347       ?run@?$_icmd_replace@$0HEO@@@SAXXZ 00416347 f   octaedit.obj
 0001:00015350       ?run@?$_icmd_replacesel@$0HEP@@@SAXXZ 00416350 f   octaedit.obj
 0001:00015359       ?dflip@@YAII@Z             00416359 f   octaedit.obj
 0001:0001537d       ?mflip@@YAII@Z             0041637d f   octaedit.obj
 0001:0001539d       ?flipcube@@YAXAAUcube@@H@Z 0041639d f   octaedit.obj
 0001:00015466       ?rotatequad@@YAXAAUcube@@000@Z 00416466 f   octaedit.obj
 0001:000154a7       ?rotatecube@@YAXAAUcube@@H@Z 004164a7 f   octaedit.obj
 0001:00015627       ?mpflip@@YAXAAUselinfo@@_N@Z 00416627 f   octaedit.obj
 0001:000157ae       ?flip@@YAXXZ               004167ae f   octaedit.obj
 0001:000157cd       ?mprotate@@YAXHAAUselinfo@@_N@Z 004167cd f   octaedit.obj
 0001:00015a5b       ?rotate@@YAXPAH@Z          00416a5b f   octaedit.obj
 0001:00015a81       ?setmat@@YAXAAUcube@@EEEE@Z 00416a81 f   octaedit.obj
 0001:00015af6       ?mpeditmat@@YAXHHAAUselinfo@@_N@Z 00416af6 f   octaedit.obj
 0001:00015ca6       ?editmat@@YAXPAD0@Z        00416ca6 f   octaedit.obj
 0001:00015d18       ?gui@texturegui@@UAEXAAUg3d_gui@@_N@Z 00416d18 f i octaedit.obj
 0001:00015ef0       ?showtextures@texturegui@@QAEX_N@Z 00416ef0 f i octaedit.obj
 0001:00015f63       ?show@texturegui@@QAEXXZ   00416f63 f i octaedit.obj
 0001:00015fdc       ??_Escoreboardgui@game@@UAEPAXI@Z 00416fdc f i  CIL library: CIL module
 0001:00015fdc       ??_Gtexturegui@@UAEPAXI@Z  00416fdc f i octaedit.obj
 0001:00015fdc       ??_Etexturegui@@UAEPAXI@Z  00416fdc f i  CIL library: CIL module
 0001:00015fdc       ??_Gscoreboardgui@game@@UAEPAXI@Z 00416fdc f i scoreboard.obj
 0001:00016015       ?showtexgui@@YAXPAH@Z      00417015 f   octaedit.obj
 0001:00016054       ?rendertexturepanel@@YAXHH@Z 00417054 f   octaedit.obj
 0001:0001658d       ?get@?$databuf@E@@QAEABEXZ 0041758d f i octaedit.obj
 0001:000165a8       ?get@?$databuf@E@@QAEHPAEH@Z 004175a8 f i octaedit.obj
 0001:000165e2       ?remove@?$vector@H@@QAEHH@Z 004175e2 f i octaedit.obj
 0001:00016605       ?add@?$vector@UShaderParam@@@@QAEAAUShaderParam@@ABU2@@Z 00417605 f i octaedit.obj
 0001:0001663f       ?inrange@?$vector@PAUVSlot@@@@QBE_NH@Z 0041763f f i octaedit.obj
 0001:00016652       ?put@?$vector@E@@QAEXPBEH@Z 00417652 f i octaedit.obj
 0001:00016685       ??1?$vector@Umergedface@@@@QAE@XZ 00417685 f i octarender.obj
 0001:00016685       ??1?$vector@E@@QAE@XZ      00417685 f i octaedit.obj
 0001:00016685       ??1?$vector@Utri@BIH@@@@QAE@XZ 00417685 f i rendermodel.obj
 0001:00016685       ??1?$vector@PAUShader@@@@QAE@XZ 00417685 f i shader.obj
 0001:00016685       ??1?$vector@G@@QAE@XZ      00417685 f i octaedit.obj
 0001:00016685       ??1?$vector@PAUclientinfo@server@@@@QAE@XZ 00417685 f i server1.obj
 0001:00016685       ??1?$vector@Uvec@@@@QAE@XZ 00417685 f i worldio.obj
 0001:00016685       ??1?$vector@Ucubeface@@@@QAE@XZ 00417685 f i octa.obj
 0001:00016685       ??1?$vector@Ulightmaptask@@@@QAE@XZ 00417685 f i lightmap.obj
 0001:00016685       ??1?$vector@Uanimspec@animmodel@@@@QAE@XZ 00417685 f i rendermodel.obj
 0001:00016685       ??1?$vector@PAUvtxarray@@@@QAE@XZ 00417685 f i octarender.obj
 0001:0001669e       ?add@?$vector@G@@QAEAAGABG@Z 0041769e f i octaedit.obj
 0001:000166d7       ?remove@?$vector@G@@QAEGH@Z 004176d7 f i octaedit.obj
 0001:0001670b       ?insert@?$vector@G@@QAEAAGHABG@Z 0041770b f i octaedit.obj
 0001:00016755       ?add@?$vector@PAUeditinfo@@@@QAEAAPAUeditinfo@@ABQAU2@@Z 00417755 f i octaedit.obj
 0001:0001679b       ?removeobj@?$vector@PAUeditinfo@@@@QAEXABQAUeditinfo@@@Z 0041779b f i octaedit.obj
 0001:000167e4       ?growbuf@?$vector@UShaderParam@@@@QAEXH@Z 004177e4 f i octaedit.obj
 0001:0001683a       ?add@?$vector@D@@QAEAADABD@Z 0041783a f i worldio.obj
 0001:0001683a       ?add@?$vector@E@@QAEAAEABE@Z 0041783a f i octaedit.obj
 0001:0001686b       ?reserve@?$vector@D@@QAE?AU?$databuf@D@@H@Z 0041786b f i server.obj
 0001:0001686b       ?reserve@?$vector@E@@QAE?AU?$databuf@E@@H@Z 0041786b f i octaedit.obj
 0001:00016894       ?growbuf@?$vector@G@@QAEXH@Z 00417894 f i octaedit.obj
 0001:000168e9       ?growbuf@?$vector@PAUeditinfo@@@@QAEXH@Z 004178e9 f i octaedit.obj
 0001:0001694d       ?growbuf@?$vector@Uvslotmap@@@@QAEXH@Z 0041794d f i octaedit.obj
 0001:000169b1       ?growbuf@?$vector@D@@QAEXH@Z 004179b1 f i worldio.obj
 0001:000169b1       ?growbuf@?$vector@E@@QAEXH@Z 004179b1 f i octaedit.obj
 0001:00016a01       ??$find@H@?$vector@G@@QAEHABH@Z 00417a01 f i octaedit.obj
 0001:00016a55       ?put@?$databuf@E@@QAEXPBEH@Z 00417a55 f i octaedit.obj
 0001:00016a93       ?dist@vec@@QBEMABU1@AAU1@@Z 00417a93 f i octaedit.obj
 0001:00016abb       ??_Eg3d_callback@@UAEPAXI@Z 00417abb f i  CIL library: CIL module
 0001:00016abb       ??_Gg3d_callback@@UAEPAXI@Z 00417abb f i octaedit.obj
 0001:00016ad8       ??1g3d_callback@@UAE@XZ    00417ad8 f i octaedit.obj
 0001:00016adf       ??1VSlot@@QAE@XZ           00417adf f i octaedit.obj
 0001:00016b06       ?reset@VSlot@@QAEXXZ       00417b06 f i octaedit.obj
 0001:00016b93       ??0VSlot@@QAE@PAUSlot@@H@Z 00417b93 f i octaedit.obj
 0001:00016bf9       ?resetinterp@physent@@QAEXXZ 00417bf9 f i octaedit.obj
 0001:00016c21       ??8selinfo@@QBE_NABU0@@Z   00417c21 f i octaedit.obj
 0001:00016c56       ??0block3@@QAE@ABUselinfo@@@Z 00417c56 f i octaedit.obj
 0001:00016c78       ?set@Shader@@QAEXXZ        00417c78 f i octaedit.obj
 0001:00016ca3       ?rayintersect@plane@@QAE_NABUvec@@0AAM@Z 00417ca3 f i octaedit.obj
 0001:00016cf1       ??0selinfo@@QAE@XZ         00417cf1 f i octaedit.obj
 0001:00016d1e       ?destroyvbo@@YAXI@Z        00417d1e f   octarender.obj
 0001:00016d85       ?genvbo@@YAXHPAXHPAPAUvtxarray@@H@Z 00417d85 f   octarender.obj
 0001:00016eba       ?readva@@YA_NPAUvtxarray@@AAPAGAAPAE@Z 00417eba f   octarender.obj
 0001:00016f9a       ?flushvbo@@YAXH@Z          00417f9a f   octarender.obj
 0001:00016ff2       ?addvbo@@YAPAEPAUvtxarray@@HHH@Z 00417ff2 f   octarender.obj
 0001:00017036       ??0verthash@@QAE@XZ        00418036 f i octarender.obj
 0001:000170a8       ?addvert@verthash@@QAEHABUvertex@@@Z 004180a8 f i octarender.obj
 0001:0001725b       ??8sortkey@@QBE_NABU0@@Z   0041825b f i octarender.obj
 0001:00017296       ?clear@vacollect@@QAEXXZ   00418296 f i octarender.obj
 0001:00017326       ?remapunlit@vacollect@@QAEXAAU?$vector@Usortkey@@@@@Z 00418326 f i octarender.obj
 0001:000177b0       ?optimize@vacollect@@QAEXXZ 004187b0 f i octarender.obj
 0001:00017961       ?texsort@vacollect@@SAHPBUsortkey@@0@Z 00418961 f i octarender.obj
 0001:00017a22       ?genverts@vacollect@@QAEXPAX@Z 00418a22 f i octarender.obj
 0001:00017b00       ?setupdata@vacollect@@QAEXPAUvtxarray@@@Z 00418b00 f i octarender.obj
 0001:00018074       ??0vacollect@@QAE@XZ       00419074 f i octarender.obj
 0001:0001817e       ??1vacollect@@QAE@XZ       0041917e f i octarender.obj
 0001:00018220       ??1verthash@@QAE@XZ        00419220 f i octarender.obj
 0001:00018270       ??1?$hashtable@Usortkey@@Usortval@@@@QAE@XZ 00419270 f i octarender.obj
 0001:000182a8       ?calcshadowmask@@YAHPAUvec@@@Z 004192a8 f   octarender.obj
 0001:00018476       ?reduceslope@@YAXAAUivec@@@Z 00419476 f   octarender.obj
 0001:00018505       ?addtris@@YAXABUsortkey@@HQAUvertex@@QAHHH@Z 00419505 f   octarender.obj
 0001:000189e1       ?addgrasstri@@YAXHPAUvertex@@HGG@Z 004199e1 f   octarender.obj
 0001:00018fa7       ?addcubeverts@@YAXAAUVSlot@@HHPAUvec@@GPAUsurfaceinfo@@PAUsurfacenormals@@HGH_N@Z 00419fa7 f   octarender.obj
 0001:0001945c       ?gencubeedges@@YAXAAUcube@@HHHH@Z 0041a45c f   octarender.obj
 0001:000199fe       ?gencubeedges@@YAXPAUcube@@HHHH@Z 0041a9fe f   octarender.obj
 0001:00019ac8       ?gencubeverts@@YAXAAUcube@@HHHHHAAE1@Z 0041aac8 f   octarender.obj
 0001:00019ea7       ?skyoccluded@@YA_NAAUcube@@H@Z 0041aea7 f   octarender.obj
 0001:00019ee8       ?hasskyfaces@@YAHAAUcube@@HHHHQAH@Z 0041aee8 f   octarender.obj
 0001:00019fb1       ?minskyface@@YAXAAUcube@@HABUivec@@HAAUmergeinfo@@@Z 0041afb1 f   octarender.obj
 0001:0001a051       ?genskyfaces@@YAXAAUcube@@ABUivec@@H@Z 0041b051 f   octarender.obj
 0001:0001a18b       ?addskyverts@@YAXABUivec@@H@Z 0041b18b f   octarender.obj
 0001:0001a432       ?newva@@YAPAUvtxarray@@HHHH@Z 0041b432 f   octarender.obj
 0001:0001a55c       ??0vtxarray@@QAE@XZ        0041b55c f i octarender.obj
 0001:0001a5a9       ?destroyva@@YAXPAUvtxarray@@_N@Z 0041b5a9 f   octarender.obj
 0001:0001a6c8       ?clearvas@@YAXPAUcube@@@Z  0041b6c8 f   octarender.obj
 0001:0001a70e       ?updatevabb@@YAXPAUvtxarray@@_N@Z 0041b70e f   octarender.obj
 0001:0001a8fe       ?updatevabbs@@YAX_N@Z      0041b8fe f   octarender.obj
 0001:0001a927       ?genmergedfaces@@YAXAAUcube@@ABUivec@@HH@Z 0041b927 f   octarender.obj
 0001:0001abdc       ?findmergedfaces@@YAXAAUcube@@ABUivec@@HHH@Z 0041bbdc f   octarender.obj
 0001:0001ac7c       ?addmergedverts@@YAXH@Z    0041bc7c f   octarender.obj
 0001:0001ad16       ?rendercube@@YAXAAUcube@@HHHHHAAE1@Z 0041bd16 f   octarender.obj
 0001:0001af77       ?calcgeombb@@YAXHHHHAAUivec@@0@Z 0041bf77 f   octarender.obj
 0001:0001b0a5       ?calcmatbb@@YAXHHHHAAUivec@@0@Z 0041c0a5 f   octarender.obj
 0001:0001b1b0       ?setva@@YAXAAUcube@@HHHHH@Z 0041c1b0 f   octarender.obj
 0001:0001b422       ?var_filltjoints@@YAXXZ    0041c422 f   octarender.obj
 0001:0001b422       ?var_vacubemin@@YAXXZ      0041c422 f   octarender.obj
 0001:0001b422       ?var_optmats@@YAXXZ        0041c422 f   material.obj
 0001:0001b422       ?var_vertwater@@YAXXZ      0041c422 f   water.obj
 0001:0001b422       ?var_vacubesize@@YAXXZ     0041c422 f   octarender.obj
 0001:0001b422       ?var_vacubemax@@YAXXZ      0041c422 f   octarender.obj
 0001:0001b422       ?var_vbosize@@YAXXZ        0041c422 f   octarender.obj
 0001:0001b42b       ?updateva@@YAHPAUcube@@HHHHH@Z 0041c42b f   octarender.obj
 0001:0001b78f       ?buildclipmasks@@YAXAAUcube@@AAE1@Z 0041c78f f   octarender.obj
 0001:0001b877       ?addtjoint@@YAXABUedgegroup@@ABUcubeedge@@H@Z 0041c877 f   octarender.obj
 0001:0001b958       ?findtjoints@@YAXHABUedgegroup@@@Z 0041c958 f   octarender.obj
 0001:0001ba9b       ?octarender@@YAXXZ         0041ca9b f   octarender.obj
 0001:0001bb58       ?precachetextures@@YAXXZ   0041cb58 f   octarender.obj
 0001:0001bc37       ?allchanged@@YAX_N@Z       0041cc37 f   octarender.obj
 0001:0001bd9a       ?recalc@@YAXXZ             0041cd9a f   octarender.obj
 0001:0001bda3       ??0?$hashtable@IUvboinfo@@@@QAE@H@Z 0041cda3 f i octarender.obj
 0001:0001be12       ??1?$hashset@U?$hashtableentry@IUvboinfo@@@@@@QAE@XZ 0041ce12 f i octarender.obj
 0001:0001be4d       ?access@?$hashtable@Usortkey@@Usortval@@@@QAEPAUsortval@@ABUsortkey@@@Z 0041ce4d f i octarender.obj
 0001:0001be87       ??A?$hashtable@Usortkey@@Usortval@@@@QAEAAUsortval@@ABUsortkey@@@Z 0041ce87 f i octarender.obj
 0001:0001bee0       ??1?$hashset@U?$hashtableentry@Usortkey@@Usortval@@@@@@QAE@XZ 0041cee0 f i octarender.obj
 0001:0001befc       ?add@?$vector@Usortkey@@@@QAEAAUsortkey@@ABU2@@Z 0041cefc f i octarender.obj
 0001:0001bf35       ?removeobj@?$vector@Usortkey@@@@QAEXABUsortkey@@@Z 0041cf35 f i octarender.obj
 0001:0001bfb4       ??0?$hashtable@Uedgegroup@@H@@QAE@H@Z 0041cfb4 f i octarender.obj
 0001:0001c023       ??1?$hashset@U?$hashtableentry@Uedgegroup@@H@@@@QAE@XZ 0041d023 f i octarender.obj
 0001:0001c047       ?add@?$vector@Umergedface@@@@QAEAAUmergedface@@ABU2@@Z 0041d047 f i octarender.obj
 0001:0001c081       ?growbuf@?$vector@Ugrasstri@@@@QAEXH@Z 0041d081 f i octarender.obj
 0001:0001c0dd       ?deletechunks@?$hashset@U?$hashtableentry@Usortkey@@Usortval@@@@@@QAEXXZ 0041d0dd f i octarender.obj
 0001:0001c131       ?growbuf@?$vector@Usortkey@@@@QAEXH@Z 0041d131 f i octarender.obj
 0001:0001c187       ?growbuf@?$vector@Utjoint@@@@QAEXH@Z 0041d187 f i octarender.obj
 0001:0001c1eb       ?deletechunks@?$hashset@U?$hashtableentry@Uedgegroup@@H@@@@QAEXXZ 0041d1eb f i octarender.obj
 0001:0001c20b       ?growbuf@?$vector@Umergedface@@@@QAEXH@Z 0041d20b f i octarender.obj
 0001:0001c261       ??1chain@?$hashset@U?$hashtableentry@Usortkey@@Usortval@@@@@@QAE@XZ 0041d261 f i octarender.obj
 0001:0001c285       ??1?$hashtableentry@Usortkey@@Usortval@@@@QAE@XZ 0041d285 f i octarender.obj
 0001:0001c2ad       ??1sortval@@QAE@XZ         0041d2ad f i octarender.obj
 0001:0001c2de       ?insert@?$hashset@U?$hashtableentry@IUvboinfo@@@@@@QAEPAUchain@1@I@Z 0041d2de f i octarender.obj
 0001:0001c376       ?insert@?$hashset@U?$hashtableentry@Usortkey@@Usortval@@@@@@QAEPAUchain@1@I@Z 0041d376 f i octarender.obj
 0001:0001c41b       ?insert@?$hashset@U?$hashtableentry@Uedgegroup@@H@@@@QAEPAUchain@1@I@Z 0041d41b f i octarender.obj
 0001:0001c4b3       ??0chain@?$hashset@U?$hashtableentry@Usortkey@@Usortval@@@@@@QAE@XZ 0041d4b3 f i octarender.obj
 0001:0001c4f8       ??$remove@I@?$hashset@U?$hashtableentry@IUvboinfo@@@@@@QAE_NABI@Z 0041d4f8 f i octarender.obj
 0001:0001c558       ??$find@G@?$vector@H@@QAEHABG@Z 0041d558 f i octarender.obj
 0001:0001c57e       ?tovec@bvec@@QBE?AUvec@@XZ 0041d57e f i octarender.obj
 0001:0001c5bd       ?lerp@bvec@@QAEXABU1@0M@Z  0041d5bd f i octarender.obj
 0001:0001c626       ?supportpoint@CubePlanes@mpr@@QBE?AUvec@@ABU3@@Z 0041d626 f i physics.obj
 0001:0001c68f       ?center@SolidCube@mpr@@QBE?AUvec@@XZ 0041d68f f i physics.obj
 0001:0001c6d5       ?supportpoint@SolidCube@mpr@@QBE?AUvec@@ABU3@@Z 0041d6d5 f i physics.obj
 0001:0001c71b       ?supportpoint@EntAABB@mpr@@QBE?AUvec@@ABU3@@Z 0041d71b f i physics.obj
 0001:0001c77a       ??0EntOBB@mpr@@QAE@PAUphysent@@M@Z 0041d77a f i physics.obj
 0001:0001c7b7       ?center@EntOBB@mpr@@QBE?AUvec@@XZ 0041d7b7 f i physics.obj
 0001:0001c7da       ?contactface@EntOBB@mpr@@QBE?AUvec@@ABU3@0@Z 0041d7da f i physics.obj
 0001:0001c9ca       ?supportpoint@EntOBB@mpr@@QBE?AUvec@@ABU3@@Z 0041d9ca f i physics.obj
 0001:0001ca61       ?contactface@EntCylinder@mpr@@QBE?AUvec@@ABU3@0@Z 0041da61 f i physics.obj
 0001:0001cb1c       ?supportpoint@EntCylinder@mpr@@QBE?AUvec@@ABU3@@Z 0041db1c f i physics.obj
 0001:0001cb8e       ?supportpoint@EntCapsule@mpr@@QBE?AUvec@@ABU3@@Z 0041db8e f i physics.obj
 0001:0001cc07       ?contactface@ModelOBB@mpr@@QBE?AUvec@@ABU3@0@Z 0041dc07 f i physics.obj
 0001:0001cdd9       ?supportpoint@ModelOBB@mpr@@QBE?AUvec@@ABU3@@Z 0041ddd9 f i physics.obj
 0001:0001ce61       ?contactface@ModelEllipse@mpr@@QBE?AUvec@@ABU3@0@Z 0041de61 f i physics.obj
 0001:0001cf72       ?supportpoint@ModelEllipse@mpr@@QBE?AUvec@@ABU3@@Z 0041df72 f i physics.obj
 0001:0001d013       ?gencubeclip@@YAXAAUcube@@ABUivec@@H@Z 0041e013 f   physics.obj
 0001:0001d088       ?freeclipplanes@@YAXAAUcube@@@Z 0041e088 f   physics.obj
 0001:0001d0aa       ?pointincube@@YA_NABUclipplanes@@ABUvec@@@Z 0041e0aa f   physics.obj
 0001:0001d765       ?raycube@@YAMABUvec@@0MHHPAUextentity@@@Z 0041e765 f   physics.obj
 0001:0001dd10       ?shadowray@@YAMABUvec@@0MHPAUextentity@@@Z 0041ed10 f   physics.obj
 0001:0001e3e9       ??0ShadowRayCache@@QAE@XZ  0041f3e9 f i physics.obj
 0001:0001e429       ?shadowray@@YAMPAUShadowRayCache@@ABUvec@@1MHPAUextentity@@@Z 0041f429 f   physics.obj
 0001:0001eb5d       ?rayent@@YAMABUvec@@0MHHAAH1@Z 0041fb5d f   physics.obj
 0001:0001ec08       ?raycubepos@@YAMABUvec@@0AAU1@MHH@Z 0041fc08 f   physics.obj
 0001:0001ec7e       ?raycubelos@@YA_NABUvec@@0AAU1@@Z 0041fc7e f   physics.obj
 0001:0001ecff       ?rayfloor@@YAMABUvec@@AAU1@HM@Z 0041fcff f   physics.obj
 0001:0001ed87       ?ellipserectcollide@@YA_NPAUphysent@@ABUvec@@11MMMMM@Z 0041fd87 f   physics.obj
 0001:0001f0bb       ?ellipsecollide@@YA_NPAUphysent@@ABUvec@@11MMMMM@Z 004200bb f   physics.obj
 0001:0001f363       ?rectcollide@@YA_NPAUphysent@@ABUvec@@1MMMME@Z 00420363 f   physics.obj
 0001:0001f654       ??0dynentcacheentry@@QAE@XZ 00420654 f i physics.obj
 0001:0001f67f       ??1dynentcacheentry@@QAE@XZ 0042067f f i physics.obj
 0001:0001f6b6       ?cleardynentcache@@YAXXZ   004206b6 f   physics.obj
 0001:0001f6eb       ?var_dynentsize@@YAXXZ     004206eb f   physics.obj
 0001:0001f6f0       ?checkdynentcache@@YAABU?$vector@PAUphysent@@@@HH@Z 004206f0 f   physics.obj
 0001:0001f7fb       ?updatedynentcache@@YAXPAUphysent@@@Z 004207fb f   physics.obj
 0001:0001f905       ?overlapsdynent@@YA_NABUvec@@M@Z 00420905 f   physics.obj
 0001:0001fa0c       ?plcollide@@YA_NPAUphysent@@ABUvec@@@Z 00420a0c f   physics.obj
 0001:0001fc99       ?rotatebb@@YAXAAUvec@@0H@Z 00420c99 f   physics.obj
 0001:0001ff59       ?mmcollide@@YA_NPAUphysent@@ABUvec@@AAUoctaentities@@@Z 00420f59 f   physics.obj
 0001:00020696       ?collide@@YA_NPAUphysent@@ABUvec@@M_N@Z 00421696 f   physics.obj
 0001:00020750       ?recalcdir@@YAXPAUphysent@@ABUvec@@AAU2@@Z 00421750 f   physics.obj
 0001:000207ab       ?slideagainst@@YAXPAUphysent@@AAUvec@@ABU2@_N3@Z 004217ab f   physics.obj
 0001:0002083f       ?switchfloor@@YAXPAUphysent@@AAUvec@@ABU2@@Z 0042183f f   physics.obj
 0001:00020930       ?trystepup@@YA_NPAUphysent@@AAUvec@@ABU2@M2@Z 00421930 f   physics.obj
 0001:00020d40       ?trystepdown@@YA_NPAUphysent@@AAUvec@@MMM_N@Z 00421d40 f   physics.obj
 0001:00020fc1       ?trystepdown@@YA_NPAUphysent@@AAUvec@@_N@Z 00421fc1 f   physics.obj
 0001:00021066       ?falling@@YAXPAUphysent@@AAUvec@@ABU2@@Z 00422066 f   physics.obj
 0001:0002111d       ?landing@@YAXPAUphysent@@AAUvec@@ABU2@_N@Z 0042211d f   physics.obj
 0001:00021165       ?findfloor@@YA_NPAUphysent@@_NABUvec@@AA_NAAU2@@Z 00422165 f   physics.obj
 0001:00021385       ?move@@YA_NPAUphysent@@AAUvec@@@Z 00422385 f   physics.obj
 0001:00021766       ?bounce@@YA_NPAUphysent@@MMM@Z 00422766 f   physics.obj
 0001:00021990       ?avoidcollision@@YAXPAUphysent@@ABUvec@@0M@Z 00422990 f   physics.obj
 0001:00021ad5       ?movecamera@@YA_NPAUphysent@@ABUvec@@MM@Z 00422ad5 f   physics.obj
 0001:00021b89       ?droptofloor@@YA_NAAUvec@@MM@Z 00422b89 f   physics.obj
 0001:00021cdd       ?dropenttofloor@@YAXPAUentity@@@Z 00422cdd f   physics.obj
 0001:00021d1c       ?phystest@@YAXXZ           00422d1c f   physics.obj
 0001:00021de7       ?vecfromyawpitch@@YAXMMHHAAUvec@@@Z 00422de7 f   physics.obj
 0001:00021ec9       ?vectoyawpitch@@YAXABUvec@@AAM1@Z 00422ec9 f   physics.obj
 0001:00021f0d       ?modifyvelocity@@YAXPAUphysent@@_N11H@Z 00422f0d f   physics.obj
 0001:0002218c       ?modifygravity@@YAXPAUphysent@@_NH@Z 0042318c f   physics.obj
 0001:000222d0       ?moveplayer@@YA_NPAUphysent@@H_NH@Z 004232d0 f   physics.obj
 0001:000225cf       ?physicsframe@@YAXXZ       004235cf f   physics.obj
 0001:00022629       ?interppos@@YAXPAUphysent@@@Z 00423629 f   physics.obj
 0001:0002269f       ?moveplayer@@YAXPAUphysent@@H_N@Z 0042369f f   physics.obj
 0001:00022731       ?bounce@@YA_NPAUphysent@@MM@Z 00423731 f   physics.obj
 0001:000227ec       ?updatephysstate@@YAXPAUphysent@@@Z 004237ec f   physics.obj
 0001:00022923       ?platformcollide@@YA_NPAUphysent@@0ABUvec@@M@Z 00423923 f   physics.obj
 0001:000229a7       ?moveplatform@@YA_NPAUphysent@@ABUvec@@@Z 004239a7 f   physics.obj
 0001:00023126       ?run@?$_icmd_backward@$0IEB@@@SAXPAH@Z 00424126 f   physics.obj
 0001:00023155       ?run@?$_icmd_forward@$0IEC@@@SAXPAH@Z 00424155 f   physics.obj
 0001:00023184       ?run@?$_icmd_left@$0IED@@@SAXPAH@Z 00424184 f   physics.obj
 0001:000231b3       ?run@?$_icmd_right@$0IEE@@@SAXPAH@Z 004241b3 f   physics.obj
 0001:000231e2       ?run@?$_icmd_jump@$0IEG@@@SAXPAH@Z 004241e2 f   physics.obj
 0001:0002321f       ?run@?$_icmd_attack@$0IEH@@@SAXPAH@Z 0042421f f   physics.obj
 0001:00023248       ?entinmap@@YA_NPAUdynent@@_N@Z 00424248 f   physics.obj
 0001:000233af       ?add@?$vector@Uplatformcollision@@@@QAEAAUplatformcollision@@ABU2@@Z 004243af f i physics.obj
 0001:000233f5       ?growbuf@?$vector@Uplatforment@@@@QAEXH@Z 004243f5 f i physics.obj
 0001:00023457       ?growbuf@?$vector@Uplatformcollision@@@@QAEXH@Z 00424457 f i physics.obj
 0001:00025547       ??$find@PAUplatforment@@@?$vector@PAUplatforment@@@@QAEHABQAUplatforment@@@Z 00426547 f i physics.obj
 0001:00025547       ??$find@H@?$vector@H@@QAEHABH@Z 00426547 f i octaedit.obj
 0001:0002556c       ??$collide@UEntOBB@mpr@@UEntCylinder@2@@mpr@@YA_NABUEntOBB@0@ABUEntCylinder@0@PAUvec@@22@Z 0042656c f i physics.obj
 0001:00025cbe       ??$collide@UEntOBB@mpr@@U12@@mpr@@YA_NABUEntOBB@0@0PAUvec@@11@Z 00426cbe f i physics.obj
 0001:000263f4       ??$collide@UEntOBB@mpr@@UModelEllipse@2@@mpr@@YA_NABUEntOBB@0@ABUModelEllipse@0@PAUvec@@22@Z 004273f4 f i physics.obj
 0001:00026b27       ??$collide@UEntOBB@mpr@@UModelOBB@2@@mpr@@YA_NABUEntOBB@0@ABUModelOBB@0@PAUvec@@22@Z 00427b27 f i physics.obj
 0001:0002725a       ??$collide@USolidCube@mpr@@UEntOBB@2@@mpr@@YA_NABUSolidCube@0@ABUEntOBB@0@@Z 0042825a f i physics.obj
 0001:0002772c       ??$collide@UCubePlanes@mpr@@UEntOBB@2@@mpr@@YA_NABUCubePlanes@0@ABUEntOBB@0@@Z 0042872c f i physics.obj
 0001:00027c00       ??$collide@USolidCube@mpr@@UEntCapsule@2@@mpr@@YA_NABUSolidCube@0@ABUEntCapsule@0@@Z 00428c00 f i physics.obj
 0001:000280e4       ??$collide@UCubePlanes@mpr@@UEntCapsule@2@@mpr@@YA_NABUCubePlanes@0@ABUEntCapsule@0@@Z 004290e4 f i physics.obj
 0001:000285ea       ?scalartriple@vec@@QBEMABU1@0@Z 004295ea f i physics.obj
 0001:0002861d       ?cross@vec@@QAEAAU1@ABU1@00@Z 0042961d f i physics.obj
 0001:0002867e       ?pow@@YAMMM@Z              0042967e f i physics.obj
 0001:0002869b       ?lerp@vec@@QAEAAU1@ABU1@0M@Z 0042969b f i physics.obj
 0001:000286ca       ?atan2@@YAMMM@Z            004296ca f i physics.obj
 0001:000286e5       ?reset@physent@@QAEXXZ     004296e5 f i physics.obj
 0001:00028734       ??0physent@@QAE@XZ         00429734 f i physics.obj
 0001:000287a1       ?projectxy@vec@@QAEAAU1@ABU1@@Z 004297a1 f i physics.obj
 0001:0002880e       ?projectxydir@vec@@QAEAAU1@ABU1@@Z 0042980e f i physics.obj
 0001:00028835       ?rescale@vec@@QAEAAU1@M@Z  00429835 f i physics.obj
 0001:00028869       ?projectxy@vec@@QAEAAU1@ABU1@M@Z 00429869 f i physics.obj
 0001:000288e9       ?project@vec@@QAEAAU1@ABU1@@Z 004298e9 f i physics.obj
 0001:0002891a       ?collisionbox@model@@QAEXHAAUvec@@0@Z 0042991a f i physics.obj
 0001:00028958       ?reject@vec@@QAE_NABU1@M@Z 00429958 f i physics.obj
 0001:000289a0       _atan2f                    004299a0 f i physics.obj
 0001:000289bb       ?rotate_around_z@vec@@QAEAAU1@M@Z 004299bb f i physics.obj
 0001:00028a88       ?magnitude2@vec@@QBEMXZ    00429a88 f i physics.obj
 0001:00028aa4       ?rotate@quat@@QBE?AUvec@@ABU2@@Z 00429aa4 f i physics.obj
 0001:00028b49       ?invertedrotate@quat@@QBE?AUvec@@ABU2@@Z 00429b49 f i physics.obj
 0001:00028bee       ??0quat@@QAE@ABUvec@@M@Z   00429bee f i physics.obj
 0001:00029071       ??0shaftbb@@QAE@ABUivec@@HABUbvec@@@Z 0042a071 f i pvs.obj
 0001:00029111       ?contains@shaftbb@@QBE_NABU1@@Z 0042a111 f i pvs.obj
 0001:00029152       ?outside@shaftbb@@QBE_NABUivec@@H@Z 0042a152 f i pvs.obj
 0001:000291ae       ?calcshaft@shaft@@QAEXABUshaftbb@@0@Z 0042a1ae f i pvs.obj
 0001:0002940b       ?outside@shaft@@QBE_NABUshaftbb@@@Z 0042a40b f i pvs.obj
 0001:000294a3       ?inside@shaft@@QBE_NABUshaftbb@@@Z 0042a4a3 f i pvs.obj
 0001:00029568       ??0<unnamed-type-waterplanes>@@QAE@XZ 0042a568 f i pvs.obj
 0001:00029593       ??1<unnamed-type-waterplanes>@@QAE@XZ 0042a593 f i pvs.obj
 0001:000295b9       ??0pvsworker@@QAE@XZ       0042a5b9 f i pvs.obj
 0001:00029623       ??1pvsworker@@QAE@XZ       0042a623 f i pvs.obj
 0001:0002965c       ?resetlevels@pvsworker@@QAEXXZ 0042a65c f i pvs.obj
 0001:00029696       ?hasvoxel@pvsworker@@QAEHABUivec@@HHHHPAH@Z 0042a696 f i pvs.obj
 0001:00029945       ?hidepvs@pvsworker@@QAEXAAUpvsnode@@@Z 0042a945 f i pvs.obj
 0001:0002998b       ?shaftcullpvs@pvsworker@@QAEXAAUshaft@@AAUpvsnode@@ABUivec@@H@Z 0042a98b f i pvs.obj
 0001:00029a9d       ?cullpvs@pvsworker@@QAEXAAUpvsnode@@ABUivec@@H@Z 0042aa9d f i pvs.obj
 0001:0002a390       ?compresspvs@pvsworker@@QAE_NAAUpvsnode@@HH@Z 0042b390 f i pvs.obj
 0001:0002a44a       ?serializepvs@pvsworker@@QAE_NAAUpvsnode@@H@Z 0042b44a f i pvs.obj
 0001:0002a5e0       ?materialoccluded@pvsworker@@QAE_NAAUpvsnode@@ABUivec@@H11@Z 0042b5e0 f i pvs.obj
 0001:0002a67b       ?materialoccluded@pvsworker@@QAE_NAAU?$vector@PAUmaterialsurface@@@@@Z 0042b67b f i pvs.obj
 0001:0002a74e       ?calcpvs@pvsworker@@QAEXABUivec@@H@Z 0042b74e f i pvs.obj
 0001:0002a882       ?genviewcell@pvsworker@@QAEHABUivec@@H@Z 0042b882 f i pvs.obj
 0001:0002a9ca       ?run@pvsworker@@SAHPAX@Z   0042b9ca f i pvs.obj
 0001:0002aa4a       ??_Gviewcellnode@@QAEPAXI@Z 0042ba4a f i pvs.obj
 0001:0002afcd       ?var_lockpvs@@YAXXZ        0042bfcd f   pvs.obj
 0001:0002afe2       ?setviewcell@@YAXABUvec@@@Z 0042bfe2 f   pvs.obj
 0001:0002b079       ?clearpvs@@YAXXZ           0042c079 f   pvs.obj
 0001:0002b1f4       ?testpvs@@YAXPAH@Z         0042c1f4 f   pvs.obj
 0001:0002b3f0       ?genpvs@@YAXPAH@Z          0042c3f0 f   pvs.obj
 0001:0002b804       ?pvsstats@@YAXXZ           0042c804 f   pvs.obj
 0001:0002ba2b       ?pvsoccluded@@YA_NABUivec@@0@Z 0042ca2b f   pvs.obj
 0001:0002ba49       ?waterpvsoccluded@@YA_NH@Z 0042ca49 f   pvs.obj
 0001:0002ba9c       ?saveviewcells@@YAXPAUstream@@AAUviewcellnode@@@Z 0042ca9c f   pvs.obj
 0001:0002baee       ?savepvs@@YAXPAUstream@@@Z 0042caee f   pvs.obj
 0001:0002bb8d       ?loadviewcells@@YAPAUviewcellnode@@PAUstream@@@Z 0042cb8d f   pvs.obj
 0001:0002bc15       ?loadpvs@@YAXPAUstream@@H@Z 0042cc15 f   pvs.obj
 0001:0002bcf5       ?add@?$vector@Upvsnode@@@@QAEAAUpvsnode@@XZ 0042ccf5 f i pvs.obj
 0001:0002bd39       ??0?$hashtable@Upvsdata@@H@@QAE@H@Z 0042cd39 f i pvs.obj
 0001:0002bda8       ??1?$hashset@U?$hashtableentry@Upvsdata@@H@@@@QAE@XZ 0042cda8 f i pvs.obj
 0001:0002bdc4       ?add@?$vector@Upvsdata@@@@QAEAAUpvsdata@@ABU2@@Z 0042cdc4 f i pvs.obj
 0001:0002be0a       ?add@?$vector@Uviewcellrequest@@@@QAEAAUviewcellrequest@@XZ 0042ce0a f i pvs.obj
 0001:0002be4e       ?add@?$vector@PAUpvsworker@@@@QAEAAPAUpvsworker@@ABQAU2@@Z 0042ce4e f i pvs.obj
 0001:0002be94       ?growbuf@?$vector@Upvsnode@@@@QAEXH@Z 0042ce94 f i pvs.obj
 0001:0002bef8       ?deletechunks@?$hashset@U?$hashtableentry@Upvsdata@@H@@@@QAEXXZ 0042cef8 f i pvs.obj
 0001:0002bf1c       ?growbuf@?$vector@Upvsdata@@@@QAEXH@Z 0042cf1c f i pvs.obj
 0001:0002bf80       ?growbuf@?$vector@Uviewcellrequest@@@@QAEXH@Z 0042cf80 f i pvs.obj
 0001:0002bfe2       ?growbuf@?$vector@PAUpvsworker@@@@QAEXH@Z 0042cfe2 f i pvs.obj
 0001:0002c046       ?insert@?$hashset@U?$hashtableentry@Upvsdata@@H@@@@QAEPAUchain@1@I@Z 0042d046 f i pvs.obj
 0001:0002c0de       ??$putlil@H@stream@@QAE_NH@Z 0042d0de f i pvs.obj
 0001:0002c0de       ??$putlil@I@stream@@QAE_NI@Z 0042d0de f i pvs.obj
 0001:0002c0fa       ??$putlil@G@stream@@QAE_NG@Z 0042d0fa f i pvs.obj
 0001:0002c118       ??$getlil@H@stream@@QAEHXZ 0042d118 f i pvs.obj
 0001:0002c135       ??$getlil@G@stream@@QAEGXZ 0042d135 f i pvs.obj
 0001:0002c17e       ?getentboundingbox@@YA_NAAUextentity@@AAUivec@@1@Z 0042d17e f   world.obj
 0001:0002c292       ?modifyoctaentity@@YAXHHPAUcube@@ABUivec@@H11HPAUvtxarray@@@Z 0042d292 f   world.obj
 0001:0002c81b       ?freeoctaentities@@YAXAAUcube@@@Z 0042d81b f   world.obj
 0001:0002c8e3       ?entitiesinoctanodes@@YAXXZ 0042d8e3 f   world.obj
 0001:0002ca74       ?findents@@YAXHH_NABUvec@@1AAU?$vector@H@@@Z 0042da74 f   world.obj
 0001:0002ccce       ?entname@@YAPADAAUentity@@@Z 0042dcce f   world.obj
 0001:0002ccf7       ?var_entediting@@YAXXZ     0042dcf7 f   world.obj
 0001:0002cd14       ?noentedit@@YA_NXZ         0042dd14 f   world.obj
 0001:0002cd3a       ?pointinsel@@YA_NAAUselinfo@@AAUvec@@@Z 0042dd3a f   world.obj
 0001:0002cdd5       ?entcancel@@YAXXZ          0042ddd5 f   world.obj
 0001:0002cde6       ?entadd@@YAXH@Z            0042dde6 f   world.obj
 0001:0002cdfd       ?newundoent@@YAPAUundoblock@@XZ 0042ddfd f   world.obj
 0001:0002ce69       ?makeundoent@@YAXXZ        0042de69 f   world.obj
 0001:0002ce96       ?detachentity@@YAXAAUextentity@@@Z 0042de96 f   world.obj
 0001:0002cea6       ?attachentity@@YAXAAUextentity@@@Z 0042dea6 f   world.obj
 0001:0002cf48       ?getselpos@@YA?AUvec@@XZ   0042df48 f   world.obj
 0001:0002cfa4       ?copyundoents@@YAPAUundoblock@@PAU1@@Z 0042dfa4 f   world.obj
 0001:0002d005       ?pasteundoents@@YAXPAUundoblock@@@Z 0042e005 f   world.obj
 0001:0002d0b5       ?entflip@@YAXXZ            0042e0b5 f   world.obj
 0001:0002d228       ?entrotate@@YAXPAH@Z       0042e228 f   world.obj
 0001:0002d490       ?entselectionbox@@YAXABUentity@@AAUvec@@1@Z 0042e490 f   world.obj
 0001:0002d5ce       ?entdrag@@YAXABUvec@@@Z    0042e5ce f   world.obj
 0001:0002d8ce       ?renderentring@@YAXABUextentity@@MH@Z 0042e8ce f   world.obj
 0001:0002d96f       ?renderentsphere@@YAXABUextentity@@M@Z 0042e96f f   world.obj
 0001:0002d99c       ?renderentarrow@@YAXABUextentity@@ABUvec@@M@Z 0042e99c f   world.obj
 0001:0002daf6       ?renderentcone@@YAXABUextentity@@ABUvec@@MM@Z 0042eaf6 f   world.obj
 0001:0002dc63       ?renderentradius@@YAXAAUextentity@@_N@Z 0042ec63 f   world.obj
 0001:0002dee4       ?renderentselection@@YAXABUvec@@0_N@Z 0042eee4 f   world.obj
 0001:0002e205       ?enttoggle@@YA_NH@Z        0042f205 f   world.obj
 0001:0002e244       ?hoveringonent@@YA_NHH@Z   0042f244 f   world.obj
 0001:0002e294       ?var_entmoving@@YAXXZ      0042f294 f   world.obj
 0001:0002e304       ?entpush@@YAXPAH@Z         0042f304 f   world.obj
 0001:0002e71d       ?entautoview@@YAXPAH@Z     0042f71d f   world.obj
 0001:0002e808       ?delent@@YAXXZ             0042f808 f   world.obj
 0001:0002ea67       ?findtype@@YAHPAD@Z        0042fa67 f   world.obj
 0001:0002eaad       ?dropentity@@YA_NAAUentity@@H@Z 0042faad f   world.obj
 0001:0002ec5d       ?dropent@@YAXXZ            0042fc5d f   world.obj
 0001:0002eed3       ?attachent@@YAXXZ          0042fed3 f   world.obj
 0001:0002f141       ?newentity@@YAPAUextentity@@_NABUvec@@HHHHHH@Z 00430141 f   world.obj
 0001:0002f200       ?newentity@@YAXHHHHHH@Z    00430200 f   world.obj
 0001:0002f2ce       ?newent@@YAXPADPAH1111@Z   004302ce f   world.obj
 0001:0002f30e       ?entcopy@@YAXXZ            0043030e f   world.obj
 0001:0002f3ee       ?entpaste@@YAXXZ           004303ee f   world.obj
 0001:0002f607       ?entset@@YAXPADPAH1111@Z   00430607 f   world.obj
 0001:0002f96e       ?printent@@YAXAAUextentity@@PAD@Z 0043096e f   world.obj
 0001:0002f9bd       ?nearestent@@YAXXZ         004309bd f   world.obj
 0001:0002fa2d       ?run@?$_icmd_enthavesel@$0DOL@@@SAXXZ 00430a2d f   world.obj
 0001:0002fa75       ?run@?$_icmd_entselect@$0DOM@@@SAXPAD@Z 00430a75 f   world.obj
 0001:0002fada       ?run@?$_icmd_entloop@$0DON@@@SAXPAD@Z 00430ada f   world.obj
 0001:0002fc67       ?run@?$_icmd_insel@$0DOO@@@SAXXZ 00430c67 f   world.obj
 0001:0002fc89       ?run@?$_icmd_entget@$0DOP@@@SAXXZ 00430c89 f   world.obj
 0001:0002fcbe       ?run@?$_icmd_entindex@$0DPA@@@SAXXZ 00430cbe f   world.obj
 0001:0002fccb       ?findentity@@YAHHHHH@Z     00430ccb f   world.obj
 0001:0002fd35       ?findplayerspawn@@YAXPAUdynent@@HH@Z 00430d35 f   world.obj
 0001:0002fe51       ?splitocta@@YAXPAUcube@@H@Z 00430e51 f   world.obj
 0001:0002fe9e       ?resetmap@@YAXXZ           00430e9e f   world.obj
 0001:0002ffd5       ?emptymap@@YA_NH_NPBD0@Z   00430fd5 f   world.obj
 0001:000300d8       ?enlargemap@@YA_N_N@Z      004310d8 f   world.obj
 0001:00030219       ?shrinkmap@@YAXXZ          00431219 f   world.obj
 0001:000303ef       ?newmap@@YAXPAH@Z          004313ef f   world.obj
 0001:00030455       ?mapenlarge@@YAXXZ         00431455 f   world.obj
 0001:00030560       ?mapname@@YAXXZ            00431560 f   world.obj
 0001:0003056c       ?mpeditent@@YAXHABUvec@@HHHHHH_N@Z 0043156c f   world.obj
 0001:00030679       ?removeobj@?$vector@H@@QAEXABH@Z 00431679 f i world.obj
 0001:000306a2       ?growbuf@?$vector@Uentity@@@@QAEXH@Z 004316a2 f i world.obj
 0001:00030704       ?fmod@@YAMMM@Z             00431704 f i world.obj
 0001:00030721       ?rotate@vec@@QAEAAU1@MMABU1@@Z 00431721 f i world.obj
 0001:000307d1       ?rotate@vec@@QAEAAU1@MABU1@@Z 004317d1 f i world.obj
 0001:00030809       ?orthogonal@vec@@QAEXABU1@@Z 00431809 f i world.obj
 0001:000308b7       ?concatstring@@YAPADPADPBDI@Z 004318b7 f i world.obj
 0001:000308e7       ??0octaentities@@QAE@ABUivec@@H@Z 004318e7 f i world.obj
 0001:000309af       ?backup@@YAXPAD0@Z         004319af f   worldio.obj
 0001:00030a0d       ?getmapfilenames@@YAXPBD0PAD11@Z 00431a0d f   worldio.obj
 0001:00030b21       ?setmapfilenames@@YAXPBD0@Z 00431b21 f   worldio.obj
 0001:00030c0d       ?mapcfgname@@YAXXZ         00431c0d f   worldio.obj
 0001:00030c84       ?savec@@YAXPAUcube@@PAUstream@@_N@Z 00431c84 f   worldio.obj
 0001:00030f99       ?loadc@@YAXPAUstream@@AAUcube@@@Z 00431f99 f   worldio.obj
 0001:000312e7       ?loadchildren@@YAPAUcube@@PAUstream@@@Z 004322e7 f   worldio.obj
 0001:0003130e       ?savevslot@@YAXPAUstream@@AAUVSlot@@H@Z 0043230e f   worldio.obj
 0001:00031459       ?savevslots@@YAXPAUstream@@H@Z 00432459 f   worldio.obj
 0001:00031524       ?loadvslot@@YAXPAUstream@@AAUVSlot@@H@Z 00432524 f   worldio.obj
 0001:000316a3       ?loadvslots@@YAXPAUstream@@H@Z 004326a3 f   worldio.obj
 0001:000317e7       ?save_world@@YA_NPBD_N@Z   004327e7 f   worldio.obj
 0001:00031e0a       ?load_world@@YA_NPBD0@Z    00432e0a f   worldio.obj
 0001:00032a8a       ?savecurrentmap@@YAXXZ     00433a8a f   worldio.obj
 0001:00032a99       ?savemap@@YAXPAD@Z         00433a99 f   worldio.obj
 0001:00032ac5       ?writeobj@@YAXPAD@Z        00433ac5 f   worldio.obj
 0001:00033444       ??1?$hashtable@Uvec@@H@@QAE@XZ 00434444 f i worldio.obj
 0001:00033468       ??1?$hashtable@Uvec2@@H@@QAE@XZ 00434468 f i worldio.obj
 0001:0003348c       ??1?$hashtable@HU?$vector@Uivec@@@@@@QAE@XZ 0043448c f i worldio.obj
 0001:000334b2       ?add@?$vector@PAUVSlot@@@@QAEAAPAUVSlot@@ABQAU2@@Z 004344b2 f i worldio.obj
 0001:000334f8       ??0?$hashtable@Uvec@@H@@QAE@H@Z 004344f8 f i worldio.obj
 0001:00033555       ?access@?$hashtable@Uvec@@H@@QAEAAHABUvec@@ABH@Z 00434555 f i worldio.obj
 0001:000335cb       ??1?$hashset@U?$hashtableentry@Uvec@@H@@@@QAE@XZ 004345cb f i worldio.obj
 0001:00033601       ??0?$hashtable@Uvec2@@H@@QAE@H@Z 00434601 f i worldio.obj
 0001:00033662       ??1?$hashset@U?$hashtableentry@Uvec2@@H@@@@QAE@XZ 00434662 f i worldio.obj
 0001:00033698       ??0?$hashtable@HU?$vector@Uivec@@@@@@QAE@H@Z 00434698 f i worldio.obj
 0001:000336f9       ??A?$hashtable@HU?$vector@Uivec@@@@@@QAEAAU?$vector@Uivec@@@@ABH@Z 004346f9 f i worldio.obj
 0001:0003372a       ??1?$hashset@U?$hashtableentry@HU?$vector@Uivec@@@@@@@@QAE@XZ 0043472a f i worldio.obj
 0001:00033790       ?growbuf@?$vector@PAUVSlot@@@@QAEXH@Z 00434790 f i worldio.obj
 0001:000337f4       ??1chain@?$hashset@U?$hashtableentry@HU?$vector@Uivec@@@@@@@@QAE@XZ 004347f4 f i worldio.obj
 0001:00033818       ??1?$hashtableentry@HU?$vector@Uivec@@@@@@QAE@XZ 00434818 f i worldio.obj
 0001:00033850       ?insert@?$hashset@U?$hashtableentry@Uvec2@@H@@@@QAEPAUchain@1@I@Z 00434850 f i worldio.obj
 0001:000338d1       ?insert@?$hashset@U?$hashtableentry@HU?$vector@Uivec@@@@@@@@QAEPAUchain@1@I@Z 004348d1 f i worldio.obj
 0001:00033976       ??0chain@?$hashset@U?$hashtableentry@HU?$vector@Uivec@@@@@@@@QAE@XZ 00434976 f i worldio.obj
 0001:000339a1       ??$putlil@M@stream@@QAE_NM@Z 004349a1 f i worldio.obj
 0001:000339c1       ??$getlil@M@stream@@QAEMXZ 004349c1 f i worldio.obj
 0001:000339de       ?multiplayer@@YA_N_N@Z     004349de f   client.obj
 0001:00033a0f       ?run@?$_icmd_rate@$0BA@@@SAXXZ 00434a0f f   client.obj
 0001:00033a1b       ?var_throttle_decel@@YAXXZ 00434a1b f   client.obj
 0001:00033a1b       ?var_throttle_accel@@YAXXZ 00434a1b f   client.obj
 0001:00033a1b       ?var_throttle_interval@@YAXXZ 00434a1b f   client.obj
 0001:00033a20       ?throttle@@YAXXZ           00434a20 f   client.obj
 0001:00033a4c       ?isconnected@@YA_N_N@Z     00434a4c f   client.obj
 0001:00033a68       ?run@?$_icmd_isconnected@$0CE@@@SAXPAH@Z 00434a68 f   client.obj
 0001:00033a8b       ?run@?$_icmd_connectedip@$0DA@@@SAXXZ 00434a8b f   client.obj
 0001:00033ad1       ?run@?$_icmd_connectedport@$0DG@@@SAXXZ 00434ad1 f   client.obj
 0001:00033af2       ?abortconnect@@YAXXZ       00434af2 f   client.obj
 0001:00033b43       ?connectserv@@YAXPBDH0@Z   00434b43 f   client.obj
 0001:00033cd9       ?reconnect@@YAXPBD@Z       00434cd9 f   client.obj
 0001:00033d09       ?disconnect@@YAX_N0@Z      00434d09 f   client.obj
 0001:00033da4       ?trydisconnect@@YAXXZ      00434da4 f   client.obj
 0001:00033df7       ?run@?$_icmd_connect@$0LA@@@SAXPADPAH0@Z 00434df7 f   client.obj
 0001:00033e0e       ?run@?$_icmd_lanconnect@$0LB@@@SAXPAHPAD@Z 00434e0e f   client.obj
 0001:00033e23       ?run@?$_icmd_localconnect@$0LE@@@SAXXZ 00434e23 f   client.obj
 0001:00033e40       ?run@?$_icmd_localdisconnect@$0LF@@@SAXXZ 00434e40 f   client.obj
 0001:00033e52       ?sendclientpacket@@YAXPAU_ENetPacket@@H@Z 00434e52 f   client.obj
 0001:00033e7d       ?flushclient@@YAXXZ        00434e7d f   client.obj
 0001:00033e8e       ?localservertoclient@@YAXHPAU_ENetPacket@@@Z 00434e8e f   client.obj
 0001:00033f03       ?clientkeepalive@@YAXXZ    00434f03 f   client.obj
 0001:00033f1a       ?gets2c@@YAXXZ             00434f1a f   client.obj
 0001:000340cf       ??1packetbuf@@QAE@XZ       004350cf f i client.obj
 0001:000340f6       ?getint@@YAHAAU?$databuf@E@@@Z 004350f6 f   server.obj
 0001:0003415d       ?getuint@@YAHAAU?$databuf@E@@@Z 0043515d f   server.obj
 0001:000341c7       ?sendstring@@YAXPBDAAU?$databuf@E@@@Z 004351c7 f   server.obj
 0001:000341ea       ?sendstring@@YAXPBDAAUpacketbuf@@@Z 004351ea f   server.obj
 0001:0003420d       ?sendstring@@YAXPBDAAU?$vector@E@@@Z 0043520d f   server.obj
 0001:00034230       ?getstring@@YAXPADAAU?$databuf@E@@H@Z 00435230 f   server.obj
 0001:00034261       ?filtertext@@YAXPADPBD_NH@Z 00435261 f   server.obj
 0001:000342a7       ?cleanupserver@@YAXXZ      004352a7 f   server.obj
 0001:000342ef       ?getclientinfo@@YAPAXH@Z   004352ef f   server.obj
 0001:00034313       ?getclientip@@YAIH@Z       00435313 f   server.obj
 0001:00034337       ?sendpacket@@YAXHHPAU_ENetPacket@@H@Z 00435337 f   server.obj
 0001:000343cc       ?sendf@@YAXHHPBDZZ         004353cc f   server.obj
 0001:000345a6       ?sendfile@@YAXHHPAUstream@@PBDZZ 004355a6 f   server.obj
 0001:0003470a       ?disconnect_client@@YAXHH@Z 0043570a f   server.obj
 0001:000347e6       ?kicknonlocalclients@@YAXH@Z 004357e6 f   server.obj
 0001:00034816       ?process@@YAXPAU_ENetPacket@@HH@Z 00435816 f   server.obj
 0001:00034881       ?localclienttoserver@@YAXHPAU_ENetPacket@@@Z 00435881 f   server.obj
 0001:000348bd       ?addclient@@YAAAUclient@@XZ 004358bd f   server.obj
 0001:000349a8       ?disconnectmaster@@YAXXZ   004359a8 f   server.obj
 0001:000349ea       ?var_mastername@@YAXXZ     004359ea f   server.obj
 0001:000349ea       ?var_masterport@@YAXXZ     004359ea f   server.obj
 0001:000349ef       ?connectmaster@@YAIXZ      004359ef f   server.obj
 0001:00034a81       ?requestmasterf@@YA_NPBDZZ 00435a81 f   server.obj
 0001:00034ae7       ?processmasterinput@@YAXXZ 00435ae7 f   server.obj
 0001:00034be0       ?flushmasteroutput@@YAXXZ  00435be0 f   server.obj
 0001:00034c48       ?flushmasterinput@@YAXXZ   00435c48 f   server.obj
 0001:00034cbc       ?sendserverinforeply@@YAXAAU?$databuf@E@@@Z 00435cbc f   server.obj
 0001:00034ce7       ?checkserversockets@@YAXXZ 00435ce7 f   server.obj
 0001:00034e35       ?var_maxclients@@YAXXZ     00435e35 f   server.obj
 0001:00034e49       ?var_serverport@@YAXXZ     00435e49 f   server.obj
 0001:00034e5d       ?updatemasterserver@@YAXXZ 00435e5d f   server.obj
 0001:00034e9d       ?serverslice@@YAX_NI@Z     00435e9d f   server.obj
 0001:0003518e       ?localdisconnect@@YAX_N@Z  0043618e f   server.obj
 0001:00035238       ?localconnect@@YAXXZ       00436238 f   server.obj
 0001:00035294       ?rundedicatedserver@@YAXXZ 00436294 f   server.obj
 0001:000352c3       ?setuplistenserver@@YA_N_N@Z 004362c3 f   server.obj
 0001:00035490       ?startlistenserver@@YAXPAH@Z 00436490 f   server.obj
 0001:000354f1       ?stoplistenserver@@YAXXZ   004364f1 f   server.obj
 0001:0003552e       ?serveroption@@YA_NPAD@Z   0043652e f   server.obj
 0001:000355e2       ?put@?$vector@D@@QAEXPBDH@Z 004365e2 f i server.obj
 0001:0003590c       ?put@packetbuf@@QAEXABE@Z  0043690c f i server.obj
 0001:0003592a       ?put@?$databuf@E@@QAEXABE@Z 0043692a f i server.obj
 0001:00035944       ?subbuf@?$databuf@E@@QAE?AU1@H@Z 00436944 f i server.obj
 0001:0003596c       ?subbuf@packetbuf@@QAE?AU?$databuf@E@@H@Z 0043696c f i server.obj
 0001:0003598f       ?finalize@packetbuf@@QAEPAU_ENetPacket@@XZ 0043698f f i server.obj
 0001:000359ab       ?checkspace@packetbuf@@QAEXH@Z 004369ab f i server.obj
 0001:000359e8       ??0packetbuf@@QAE@HH@Z     004369e8 f i server.obj
 0001:00035a19       ?resolverloop@@YAHPAX@Z    00436a19 f   serverbrowser.obj
 0001:00035b48       ?resolverinit@@YAXXZ       00436b48 f   serverbrowser.obj
 0001:00035c26       ?resolverstop@@YAXAAUresolverthread@@@Z 00436c26 f   serverbrowser.obj
 0001:00035c64       ?resolverclear@@YAXXZ      00436c64 f   serverbrowser.obj
 0001:00035ccc       ?resolverquery@@YAXPBD@Z   00436ccc f   serverbrowser.obj
 0001:00035d0e       ?resolvercheck@@YA_NPAPBDPAU_ENetAddress@@@Z 00436d0e f   serverbrowser.obj
 0001:00035dab       ?resolverwait@@YA_NPBDPAU_ENetAddress@@@Z 00436dab f   serverbrowser.obj
 0001:00035f3b       ?connectthread@@YAHPAX@Z   00436f3b f   serverbrowser.obj
 0001:00035ff6       ?connectwithtimeout@@YAHIPBDABU_ENetAddress@@@Z 00436ff6 f   serverbrowser.obj
 0001:00036151       ??0serverinfo@@QAE@XZ      00437151 f i serverbrowser.obj
 0001:000361c1       ?compare@serverinfo@@SAHPAPAU1@0@Z 004371c1 f i serverbrowser.obj
 0001:000364b9       ??_Gserverinfo@@QAEPAXI@Z  004374b9 f i serverbrowser.obj
 0001:0003650a       ?addserver@@YAXPBDH0_N@Z   0043750a f   serverbrowser.obj
 0001:000365eb       ?pingservers@@YAXXZ        004375eb f   serverbrowser.obj
 0001:00036795       ?checkresolver@@YAXXZ      00437795 f   serverbrowser.obj
 0001:00036842       ?checkpings@@YAXXZ         00437842 f   serverbrowser.obj
 0001:00036a61       ?refreshservers@@YAXXZ     00437a61 f   serverbrowser.obj
 0001:00036b0f       ?showservers@@YAPADPAUg3d_gui@@@Z 00437b0f f   serverbrowser.obj
 0001:00036c6c       ?connectselected@@YAXXZ    00437c6c f   serverbrowser.obj
 0001:00036c92       ?clearservers@@YAX_N@Z     00437c92 f   serverbrowser.obj
 0001:00036d1e       ?retrieveservers@@YAXAAU?$vector@D@@@Z 00437d1e f   serverbrowser.obj
 0001:00036f3e       ?updatefrommaster@@YAXXZ   00437f3e f   serverbrowser.obj
 0001:00036fa3       ?run@?$_icmd_addserver@$0CLN@@@SAXPBDPAH0@Z 00437fa3 f   serverbrowser.obj
 0001:00036fc6       ?run@?$_icmd_keepserver@$0CLO@@@SAXPBDPAH0@Z 00437fc6 f   serverbrowser.obj
 0001:00036fe9       ?run@?$_icmd_clearservers@$0CLP@@@SAXPAH@Z 00437fe9 f   serverbrowser.obj
 0001:00036ffe       ?writeservercfg@@YAXXZ     00437ffe f   serverbrowser.obj
 0001:00037123       ?add@?$vector@PAUserverinfo@@@@QAEAAPAUserverinfo@@ABQAU2@@Z 00438123 f i serverbrowser.obj
 0001:00037169       ?growbuf@?$vector@Uresolverresult@@@@QAEXH@Z 00438169 f i serverbrowser.obj
 0001:000371cb       ?growbuf@?$vector@PAUserverinfo@@@@QAEXH@Z 004381cb f i serverbrowser.obj
 0001:0003722f       ?clear@editline@@QAEXXZ    0043822f f i 3dgui.obj
 0001:00037248       ?grow@editline@@QAA_NHPBDZZ 00438248 f i 3dgui.obj
 0001:000372ab       ?set@editline@@QAEXPBDH@Z  004382ab f i 3dgui.obj
 0001:00037302       ?prepend@editline@@QAEXPBD@Z 00438302 f i 3dgui.obj
 0001:00037362       ?append@editline@@QAEXPBD@Z 00438362 f i 3dgui.obj
 0001:000373b6       ?read@editline@@QAE_NPAUstream@@H@Z 004383b6 f i 3dgui.obj
 0001:000374a6       ?del@editline@@QAEXHH@Z    004384a6 f i 3dgui.obj
 0001:000374ea       ?chop@editline@@QAEXH@Z    004384ea f i 3dgui.obj
 0001:0003750d       ?insert@editline@@QAEXPADHH@Z 0043850d f i 3dgui.obj
 0001:0003757c       ?combinelines@editline@@QAEXAAU?$vector@Ueditline@@@@@Z 0043857c f i 3dgui.obj
 0001:000375ea       ??0editor@@QAE@PBDH0@Z     004385ea f i 3dgui.obj
 0001:0003767d       ?clear@editor@@QAEXPBD@Z   0043867d f i 3dgui.obj
 0001:000376e2       ?setfile@editor@@QAEXPBD@Z 004386e2 f i 3dgui.obj
 0001:00037715       ?load@editor@@QAEXXZ       00438715 f i 3dgui.obj
 0001:0003779d       ?save@editor@@QAEXXZ       0043879d f i 3dgui.obj
 0001:000377e5       ?mark@editor@@QAEX_N@Z     004387e5 f i 3dgui.obj
 0001:00037800       ?region@editor@@QAE_NAAH000@Z 00438800 f i 3dgui.obj
 0001:000378d3       ?currentline@editor@@QAEAAUeditline@@XZ 004388d3 f i 3dgui.obj
 0001:00037918       ?copyselectionto@editor@@QAEXPAU1@@Z 00438918 f i 3dgui.obj
 0001:000379ed       ?tostring@editor@@QAEPADXZ 004389ed f i 3dgui.obj
 0001:00037a66       ?selectiontostring@editor@@QAEPADXZ 00438a66 f i 3dgui.obj
 0001:00037b63       ?removelines@editor@@QAEXHH@Z 00438b63 f i 3dgui.obj
 0001:00037bc7       ?del@editor@@QAEXXZ        00438bc7 f i 3dgui.obj
 0001:00037cca       ?insert@editor@@QAEXD@Z    00438cca f i 3dgui.obj
 0001:00037d7b       ?insertallfrom@editor@@QAEXPAU1@@Z 00438d7b f i 3dgui.obj
 0001:00037e99       ?key@editor@@QAEXHH@Z      00438e99 f i 3dgui.obj
 0001:000380d9       ?hit@editor@@QAEXHH_N@Z    004390d9 f i 3dgui.obj
 0001:0003817b       ?draw@editor@@QAEXHHH_N@Z  0043917b f i 3dgui.obj
 0001:00038789       ??_Geditor@@QAEPAXI@Z      00439789 f i 3dgui.obj
 0001:000388b3       ?run@?$_icmd_textlist@$0CKP@@@SAXXZ 004398b3 f   3dgui.obj
 0001:00038929       ?run@?$_icmd_textshow@$0CLF@@@SAXXZ 00439929 f   3dgui.obj
 0001:0003896d       ?run@?$_icmd_textfocus@$0CLJ@@@SAXPADPAH@Z 0043996d f   3dgui.obj
 0001:000389af       ?run@?$_icmd_textprev@$0CLK@@@SAXXZ 004399af f   3dgui.obj
 0001:000389d0       ?run@?$_icmd_textmode@$0CMC@@@SAXPAH@Z 004399d0 f   3dgui.obj
 0001:00038a18       ?run@?$_icmd_textsave@$0CMG@@@SAXPAD@Z 00439a18 f   3dgui.obj
 0001:00038a41       ?run@?$_icmd_textload@$0CMO@@@SAXPAD@Z 00439a41 f   3dgui.obj
 0001:00038a7b       ?run@?$_icmd_textinit@$0CNI@@@SAXPAD00@Z 00439a7b f   3dgui.obj
 0001:00038b19       ?run@?$_icmd_textcopy@$0CNM@@@SAXXZ 00439b19 f   3dgui.obj
 0001:00038b40       ?run@?$_icmd_textpaste@$0CNN@@@SAXXZ 00439b40 f   3dgui.obj
 0001:00038b66       ?run@?$_icmd_textmark@$0COB@@@SAXPAH@Z 00439b66 f   3dgui.obj
 0001:00038bbc       ?run@?$_icmd_textselectall@$0COC@@@SAXXZ 00439bbc f   3dgui.obj
 0001:00038bd9       ?run@?$_icmd_textclear@$0COD@@@SAXXZ 00439bd9 f   3dgui.obj
 0001:00038bf1       ?run@?$_icmd_textcurrentline@$0COE@@@SAXXZ 00439bf1 f   3dgui.obj
 0001:00038c0a       ?run@?$_icmd_textexec@$0COK@@@SAXPAH@Z 00439c0a f   3dgui.obj
 0001:00038c43       ?allowautotab@gui@@UAEX_N@Z 00439c43 f i 3dgui.obj
 0001:00038c4f       ?autotab@gui@@QAEXXZ       00439c4f f i 3dgui.obj
 0001:00038cb8       ?shouldtab@gui@@UAE_NXZ    00439cb8 f i 3dgui.obj
 0001:00038d58       ?visible@gui@@QAE_NXZ      00439d58 f i 3dgui.obj
 0001:00038d7b       ?tab@gui@@UAEXPBDH@Z       00439d7b f i 3dgui.obj
 0001:00038f60       ?pushlist@gui@@UAEXH@Z     00439f60 f i 3dgui.obj
 0001:000390a6       ?poplist@gui@@UAEXXZ       0043a0a6 f i 3dgui.obj
 0001:000391b6       ?text@gui@@UAEHPBDH0@Z     0043a1b6 f i 3dgui.obj
 0001:000391da       ?button@gui@@UAEHPBDH0@Z   0043a1da f i 3dgui.obj
 0001:000391fe       ?title@gui@@UAEHPBDH0@Z    0043a1fe f i 3dgui.obj
 0001:00039222       ?separator@gui@@UAEXXZ     0043a222 f i 3dgui.obj
 0001:0003923b       ?progress@gui@@UAEXM@Z     0043a23b f i 3dgui.obj
 0001:00039265       ?strut@gui@@UAEXM@Z        0043a265 f i 3dgui.obj
 0001:000392b7       ?space@gui@@UAEXM@Z        0043a2b7 f i 3dgui.obj
 0001:00039309       ?layout@gui@@QAEHHH@Z      0043a309 f i 3dgui.obj
 0001:00039391       ?mergehits@gui@@UAEX_N@Z   0043a391 f i 3dgui.obj
 0001:0003939d       ?ishit@gui@@QAE_NHHHH@Z    0043a39d f i 3dgui.obj
 0001:00039495       ?image@gui@@UAEHPAUTexture@@M_N@Z 0043a495 f i 3dgui.obj
 0001:00039513       ?texture@gui@@UAEHAAUVSlot@@M_N@Z 0043a513 f i 3dgui.obj
 0001:0003958d       ?slider@gui@@UAEXAAHHHHPAD@Z 0043a58d f i 3dgui.obj
 0001:000397b3       ?field@gui@@UAEPADPBDHHH0H@Z 0043a7b3 f i 3dgui.obj
 0001:000397d4       ?keyfield@gui@@UAEPADPBDHHH0H@Z 0043a7d4 f i 3dgui.obj
 0001:000397f5       ?field_@gui@@QAEPADPBDHHH0HH@Z 0043a7f5 f i 3dgui.obj
 0001:00039b7d       ?rect_@gui@@QAEXMMMMH_N@Z  0043ab7d f i 3dgui.obj
 0001:00039cb4       ?text_@gui@@QAEXPBDHHH_N@Z 0043acb4 f i 3dgui.obj
 0001:00039d15       ?background@gui@@UAEXHHH@Z 0043ad15 f i 3dgui.obj
 0001:00039e05       ?icon_@gui@@QAEXPAUTexture@@_NHHH1@Z 0043ae05 f i 3dgui.obj
 0001:0003a04b       ?previewslot@gui@@QAEXAAUVSlot@@_NHHH1@Z 0043b04b f i 3dgui.obj
 0001:0003a714       ?line_@gui@@QAEXHM@Z       0043b714 f i 3dgui.obj
 0001:0003a9aa       ?textbox@gui@@UAEXPBDHHH@Z 0043b9aa f i 3dgui.obj
 0001:0003aa2d       ?button_@gui@@QAEHPBDH0_N1@Z 0043ba2d f i 3dgui.obj
 0001:0003abe4       ?drawskin@gui@@SAXHHHHHHHABUvec@@M@Z 0043bbe4 f i 3dgui.obj
 0001:0003b073       ?adjustscale@gui@@QAEXXZ   0043c073 f i 3dgui.obj
 0001:0003b174       ?start@gui@@UAEXHMPAH_N@Z  0043c174 f i 3dgui.obj
 0001:0003b4c6       ?end@gui@@UAEXXZ           0043c4c6 f i 3dgui.obj
 0001:0003b862       ?menukey@@YA_NH_NH@Z       0043c862 f   3dgui.obj
 0001:0003bc50       ?g3d_movecursor@@YA_NHH@Z  0043cc50 f   3dgui.obj
 0001:0003bd07       ?g3d_addgui@@YAXPAUg3d_callback@@AAUvec@@H@Z 0043cd07 f   3dgui.obj
 0001:0003be16       ?g3d_sort@@YAHPAUgui@@0@Z  0043ce16 f   3dgui.obj
 0001:0003be37       ?g3d_windowhit@@YA_N_N0@Z  0043ce37 f   3dgui.obj
 0001:0003bebc       ?g3d_render@@YAXXZ         0043cebc f   3dgui.obj
 0001:0003c1e1       ?consolebox@@YAXHHHH@Z     0043d1e1 f   3dgui.obj
 0001:0003c310       ?add@?$vector@Ueditline@@@@QAEAAUeditline@@XZ 0043d310 f i 3dgui.obj
 0001:0003c364       ?insert@?$vector@Ueditline@@@@QAEAAUeditline@@HABU2@@Z 0043d364 f i 3dgui.obj
 0001:0003c3d8       ?add@?$vector@PAUeditor@@@@QAEAAPAUeditor@@ABQAU2@@Z 0043d3d8 f i 3dgui.obj
 0001:0003c41e       ?remove@?$vector@PAUeditor@@@@QAEPAUeditor@@H@Z 0043d41e f i 3dgui.obj
 0001:0003c44f       ?insert@?$vector@PAUeditor@@@@QAEAAPAUeditor@@HABQAU2@@Z 0043d44f f i 3dgui.obj
 0001:0003c490       ?shrink@?$vector@Ugui@@@@QAEXH@Z 0043d490 f i 3dgui.obj
 0001:0003c4ac       ??_Egui@@UAEPAXI@Z         0043d4ac f i  CIL library: CIL module
 0001:0003c4ac       ??_Ggui@@UAEPAXI@Z         0043d4ac f i 3dgui.obj
 0001:0003c4e5       ?growbuf@?$vector@PAUeditor@@@@QAEXH@Z 0043d4e5 f i 3dgui.obj
 0001:0003c549       ?growbuf@?$vector@Ulist@gui@@@@QAEXH@Z 0043d549 f i 3dgui.obj
 0001:0003c5ab       ??_Eg3d_gui@@UAEPAXI@Z     0043d5ab f i  CIL library: CIL module
 0001:0003c5ab       ??_Gg3d_gui@@UAEPAXI@Z     0043d5ab f i 3dgui.obj
 0001:0003c5c8       ??1g3d_gui@@UAE@XZ         0043d5c8 f i 3dgui.obj
 0001:0003c5cf       ??0vec@@QAE@MM@Z           0043d5cf f i 3dgui.obj
 0001:0003c62b       ?triintersect@BIH@@SA_NAAUtri@1@ABUvec@@1MAAMHPAU21@@Z 0043d62b f   bih.obj
 0001:0003c86b       ?traverse@BIH@@QAE_NABUvec@@00MAAMHPAUBIHNode@@MM@Z 0043d86b f i bih.obj
 0001:0003cbd4       ?traverse@BIH@@QAE_NABUvec@@0MAAMH@Z 0043dbd4 f i bih.obj
 0001:0003cd84       ?build@BIH@@QAEXAAU?$vector@UBIHNode@@@@PAGHABUvec@@2H@Z 0043dd84 f   bih.obj
 0001:0003d2ed       ??0BIH@@QAE@PAU?$vector@Utri@BIH@@@@@Z 0043e2ed f   bih.obj
 0001:0003d56f       ?mmintersect@@YA_NABUextentity@@ABUvec@@1MHAAM@Z 0043e56f f   bih.obj
 0001:0003d6a8       ??1?$vector@Uvvert@vertmodel@@@@QAE@XZ 0043e6a8 f i rendermodel.obj
 0001:0003d6a8       ??1?$vector@PAUmesh@animmodel@@@@QAE@XZ 0043e6a8 f i rendermodel.obj
 0001:0003d6a8       ??1?$vector@Uantipode@skelmodel@@@@QAE@XZ 0043e6a8 f i rendermodel.obj
 0001:0003d6a8       ??1?$vector@Utcvert@vertmodel@@@@QAE@XZ 0043e6a8 f i rendermodel.obj
 0001:0003d6a8       ??1?$vector@Umaterialsurface@@@@QAE@XZ 0043e6a8 f i octarender.obj
 0001:0003d6a8       ??1?$vector@Ureljoint@ragdollskel@@@@QAE@XZ 0043e6a8 f i rendermodel.obj
 0001:0003d6a8       ??1?$vector@Usmdbone@@@@QAE@XZ 0043e6a8 f i rendermodel.obj
 0001:0003d6a8       ??1?$vector@Uufval@unionfind@@@@QAE@XZ 0043e6a8 f i material.obj
 0001:0003d6a8       ??1?$vector@Ugrasstri@@@@QAE@XZ 0043e6a8 f i octarender.obj
 0001:0003d6a8       ??1?$vector@PAUoctaentities@@@@QAE@XZ 0043e6a8 f i octarender.obj
 0001:0003d6a8       ??1?$vector@Uwaterinfo@@@@QAE@XZ 0043e6a8 f i material.obj
 0001:0003d6a8       ??1?$vector@Uobstacle@avoidset@ai@@@@QAE@XZ 0043e6a8 f i ai.obj
 0001:0003d6a8       ??1?$vector@Uskelcacheentry@skelmodel@@@@QAE@XZ 0043e6a8 f i rendermodel.obj
 0001:0003d6a8       ??1?$vector@Uvvert@skelmodel@@@@QAE@XZ 0043e6a8 f i rendermodel.obj
 0001:0003d6a8       ??1?$vector@PAUgameevent@server@@@@QAE@XZ 0043e6a8 f i server1.obj
 0001:0003d6a8       ??1?$vector@Ucharinfo@font@@@@QAE@XZ 0043e6a8 f i rendertext.obj
 0001:0003d6a8       ??1?$vector@Urotfriction@ragdollskel@@@@QAE@XZ 0043e6a8 f i rendermodel.obj
 0001:0003d6a8       ??1?$vector@Uvvertn@skelmodel@@@@QAE@XZ 0043e6a8 f i rendermodel.obj
 0001:0003d6a8       ??1?$vector@Urotlimit@ragdollskel@@@@QAE@XZ 0043e6a8 f i rendermodel.obj
 0001:0003d6a8       ??1?$vector@Uflag@ctfclientmode@game@@@@QAE@XZ 0043e6a8 f i client1.obj
 0001:0003d6a8       ??1?$vector@Ueditline@@@@QAE@XZ 0043e6a8 f i 3dgui.obj
 0001:0003d6a8       ??1?$vector@PAD@@QAE@XZ    0043e6a8 f i rendermodel.obj
 0001:0003d6a8       ??1?$vector@Uivec@@@@QAE@XZ 0043e6a8 f i worldio.obj
 0001:0003d6a8       ??1?$vector@Uscore@captureclientmode@game@@@@QAE@XZ 0043e6a8 f i client1.obj
 0001:0003d6a8       ??1?$vector@Uflag@ctfservmode@server@@@@QAE@XZ 0043e6a8 f i server1.obj
 0001:0003d6a8       ??1?$vector@Uvvertbump@skelmodel@@@@QAE@XZ 0043e6a8 f i rendermodel.obj
 0001:0003d6a8       ??1?$vector@Uvert@skelmodel@@@@QAE@XZ 0043e6a8 f i rendermodel.obj
 0001:0003d6a8       ??1?$vector@Utri@vertmodel@@@@QAE@XZ 0043e6a8 f i rendermodel.obj
 0001:0003d6a8       ??1?$vector@PAUfpsent@@@@QAE@XZ 0043e6a8 f i fps.obj
 0001:0003d6a8       ??1?$vector@Uaviindexentry@@@@QAE@XZ 0043e6a8 f i movie.obj
 0001:0003d6a8       ??1?$vector@PAUident@@@@QAE@XZ 0043e6a8 f i command.obj
 0001:0003d6a8       ??1?$vector@H@@QAE@XZ      0043e6a8 f i lightmap.obj
 0001:0003d6a8       ??1?$vector@PAUphysent@@@@QAE@XZ 0043e6a8 f i physics.obj
 0001:0003d6a8       ??1?$vector@Umd5joint@@@@QAE@XZ 0043e6a8 f i rendermodel.obj
 0001:0003d6a8       ??1?$vector@Uvvertff@vertmodel@@@@QAE@XZ 0043e6a8 f i rendermodel.obj
 0001:0003d6a8       ??1?$vector@UAttribLoc@@@@QAE@XZ 0043e6a8 f i shader.obj
 0001:0003d6a8       ??1?$vector@Ujoint@ragdollskel@@@@QAE@XZ 0043e6a8 f i rendermodel.obj
 0001:0003d6a8       ??1?$vector@Ubaseinfo@captureclientmode@game@@@@QAE@XZ 0043e6a8 f i client1.obj
 0001:0003d6a8       ??1?$vector@PBUextentity@@@@QAE@XZ 0043e6a8 f i lightmap.obj
 0001:0003d6a8       ??1?$vector@ULocalShaderParamState@@@@QAE@XZ 0043e6a8 f i shader.obj
 0001:0003d6a8       ??1?$vector@Uvvertbump@vertmodel@@@@QAE@XZ 0043e6a8 f i rendermodel.obj
 0001:0003d6a8       ??1?$vector@PAUpart@animmodel@@@@QAE@XZ 0043e6a8 f i rendermodel.obj
 0001:0003d6a8       ??1?$vector@Umd5hierarchy@@@@QAE@XZ 0043e6a8 f i rendermodel.obj
 0001:0003d6a8       ??1?$vector@Uaistate@ai@@@@QAE@XZ 0043e6a8 f i ai.obj
 0001:0003d6a8       ??1?$vector@Uvertex@@@@QAE@XZ 0043e6a8 f i octarender.obj
 0001:0003d6a8       ??1?$vector@Uvec2@@@@QAE@XZ 0043e6a8 f i worldio.obj
 0001:0003d6a8       ??1?$vector@UTex@Slot@@@@QAE@XZ 0043e6a8 f i texture.obj
 0001:0003d6a8       ??1?$vector@Uskin@animmodel@@@@QAE@XZ 0043e6a8 f i rendermodel.obj
 0001:0003d6a8       ??1?$vector@Uteamscore@@@@QAE@XZ 0043e6a8 f i scoreboard.obj
 0001:0003d6a8       ??1?$vector@Ubatchedmodel@@@@QAE@XZ 0043e6a8 f i rendermodel.obj
 0001:0003d6a8       ??1?$vector@Uvotecount@server@@@@QAE@XZ 0043e6a8 f i server1.obj
 0001:0003d6a8       ??1?$vector@Uvvertw@skelmodel@@@@QAE@XZ 0043e6a8 f i rendermodel.obj
 0001:0003d6a8       ??1?$vector@PAUskelmeshgroup@skelmodel@@@@QAE@XZ 0043e6a8 f i rendermodel.obj
 0001:0003d6a8       ??1?$vector@Uholdspawn@ctfservmode@server@@@@QAE@XZ 0043e6a8 f i server1.obj
 0001:0003d6a8       ??1?$vector@Ubaseinfo@captureservmode@server@@@@QAE@XZ 0043e6a8 f i server1.obj
 0001:0003d6a8       ??1?$vector@Uvvertbumpw@skelmodel@@@@QAE@XZ 0043e6a8 f i rendermodel.obj
 0001:0003d6a8       ??1?$vector@Udualquat@@@@QAE@XZ 0043e6a8 f i rendermodel.obj
 0001:0003d6a8       ??1?$vector@UUniformLoc@@@@QAE@XZ 0043e6a8 f i shader.obj
 0001:0003d6a8       ??1?$vector@Usortkey@@@@QAE@XZ 0043e6a8 f i octarender.obj
 0001:0003d6a8       ??1?$vector@Uscore@captureservmode@server@@@@QAE@XZ 0043e6a8 f i server1.obj
 0001:0003d6a8       ??1?$vector@PAUmaterialsurface@@@@QAE@XZ 0043e6a8 f i pvs.obj
 0001:0003d6a8       ??1?$vector@Uholdspawn@ctfclientmode@game@@@@QAE@XZ 0043e6a8 f i client1.obj
 0001:0003d6a8       ??1?$vector@Utri@skelmodel@@@@QAE@XZ 0043e6a8 f i rendermodel.obj
 0001:0003d6a8       ??1?$vector@Uhitinfo@server@@@@QAE@XZ 0043e6a8 f i server1.obj
 0001:0003d6a8       ??1?$vector@PAUkeym@@@@QAE@XZ 0043e6a8 f i console.obj
 0001:0003d6a8       ??1?$vector@Ulinkedpart@animmodel@@@@QAE@XZ 0043e6a8 f i rendermodel.obj
 0001:0003d6a8       ??1?$vector@D@@QAE@XZ      0043e6a8 f i worldio.obj
 0001:0003d6a8       ??1?$vector@Uvert@vertmodel@@@@QAE@XZ 0043e6a8 f i rendermodel.obj
 0001:0003d6a8       ??1?$vector@Uvert@ragdollskel@@@@QAE@XZ 0043e6a8 f i rendermodel.obj
 0001:0003d6a8       ??1?$vector@UBIHNode@@@@QAE@XZ 0043e6a8 f i bih.obj
 0001:0003d6a8       ??1?$vector@Utransparentmodel@@@@QAE@XZ 0043e6a8 f i rendermodel.obj
 0001:0003d6a8       ??1?$vector@Utri@ragdollskel@@@@QAE@XZ 0043e6a8 f i rendermodel.obj
 0001:0003d6a8       ??1?$vector@UShaderParam@@@@QAE@XZ 0043e6a8 f i octaedit.obj
 0001:0003d6a8       ??1?$vector@Ublendcombo@skelmodel@@@@QAE@XZ 0043e6a8 f i rendermodel.obj
 0001:0003d6a8       ??1?$vector@PAUextentity@@@@QAE@XZ 0043e6a8 f i client1.obj
 0001:0003d6a8       ??1?$vector@Udistlimit@ragdollskel@@@@QAE@XZ 0043e6a8 f i rendermodel.obj
 0001:0003d6a8       ??1?$vector@Ucrcinfo@server@@@@QAE@XZ 0043e6a8 f i server1.obj
 0001:0003d6c1       ?max@vec@@QAEAAU1@ABU1@@Z  0043e6c1 f i bih.obj
 0001:0003d705       ?min@vec@@QAEAAU1@ABU1@@Z  0043e705 f i bih.obj
 0001:0003d749       ?var_blobmargin@@YAXXZ     0043e749 f   blob.obj
 0001:0003d749       ?var_blobfadehigh@@YAXXZ   0043e749 f   blob.obj
 0001:0003d749       ?var_blobfadelow@@YAXXZ    0043e749 f   blob.obj
 0001:0003d749       ?var_blobheight@@YAXXZ     0043e749 f   blob.obj
 0001:0003d749       ?var_blobintensity@@YAXXZ  0043e749 f   blob.obj
 0001:0003d754       ?init@blobrenderer@@QAEXH@Z 0043e754 f i blob.obj
 0001:0003d8c8       ?freeblob@blobrenderer@@QAE_NXZ 0043e8c8 f i blob.obj
 0001:0003d926       ?newblob@blobrenderer@@QAEAAUblobinfo@@ABUvec@@M@Z 0043e926 f i blob.obj
 0001:0003d990       ?dupblob@blobrenderer@@QAEXXZ 0043e990 f i blob.obj
 0001:0003d9d6       ?addvert@blobrenderer@@QAEHABUvec@@@Z 0043e9d6 f i blob.obj
 0001:0003da86       ?addtris@blobrenderer@@QAEXPBUvec@@H@Z 0043ea86 f i blob.obj
 0001:0003dc15       ?genflattris@blobrenderer@@QAEXAAUcube@@HPAUvec@@I@Z 0043ec15 f i blob.obj
 0001:0003de76       ?genslopedtris@blobrenderer@@QAEXAAUcube@@HPAUvec@@I@Z 0043ee76 f i blob.obj
 0001:0003e367       ?checkoverlap@blobrenderer@@QAEHABUivec@@H@Z 0043f367 f i blob.obj
 0001:0003e43e       ?gentris@blobrenderer@@QAEXPAUcube@@ABUivec@@HPAEE@Z 0043f43e f i blob.obj
 0001:0003e8d6       ?addblob@blobrenderer@@QAEPAUblobinfo@@ABUvec@@MM@Z 0043f8d6 f i blob.obj
 0001:0003ea1c       ?setuprenderstate@blobrenderer@@SAXXZ 0043fa1c f i blob.obj
 0001:0003eaaa       ?cleanuprenderstate@blobrenderer@@SAXXZ 0043faaa f i blob.obj
 0001:0003eaf9       ?fadeblob@blobrenderer@@QAEXPAUblobinfo@@M@Z 0043faf9 f i blob.obj
 0001:0003ec0f       ?renderblob@blobrenderer@@QAEXABUvec@@MM@Z 0043fc0f f i blob.obj
 0001:0003edfd       ?var_blobstattris@@YAXXZ   0043fdfd f   blob.obj
 0001:0003ee07       ?var_blobdyntris@@YAXXZ    0043fe07 f   blob.obj
 0001:0003ee12       ?initblobs@@YAXH@Z         0043fe12 f   blob.obj
 0001:0003ee6a       ?renderblob@@YAXHABUvec@@MM@Z 0043fe6a f   blob.obj
 0001:0003eec5       ??$clipabove@$0A@@blobrenderer@@SAHPBUvec@@HMPAU1@@Z 0043fec5 f i blob.obj
 0001:0003f064       ??$clipbelow@$0A@@blobrenderer@@SAHPBUvec@@HMPAU1@@Z 00440064 f i blob.obj
 0001:0003f203       ??$clipabove@$00@blobrenderer@@SAHPBUvec@@HMPAU1@@Z 00440203 f i blob.obj
 0001:0003f3a5       ??$clipbelow@$00@blobrenderer@@SAHPBUvec@@HMPAU1@@Z 004403a5 f i blob.obj
 0001:0003f547       ??$clipabove@$01@blobrenderer@@SAHPBUvec@@HMPAU1@@Z 00440547 f i blob.obj
 0001:0003f6e9       ??$clipbelow@$01@blobrenderer@@SAHPBUvec@@HMPAU1@@Z 004406e9 f i blob.obj
 0001:0003f88b       ??$split@$01@blobrenderer@@SAHPBUvec@@HMPAU1@@Z 0044088b f i blob.obj
 0001:0003fa23       ?var_maxdecaltris@@YAXXZ   00440a23 f   decal.obj
 0001:0003fa28       ?init@decalrenderer@@QAEXH@Z 00440a28 f i decal.obj
 0001:0003faeb       ?freedecal@decalrenderer@@QAEHXZ 00440aeb f i decal.obj
 0001:0003fb41       ?fadedecal@decalrenderer@@QAEXAAUdecalinfo@@E@Z 00440b41 f i decal.obj
 0001:0003fc24       ?clearfadeddecals@decalrenderer@@QAEXXZ 00440c24 f i decal.obj
 0001:0003fcd0       ?fadeindecals@decalrenderer@@QAEXXZ 00440cd0 f i decal.obj
 0001:0003fd71       ?fadeoutdecals@decalrenderer@@QAEXXZ 00440d71 f i decal.obj
 0001:0003fe10       ?setuprenderstate@decalrenderer@@SAXXZ 00440e10 f i decal.obj
 0001:0003fe7b       ?render@decalrenderer@@QAEXXZ 00440e7b f i decal.obj
 0001:0004006d       ?decalclip@decalrenderer@@SAHPBUvec@@HABUplane@@PAU2@@Z 0044106d f i decal.obj
 0001:0004022f       ?adddecal@decalrenderer@@QAEXABUvec@@0MABUbvec@@H@Z 0044122f f i decal.obj
 0001:00040451       ?gendecaltris@decalrenderer@@QAEXAAUcube@@HPAUvec@@_N@Z 00441451 f i decal.obj
 0001:00040d44       ?gendecaltris@decalrenderer@@QAEXPAUcube@@ABUivec@@HPAEE@Z 00441d44 f i decal.obj
 0001:00041178       ?initdecals@@YAXXZ         00442178 f   decal.obj
 0001:00041193       ?renderdecals@@YAX_N@Z     00442193 f   decal.obj
 0001:00041257       ?adddecal@@YAXHABUvec@@0MABUbvec@@H@Z 00442257 f   decal.obj
 0001:000412bc       ?calcradius@dynlight@@QAEXXZ 004422bc f i dynlight.obj
 0001:00041330       ?calccolor@dynlight@@QAEXXZ 00442330 f i dynlight.obj
 0001:000413fd       ?adddynlight@@YAXABUvec@@M0HHHM0PAUphysent@@@Z 004423fd f   dynlight.obj
 0001:000414e4       ?cleardynlights@@YAXXZ     004424e4 f   dynlight.obj
 0001:00041566       ?removetrackeddynlights@@YAXPAUphysent@@@Z 00442566 f   dynlight.obj
 0001:000415e4       ?updatedynlights@@YAXXZ    004425e4 f   dynlight.obj
 0001:00041666       ?finddynlights@@YAHXZ      00442666 f   dynlight.obj
 0001:0004186d       ?dynlightreaching@@YAXABUvec@@AAU1@1@Z 0044286d f   dynlight.obj
 0001:00041965       ?calcdynlightmask@@YAXPAUvtxarray@@@Z 00442965 f   dynlight.obj
 0001:000419d3       ?setdynlights@@YAHPAUvtxarray@@@Z 004429d3 f   dynlight.obj
 0001:00041bdc       ?insert@?$vector@Udynlight@@@@QAEAAUdynlight@@HABU2@@Z 00442bdc f i dynlight.obj
 0001:00041c6c       ?insert@?$vector@PAUdynlight@@@@QAEAAPAUdynlight@@HABQAU2@@Z 00442c6c f i dynlight.obj
 0001:00041cd7       ?growbuf@?$vector@Udynlight@@@@QAEXH@Z 00442cd7 f i dynlight.obj
 0001:00041d39       ?growbuf@?$vector@PAUdynlight@@@@QAEXH@Z 00442d39 f i dynlight.obj
 0001:00041d9d       ??$dist_to_bb@Uivec@@@vec@@QBEMABUivec@@0@Z 00442d9d f i dynlight.obj
 0001:00041def       ??1rendertarget@@UAE@XZ    00442def f i glare.obj
 0001:00041df6       ?attachment@rendertarget@@UBEIXZ 00442df6 f i glare.obj
 0001:00041dfc       ?colorformats@rendertarget@@UBEPBIXZ 00442dfc f i glare.obj
 0001:00041e02       ?depthformats@rendertarget@@UBEPBIXZ 00442e02 f i glare.obj
 0001:00041e08       ?cleanup@rendertarget@@QAEX_N@Z 00442e08 f i glare.obj
 0001:00041e62       ?cleanupblur@rendertarget@@QAEXXZ 00442e62 f i glare.obj
 0001:00041ea7       ?setupblur@rendertarget@@QAEXXZ 00442ea7 f i glare.obj
 0001:00041f95       ?setup@rendertarget@@QAEXHH@Z 00442f95 f i glare.obj
 0001:0004221b       ?rendertiles@rendertarget@@UAEXXZ 0044321b f i glare.obj
 0001:0004250f       ?blur@rendertarget@@QAEXHMHHHH_N@Z 0044350f f i glare.obj
 0001:000426d5       ?doblur@rendertarget@@UAEXHM@Z 004436d5 f i glare.obj
 0001:0004274e       ?scissorrender@rendertarget@@UAE_NAAH000@Z 0044374e f i glare.obj
 0001:000428ac       ?scissorblur@rendertarget@@UAE_NAAH000@Z 004438ac f i glare.obj
 0001:000429f1       ?keepable@gameevent@server@@UBE_NXZ 004439f1 f i server1.obj
 0001:000429f1       ?envmapped@model@@UAE_NXZ  004439f1 f i rendermodel.obj
 0001:000429f1       ?usesvertexarray@partrenderer@@UAE_NXZ 004439f1 f i renderparticles.obj
 0001:000429f1       ?hidefrags@servmode@server@@UAE_NXZ 004439f1 f i server1.obj
 0001:000429f1       ?swaptexs@rendertarget@@UBE_NXZ 004439f1 f i glare.obj
 0001:000429f1       ?texrect@rendertarget@@UBE_NXZ 004439f1 f i glare.obj
 0001:000429f1       ?flipdebug@shadowmaptexture@@UBE_NXZ 004439f1 f i shadowmap.obj
 0001:000429f1       ?hidefrags@clientmode@game@@UAE_NXZ 004439f1 f i client1.obj
 0001:000429f1       ?shouldtab@g3d_gui@@UAE_NXZ 004439f1 f i 3dgui.obj
 0001:000429f1       ?screenview@rendertarget@@UBE_NXZ 004439f1 f i glare.obj
 0001:000429f1       ?shadowcompare@rendertarget@@UBE_NXZ 004439f1 f i glare.obj
 0001:000429f4       ?render@rendertarget@@QAEXHHHM@Z 004439f4 f i glare.obj
 0001:00042e65       ?leavegame@servmode@server@@UAEXPAUclientinfo@2@_N@Z 00443e65 f i server1.obj
 0001:00042e65       ?setglare@model@@UAEXMM@Z  00443e65 f i rendermodel.obj
 0001:00042e65       ?died@servmode@server@@UAEXPAUclientinfo@2@0@Z 00443e65 f i server1.obj
 0001:00042e65       ?dodebug@rendertarget@@UAEXHH@Z 00443e65 f i glare.obj
 0001:00042e68       ?debug@rendertarget@@QAEXXZ 00443e68 f i glare.obj
 0001:00042fc4       ??_Erendertarget@@UAEPAXI@Z 00443fc4 f i  CIL library: CIL module
 0001:00042fc4       ??_Grendertarget@@UAEPAXI@Z 00443fc4 f i glare.obj
 0001:00042fe1       ?dorender@glaretexture@@UAE_NXZ 00443fe1 f i glare.obj
 0001:00042fe9       ??_Gdepthfxtexture@@UAEPAXI@Z 00443fe9 f i renderparticles.obj
 0001:00042fe9       ??_Eglaretexture@@UAEPAXI@Z 00443fe9 f i  CIL library: CIL module
 0001:00042fe9       ??_Edepthfxtexture@@UAEPAXI@Z 00443fe9 f i  CIL library: CIL module
 0001:00042fe9       ??_Gglaretexture@@UAEPAXI@Z 00443fe9 f i glare.obj
 0001:00042fe9       ??_Gshadowmaptexture@@UAEPAXI@Z 00443fe9 f i shadowmap.obj
 0001:00042fe9       ??_Eshadowmaptexture@@UAEPAXI@Z 00443fe9 f i  CIL library: CIL module
 0001:00043022       ?var_glaresize@@YAXXZ      00444022 f   glare.obj
 0001:0004302f       ?drawglaretex@@YAXXZ       0044402f f   glare.obj
 0001:0004306f       ?addglare@@YAXXZ           0044406f f   glare.obj
 0001:000431b8       ??0grasswedge@@QAE@H@Z     004441b8 f i grass.obj
 0001:0004347c       ?var_grasscolour@@YAXXZ    0044447c f   grass.obj
 0001:00043c4b       ?generategrass@@YAXXZ      00444c4b f   grass.obj
 0001:00043d99       ?rendergrass@@YAXXZ        00444d99 f   grass.obj
 0001:0004414c       ?add@?$vector@Ugrassvert@@@@QAEAAUgrassvert@@XZ 0044514c f i grass.obj
 0001:00044190       ?growbuf@?$vector@Ugrassvert@@@@QAEXH@Z 00445190 f i grass.obj
 0001:000441f2       ?growbuf@?$vector@Ugrassgroup@@@@QAEXH@Z 004451f2 f i grass.obj
 0001:0004426d       ??1QuadNode@@QAE@XZ        0044526d f i material.obj
 0001:00044297       ?insert@QuadNode@@QAEXHHH@Z 00445297 f i material.obj
 0001:000443a8       ?genmatsurf@QuadNode@@QAEXEEEHHHHAAPAUmaterialsurface@@@Z 004453a8 f i material.obj
 0001:000443f5       ?genmatsurfs@QuadNode@@QAEXEEEHAAPAUmaterialsurface@@@Z 004453f5 f i material.obj
 0001:000444a1       ?renderwaterfall@@YAXABUmaterialsurface@@PAUTexture@@MMEPBUvec@@@Z 004454a1 f   material.obj
 0001:000446b3       ?drawmaterial@@YAXHHHHHHM@Z 004456b3 f   material.obj
 0001:000447c0       ?findmaterial@@YAHPBD@Z    004457c0 f   material.obj
 0001:000447ee       ?visiblematerial@@YAHAAUcube@@HHHHHE@Z 004457ee f   material.obj
 0001:00044897       ?genmatsurfs@@YAXAAUcube@@HHHHAAU?$vector@Umaterialsurface@@@@AAE2@Z 00445897 f   material.obj
 0001:00044c13       ?optimizematsurfs@@YAHPAUmaterialsurface@@H@Z 00445c13 f   material.obj
 0001:00044e00       ?setupmaterials@@YAXHH@Z   00445e00 f   material.obj
 0001:000453bf       ??1unionfind@@QAE@XZ       004463bf f i material.obj
 0001:00045558       ?sortmaterials@@YAXAAU?$vector@PAUmaterialsurface@@@@@Z 00446558 f   material.obj
 0001:000457af       ?rendermatgrid@@YAXAAU?$vector@PAUmaterialsurface@@@@@Z 004467af f   material.obj
 0001:00045902       ?drawglass@@YAXHHHHHHMPBUvec@@@Z 00446902 f   material.obj
 0001:00045a94       ?var_waterfallenv@@YAXXZ   00446a94 f   material.obj
 0001:00045a9d       ?rendermaterials@@YAXXZ    00446a9d f   material.obj
 0001:0004673e       ?pad@?$vector@E@@QAEPAEH@Z 0044773e f i material.obj
 0001:00046761       ?compressfind@unionfind@@QAEHH@Z 00447761 f i material.obj
 0001:00046780       ?unite@unionfind@@QAEXHH@Z 00447780 f i material.obj
 0001:000468ce       ?gl_checkextensions@@YAXXZ 004478ce f   rendergl.obj
 0001:00047a8f       ?glext@@YAXPAD@Z           00448a8f f   rendergl.obj
 0001:00047ab4       ?gl_init@@YAXHHHHH@Z       00448ab4 f   rendergl.obj
 0001:00047c56       ?enable@varray@@YAXXZ      00448c56 f   rendergl.obj
 0001:00047c6d       ?defattrib@varray@@YAXHHI@Z 00448c6d f   rendergl.obj
 0001:00047e82       ?end@varray@@YAHXZ         00448e82 f   rendergl.obj
 0001:00047fc6       ?disable@varray@@YAXXZ     00448fc6 f   rendergl.obj
 0001:0004803f       ?run@?$_icmd_getcampos@$0CNP@@@SAXXZ 0044903f f   rendergl.obj
 0001:000480a7       ?findorientation@@YAXXZ    004490a7 f   rendergl.obj
 0001:0004819f       ?transplayer@@YAXXZ        0044919f f   rendergl.obj
 0001:00048242       ?var_zoom@@YAXXZ           00449242 f   rendergl.obj
 0001:00048256       ?computezoom@@YAXXZ        00449256 f   rendergl.obj
 0001:00048399       ?isthirdperson@@YA_NXZ     00449399 f   rendergl.obj
 0001:000483bc       ?fixcamerarange@@YAXXZ     004493bc f   rendergl.obj
 0001:00048435       ?mousemove@@YAXHH@Z        00449435 f   rendergl.obj
 0001:0004854b       ?recomputecamera@@YAXXZ    0044954b f   rendergl.obj
 0001:0004879e       ?readmatrices@@YAXXZ       0044979e f   rendergl.obj
 0001:000487ed       ?project@@YAXMMH_N00M@Z    004497ed f   rendergl.obj
 0001:000488d3       ?calcavatarpos@@YA?AUvec@@ABU1@M@Z 004498d3 f   rendergl.obj
 0001:000489cc       ?pushprojection@@YAXABUglmatrixf@@@Z 004499cc f   rendergl.obj
 0001:00048a2b       ?popprojection@@YAXXZ      00449a2b f   rendergl.obj
 0001:00048a7c       ?enablepolygonoffset@@YAXI@Z 00449a7c f   rendergl.obj
 0001:00048b15       ?disablepolygonoffset@@YAXI@Z 00449b15 f   rendergl.obj
 0001:00048b86       ?calcspherescissor@@YAXABUvec@@MAAM111@Z 00449b86 f   rendergl.obj
 0001:00048e7e       ?pushscissor@@YAHMMMM@Z    00449e7e f   rendergl.obj
 0001:0004907f       ?popscissor@@YAXXZ         0044a07f f   rendergl.obj
 0001:000490c0       ?setenvmatrix@@YAXXZ       0044a0c0 f   rendergl.obj
 0001:000490f4       ?var_fogcolour@@YAXXZ      0044a0f4 f   rendergl.obj
 0001:000494b6       ?drawfogoverlay@@YAXHMH@Z  0044a4b6 f   rendergl.obj
 0001:000495ea       ?rendergame@@YAX_N@Z       0044a5ea f   rendergl.obj
 0001:00049605       ?drawglare@@YAXXZ          0044a605 f   rendergl.obj
 0001:000497d5       ?drawreflection@@YAXM_N@Z  0044a7d5 f   rendergl.obj
 0001:00049f98       ?drawcubemap@@YAXHABUvec@@MMABUcubemapside@@@Z 0044af98 f   rendergl.obj
 0001:0004a181       ?clearminimap@@YAXXZ       0044b181 f   rendergl.obj
 0001:0004a19f       ?var_minimapcolour@@YAXXZ  0044b19f f   rendergl.obj
 0001:0004a1cc       ?var_minimapsize@@YAXXZ    0044b1cc f   rendergl.obj
 0001:0004a1db       ?clipminimap@@YAXAAUivec@@0PAUcube@@HHHH@Z 0044b1db f   rendergl.obj
 0001:0004a2a2       ?drawminimap@@YAXXZ        0044b2a2 f   rendergl.obj
 0001:0004a91f       ?cleanupmotionblur@@YAXXZ  0044b91f f   rendergl.obj
 0001:0004a951       ?var_motionblur@@YAXXZ     0044b951 f   rendergl.obj
 0001:0004a960       ?addmotionblur@@YAXXZ      0044b960 f   rendergl.obj
 0001:0004ac15       ?gl_drawframe@@YAXHH@Z     0044bc15 f   rendergl.obj
 0001:0004b0d9       ?gl_drawmainmenu@@YAXHH@Z  0044c0d9 f   rendergl.obj
 0001:0004b169       ?damagecompass@@YAXHABUvec@@@Z 0044c169 f   rendergl.obj
 0001:0004b282       ?drawdamagecompass@@YAXHH@Z 0044c282 f   rendergl.obj
 0001:0004b497       ?var_damagescreen@@YAXXZ   0044c497 f   rendergl.obj
 0001:0004b4a8       ?damageblend@@YAXH@Z       0044c4a8 f   rendergl.obj
 0001:0004b4ec       ?drawdamagescreen@@YAXHH@Z 0044c4ec f   rendergl.obj
 0001:0004b64d       ?crosshairbump@@YAXXZ      0044c64d f   rendergl.obj
 0001:0004b686       ?crosshairbumpcheck@@YAXXZ 0044c686 f   rendergl.obj
 0001:0004b6ef       ?loadcrosshair@@YAXPBDH@Z  0044c6ef f   rendergl.obj
 0001:0004b74c       ?loadcrosshair_@@YAXPBDPAH@Z 0044c74c f   rendergl.obj
 0001:0004b75f       ?run@?$_icmd_getcrosshair@$0IDI@@@SAXPAH@Z 0044c75f f   rendergl.obj
 0001:0004b79f       ?writecrosshairs@@YAXPAUstream@@@Z 0044c79f f   rendergl.obj
 0001:0004b7db       ?drawcrosshair@@YAXHH@Z    0044c7db f   rendergl.obj
 0001:0004bc79       ?gl_drawhud@@YAXHH@Z       0044cc79 f   rendergl.obj
 0001:0004ca68       ??$transform@Uvec@@@glmatrixf@@QBEXABUvec@@AAU1@@Z 0044da68 f i rendergl.obj
 0001:0004cab8       ??$perspectivetransform@Uvec4@@@glmatrixf@@QBE?AUvec@@ABUvec4@@@Z 0044dab8 f i rendergl.obj
 0001:0004cb8f       ?frustum@glmatrixf@@QAEXMMMMMM@Z 0044db8f f i rendergl.obj
 0001:0004cc34       ?perspective@glmatrixf@@QAEXMMMM@Z 0044dc34 f i rendergl.obj
 0001:0004cc9a       ?clip@glmatrixf@@QAEXABUplane@@ABU1@@Z 0044dc9a f i rendergl.obj
 0001:0004cd58       ?transposedtransform@glmatrixf@@QBEXABUplane@@AAU2@@Z 0044dd58 f i rendergl.obj
 0001:0004ce08       ?transpose@glmatrixf@@QAEXXZ 0044de08 f i rendergl.obj
 0001:0004ce99       ?reflectz@glmatrixf@@QAEXM@Z 0044de99 f i rendergl.obj
 0001:0004cf30       ??$mul@MM@glmatrixf@@QAEXQBM0@Z 0044df30 f i rendergl.obj
 0001:0004d138       ??0glmatrixf@@QAE@ABUvec4@@000@Z 0044e138 f i rendergl.obj
 0001:0004d1ca       ??0ragdollskel@@QAE@XZ     0044e1ca f i rendermodel.obj
 0001:0004d24a       ?setupjoints@ragdollskel@@QAEXXZ 0044e24a f i rendermodel.obj
 0001:0004d4c0       ?setuprotfrictions@ragdollskel@@QAEXXZ 0044e4c0 f i rendermodel.obj
 0001:0004d5e6       ??0vert@ragdolldata@@QAE@XZ 0044e5e6 f i rendermodel.obj
 0001:0004d604       ??0ragdolldata@@QAE@PAUragdollskel@@M@Z 0044e604 f i rendermodel.obj
 0001:0004d721       ?calcanimjoint@ragdolldata@@QAEXHABUmatrix3x4@@@Z 0044e721 f i rendermodel.obj
 0001:0004d870       ?calctris@ragdolldata@@QAEXXZ 0044e870 f i rendermodel.obj
 0001:0004d962       ?calcboundsphere@ragdolldata@@QAEXXZ 0044e962 f i rendermodel.obj
 0001:0004da25       ?init@ragdolldata@@QAEXPAUdynent@@@Z 0044ea25 f i rendermodel.obj
 0001:0004db12       ?collidevert@ragdolldata@@SA_NABUvec@@0M@Z 0044eb12 f i rendermodel.obj
 0001:0004dbd3       ?constraindist@ragdolldata@@QAEXXZ 0044ebd3 f   rendermodel.obj
 0001:0004ddab       ?applyrotlimit@ragdolldata@@QAEXAAUtri@ragdollskel@@0MABUvec@@@Z 0044edab f i rendermodel.obj
 0001:0004e3fe       ?constrainrot@ragdolldata@@QAEXXZ 0044f3fe f   rendermodel.obj
 0001:0004e4c5       ?calcrotfriction@ragdolldata@@QAEXXZ 0044f4c5 f   rendermodel.obj
 0001:0004e507       ?applyrotfriction@ragdolldata@@QAEXM@Z 0044f507 f   rendermodel.obj
 0001:0004e67f       ?updatepos@ragdolldata@@QAEXXZ 0044f67f f   rendermodel.obj
 0001:0004e7eb       ?move@ragdolldata@@QAEXPAUdynent@@M@Z 0044f7eb f   rendermodel.obj
 0001:0004ebd9       ?moveragdoll@@YAXPAUdynent@@@Z 0044fbd9 f   rendermodel.obj
 0001:0004ed37       ?cleanragdoll@@YAXPAUdynent@@@Z 0044fd37 f   rendermodel.obj
 0001:0004ed52       ??_Gragdolldata@@QAEPAXI@Z 0044fd52 f i rendermodel.obj
 0001:0004ed8a       ?var_glowmodels@@YAXXZ     0044fd8a f   rendermodel.obj
 0001:0004ed8a       ?var_bumpmodels@@YAXXZ     0044fd8a f   rendermodel.obj
 0001:0004ed8a       ?var_envmapmodels@@YAXXZ   0044fd8a f   rendermodel.obj
 0001:0004ed8a       ?var_lightmodels@@YAXXZ    0044fd8a f   rendermodel.obj
 0001:0004ed8f       ?setframes@animpos@animmodel@@QAEXABUaniminfo@@@Z 0044fd8f f i rendermodel.obj
 0001:0004ee50       ??8animpos@animmodel@@QBE_NABU01@@Z 0044fe50 f i rendermodel.obj
 0001:0004ee79       ??9animpos@animmodel@@QBE_NABU01@@Z 0044fe79 f i rendermodel.obj
 0001:0004eea2       ??9animstate@animmodel@@QBE_NABU01@@Z 0044fea2 f i rendermodel.obj
 0001:0004eeec       ?envmapped@skin@animmodel@@QAE_NXZ 0044feec f i rendermodel.obj
 0001:0004ef22       ?bumpmapped@skin@animmodel@@QAE_NXZ 0044ff22 f i rendermodel.obj
 0001:0004ef3b       ?normals@skin@animmodel@@QAE_NXZ 0044ff3b f i rendermodel.obj
 0001:0004ef76       ?setuptmus@skin@animmodel@@QAEXPBUanimstate@2@_N@Z 0044ff76 f i rendermodel.obj
 0001:0004f44a       ?setshaderparams@skin@animmodel@@QAEXPAUmesh@2@PBUanimstate@2@_N@Z 0045044a f i rendermodel.obj
 0001:0004f689       ?loadshader@skin@animmodel@@QAEPAUShader@@_N0@Z 00450689 f i rendermodel.obj
 0001:0004f907       ?preloadshader@skin@animmodel@@QAEXXZ 00450907 f i rendermodel.obj
 0001:0004fa63       ?bind@skin@animmodel@@QAEXPAUmesh@2@PBUanimstate@2@@Z 00450a63 f i rendermodel.obj
 0001:0004ffa9       ??1mesh@animmodel@@UAE@XZ  00450fa9 f i rendermodel.obj
 0001:0004ffc6       ?calcbb@mesh@animmodel@@UAEXHAAUvec@@0ABUmatrix3x4@@@Z 00450fc6 f i rendermodel.obj
 0001:0004ffc6       ?gentris@mesh@animmodel@@UAEXHPAUTexture@@PAU?$vector@Utri@BIH@@@@ABUmatrix3x4@@@Z 00450fc6 f i rendermodel.obj
 0001:0004ffc9       ?setshader@mesh@animmodel@@UAEXPAUShader@@@Z 00450fc9 f i rendermodel.obj
 0001:0004ffe9       ??0meshgroup@animmodel@@QAE@XZ 00450fe9 f i rendermodel.obj
 0001:00050035       ??1meshgroup@animmodel@@UAE@XZ 00451035 f i rendermodel.obj
 0001:000500bc       ?findtag@meshgroup@animmodel@@UAEHPBD@Z 004510bc f i rendermodel.obj
 0001:000500c2       ?totalframes@meshgroup@animmodel@@UBEHXZ 004510c2 f i rendermodel.obj
 0001:000500c2       ?type@md3@@UBEHXZ          004510c2 f i rendermodel.obj
 0001:000500c6       ?moved@servmode@server@@UAEXPAUclientinfo@2@ABUvec@@_N12@Z 004510c6 f i server1.obj
 0001:000500c6       ?concattagtransform@meshgroup@animmodel@@UAEXPAUpart@2@HHABUmatrix3x4@@AAU4@@Z 004510c6 f i rendermodel.obj
 0001:000500c6       ?render@meshgroup@animmodel@@UAEXPBUanimstate@2@MABUvec@@PAUdynent@@PAUpart@2@@Z 004510c6 f i rendermodel.obj
 0001:000500c9       ?sharemeshes@animmodel@@QAAPAUmeshgroup@1@PADZZ 004510c9 f i rendermodel.obj
 0001:00050173       ??0part@animmodel@@QAE@XZ  00451173 f i rendermodel.obj
 0001:000501e0       ??1part@animmodel@@UAE@XZ  004511e0 f i rendermodel.obj
 0001:0005027e       ?cleanup@part@animmodel@@UAEXXZ 0045127e f i rendermodel.obj
 0001:0005028d       ?calcbb@part@animmodel@@QAEXHAAUvec@@0ABUmatrix3x4@@@Z 0045128d f i rendermodel.obj
 0001:00050360       ?gentris@part@animmodel@@QAEXHPAU?$vector@Utri@BIH@@@@ABUmatrix3x4@@@Z 00451360 f i rendermodel.obj
 0001:00050454       ?link@part@animmodel@@QAE_NPAU12@PBDABUvec@@HHPAU3@@Z 00451454 f i rendermodel.obj
 0001:000504e8       ?unlink@part@animmodel@@QAE_NPAU12@@Z 004514e8 f i rendermodel.obj
 0001:0005056b       ?initskins@part@animmodel@@QAEXPAUTexture@@0H@Z 0045156b f i rendermodel.obj
 0001:000506a1       ?getdefaultanim@part@animmodel@@UAEXAAUaniminfo@@HIPAUdynent@@@Z 004516a1 f i rendermodel.obj
 0001:000506b3       ?calcanim@part@animmodel@@QAE_NHHHHPAUdynent@@HAAUaniminfo@@@Z 004516b3 f i rendermodel.obj
 0001:00050964       ?calcpitchaxis@part@animmodel@@QAEMHMAAUvec@@00@Z 00451964 f i rendermodel.obj
 0001:00050a5c       ?render@part@animmodel@@QAEXHHHMABUvec@@PAUdynent@@00@Z 00451a5c f i rendermodel.obj
 0001:00050a90       ?render@part@animmodel@@QAEXHHHMABUvec@@PAUdynent@@00PAUanimstate@2@@Z 00451a90 f i rendermodel.obj
 0001:0005100e       ?setanim@part@animmodel@@QAEXHHHHMH@Z 0045200e f i rendermodel.obj
 0001:0005110b       ?getteamscore@servmode@server@@UAEHPBD@Z 0045210b f i server1.obj
 0001:0005110b       ?linktype@animmodel@@UBEHPAU1@@Z 0045210b f i rendermodel.obj
 0001:0005110b       ?getteamscore@clientmode@game@@UAEHPBD@Z 0045210b f i client1.obj
 0001:0005110b       ?respawnwait@clientmode@game@@UAEHPAUfpsent@@@Z 0045210b f i client1.obj
 0001:00051110       ?render@animmodel@@QAEXHHHMABUvec@@PAUdynent@@PAUmodelattach@@00@Z 00452110 f i rendermodel.obj
 0001:0005136c       ?render@animmodel@@UAEXHHHABUvec@@MMPAUdynent@@PAUmodelattach@@00M@Z 0045236c f i rendermodel.obj
 0001:00051866       ??0animmodel@@QAE@PBD@Z    00452866 f i rendermodel.obj
 0001:0005191e       ??1animmodel@@UAE@XZ       0045291e f i rendermodel.obj
 0001:0005199b       ?name@animmodel@@UAEPADXZ  0045299b f i rendermodel.obj
 0001:0005199f       ?cleanup@animmodel@@UAEXXZ 0045299f f i rendermodel.obj
 0001:000519c5       ?initmatrix@animmodel@@QAEXAAUmatrix3x4@@@Z 004529c5 f i rendermodel.obj
 0001:00051a63       ?preloadBIH@animmodel@@UAEXXZ 00452a63 f i rendermodel.obj
 0001:00051ad2       ?setBIH@animmodel@@UAEPAUBIH@@XZ 00452ad2 f i rendermodel.obj
 0001:00051b9a       ?envmapped@animmodel@@UAE_NXZ 00452b9a f i rendermodel.obj
 0001:00051bfa       ?preloadshaders@animmodel@@UAEXXZ 00452bfa f i rendermodel.obj
 0001:00051c45       ?setshader@animmodel@@UAEXPAUShader@@@Z 00452c45 f i rendermodel.obj
 0001:00051c88       ?setenvmap@animmodel@@UAEXMMPAUTexture@@@Z 00452c88 f i rendermodel.obj
 0001:00051ceb       ?setspec@animmodel@@UAEXM@Z 00452ceb f i rendermodel.obj
 0001:00051d2c       ?setambient@animmodel@@UAEXM@Z 00452d2c f i rendermodel.obj
 0001:00051d6d       ?setglow@animmodel@@UAEXM@Z 00452d6d f i rendermodel.obj
 0001:00051dae       ?setglare@animmodel@@UAEXMM@Z 00452dae f i rendermodel.obj
 0001:00051df7       ?setalphatest@animmodel@@UAEXM@Z 00452df7 f i rendermodel.obj
 0001:00051e38       ?setalphablend@animmodel@@UAEX_N@Z 00452e38 f i rendermodel.obj
 0001:00051e7b       ?setfullbright@animmodel@@UAEXM@Z 00452e7b f i rendermodel.obj
 0001:00051ebc       ?setcullface@animmodel@@UAEX_N@Z 00452ebc f i rendermodel.obj
 0001:00051eff       ?calcbb@animmodel@@UAEXHAAUvec@@0@Z 00452eff f i rendermodel.obj
 0001:00051fc4       ?startrender@animmodel@@UAEXXZ 00452fc4 f i rendermodel.obj
 0001:000520d9       ?disablebones@animmodel@@SAXXZ 004530d9 f i rendermodel.obj
 0001:000520f1       ?disablemtc@animmodel@@SAXXZ 004530f1 f i rendermodel.obj
 0001:0005211a       ?disabletc@animmodel@@SAXXZ 0045311a f i rendermodel.obj
 0001:0005213b       ?disablevbo@animmodel@@SAXXZ 0045313b f i rendermodel.obj
 0001:000521de       ?disableglow@animmodel@@SAXXZ 004531de f i rendermodel.obj
 0001:00052220       ?disableenvmap@animmodel@@SAX_N@Z 00453220 f i rendermodel.obj
 0001:0005228b       ?endrender@animmodel@@UAEXXZ 0045328b f i rendermodel.obj
 0001:00052365       ??_Gmesh@animmodel@@UAEPAXI@Z 00453365 f i rendermodel.obj
 0001:00052365       ??_Emesh@animmodel@@UAEPAXI@Z 00453365 f i  CIL library: CIL module
 0001:00052381       ??_Gmeshgroup@animmodel@@UAEPAXI@Z 00453381 f i rendermodel.obj
 0001:00052381       ??_Emeshgroup@animmodel@@UAEPAXI@Z 00453381 f i  CIL library: CIL module
 0001:0005239d       ??_Gpart@animmodel@@UAEPAXI@Z 0045339d f i rendermodel.obj
 0001:0005239d       ??_Epart@animmodel@@UAEPAXI@Z 0045339d f i  CIL library: CIL module
 0001:000523b9       ??_Ganimmodel@@UAEPAXI@Z   004533b9 f i rendermodel.obj
 0001:000523b9       ??_Eanimmodel@@UAEPAXI@Z   004533b9 f i  CIL library: CIL module
 0001:000523d5       ??0vertmesh@vertmodel@@QAE@XZ 004533d5 f i rendermodel.obj
 0001:0005241a       ??1vertmesh@vertmodel@@UAE@XZ 0045341a f i rendermodel.obj
 0001:00052494       ?smoothnorms@vertmesh@vertmodel@@QAEXM_N@Z 00453494 f i rendermodel.obj
 0001:000527eb       ?buildnorms@vertmesh@vertmodel@@QAEX_N@Z 004537eb f i rendermodel.obj
 0001:00052969       ?calctangents@vertmesh@vertmodel@@QAEXXZ 00453969 f i rendermodel.obj
 0001:00052d2d       ?calcbb@vertmesh@vertmodel@@UAEXHAAUvec@@0ABUmatrix3x4@@@Z 00453d2d f i rendermodel.obj
 0001:00052db6       ?gentris@vertmesh@vertmodel@@UAEXHPAUTexture@@PAU?$vector@Utri@BIH@@@@ABUmatrix3x4@@@Z 00453db6 f i rendermodel.obj
 0001:00052ed3       ?genvbo@vertmesh@vertmodel@@QAEHAAU?$vector@G@@H@Z 00453ed3 f i rendermodel.obj
 0001:00052f56       ?filltc@vertmesh@vertmodel@@QAEXPAEI@Z 00453f56 f i rendermodel.obj
 0001:00052f89       ?interpverts@vertmesh@vertmodel@@QAEXABUanimstate@animmodel@@_N1PIAXAAUskin@4@@Z 00453f89 f i rendermodel.obj
 0001:000534a0       ?render@vertmesh@vertmodel@@QAEXPBUanimstate@animmodel@@AAUskin@4@AAUvbocacheentry@2@@Z 004544a0 f i rendermodel.obj
 0001:0005374e       ??1boneinfo@skelmodel@@QAE@XZ 0045474e f i rendermodel.obj
 0001:0005374e       ??1videobuffer@recorder@@QAE@XZ 0045474e f i movie.obj
 0001:0005374e       ??1tag@vertmodel@@QAE@XZ   0045474e f i rendermodel.obj
 0001:00053763       ??0vertmeshgroup@vertmodel@@QAE@XZ 00454763 f i rendermodel.obj
 0001:000537cb       ??1vertmeshgroup@vertmodel@@UAE@XZ 004547cb f i rendermodel.obj
 0001:00053880       ?findtag@vertmeshgroup@vertmodel@@UAEHPBD@Z 00454880 f i rendermodel.obj
 0001:000538b9       ?totalframes@vertmeshgroup@vertmodel@@UBEHXZ 004548b9 f i rendermodel.obj
 0001:000538bd       ?concattagtransform@vertmeshgroup@vertmodel@@UAEXPAUpart@animmodel@@HHABUmatrix3x4@@AAU5@@Z 004548bd f i rendermodel.obj
 0001:00053925       ?calctagmatrix@vertmeshgroup@vertmodel@@QAEXPAUpart@animmodel@@HABUanimstate@4@AAUglmatrixf@@@Z 00454925 f i rendermodel.obj
 0001:00053a14       ?genvbo@vertmeshgroup@vertmodel@@QAEX_N0AAUvbocacheentry@2@@Z 00454a14 f i rendermodel.obj
 0001:00053f25       ?bindvbo@vertmeshgroup@vertmodel@@QAEXPBUanimstate@animmodel@@AAUvbocacheentry@2@@Z 00454f25 f i rendermodel.obj
 0001:000540d9       ?cleanup@vertmeshgroup@vertmodel@@UAEXXZ 004550d9 f i rendermodel.obj
 0001:00054148       ?render@vertmeshgroup@vertmodel@@UAEXPBUanimstate@animmodel@@MABUvec@@PAUdynent@@PAUpart@4@@Z 00455148 f i rendermodel.obj
 0001:00054457       ??0vertmodel@@QAE@PBD@Z    00455457 f i rendermodel.obj
 0001:0005448d       ??_Evertmesh@vertmodel@@UAEPAXI@Z 0045548d f i  CIL library: CIL module
 0001:0005448d       ??_Gvertmesh@vertmodel@@UAEPAXI@Z 0045548d f i rendermodel.obj
 0001:000544a9       ??_Evertmeshgroup@vertmodel@@UAEPAXI@Z 004554a9 f i  CIL library: CIL module
 0001:000544a9       ??_Gvertmeshgroup@vertmodel@@UAEPAXI@Z 004554a9 f i rendermodel.obj
 0001:000544c5       ??_Eskelmodel@@UAEPAXI@Z   004554c5 f i  CIL library: CIL module
 0001:000544c5       ??_Gvertmodel@@UAEPAXI@Z   004554c5 f i rendermodel.obj
 0001:000544c5       ??_Evertmodel@@UAEPAXI@Z   004554c5 f i  CIL library: CIL module
 0001:000544c5       ??_Gskelmodel@@UAEPAXI@Z   004554c5 f i rendermodel.obj
 0001:000544e2       ??1skelmodel@@UAE@XZ       004554e2 f i rendermodel.obj
 0001:000544e2       ??1vertmodel@@UAE@XZ       004554e2 f i rendermodel.obj
 0001:00054522       ?size@blendcombo@skelmodel@@QBEHXZ 00455522 f i rendermodel.obj
 0001:0005453f       ?sortcmp@blendcombo@skelmodel@@SAHPBU12@0@Z 0045553f f i rendermodel.obj
 0001:0005458c       ?addweight@blendcombo@skelmodel@@QAEHHMH@Z 0045558c f i rendermodel.obj
 0001:00054620       ?finalize@blendcombo@skelmodel@@QAEXH@Z 00455620 f i rendermodel.obj
 0001:00054674       ?serialize@blendcombo@skelmodel@@QAEXAAUvvertw@2@@Z 00455674 f i rendermodel.obj
 0001:00054749       ??8animcacheentry@skelmodel@@QBE_NABU01@@Z 00455749 f i rendermodel.obj
 0001:000547c5       ??0vbocacheentry@skelmodel@@QAE@XZ 004557c5 f i rendermodel.obj
 0001:000547ef       ??0skelcacheentry@skelmodel@@QAE@XZ 004557ef f i rendermodel.obj
 0001:00054826       ??0blendcacheentry@skelmodel@@QAE@XZ 00455826 f i rendermodel.obj
 0001:0005483b       ??0skelmesh@skelmodel@@QAE@XZ 0045583b f i rendermodel.obj
 0001:00054886       ??1skelmesh@skelmodel@@UAE@XZ 00455886 f i rendermodel.obj
 0001:000548ef       ?smoothnorms@skelmesh@skelmodel@@QAEXM_N@Z 004558ef f i rendermodel.obj
 0001:00054c32       ?buildnorms@skelmesh@skelmodel@@QAEX_N@Z 00455c32 f i rendermodel.obj
 0001:00054d8e       ?calctangents@skelmesh@skelmodel@@QAEX_N@Z 00455d8e f i rendermodel.obj
 0001:000550ef       ?calcbb@skelmesh@skelmodel@@UAEXHAAUvec@@0ABUmatrix3x4@@@Z 004560ef f i rendermodel.obj
 0001:00055176       ?gentris@skelmesh@skelmodel@@UAEXHPAUTexture@@PAU?$vector@Utri@BIH@@@@ABUmatrix3x4@@@Z 00456176 f i rendermodel.obj
 0001:0005526a       ?genvbo@skelmesh@skelmodel@@QAEHAAU?$vector@G@@H@Z 0045626a f i rendermodel.obj
 0001:00055327       ?filltc@skelmesh@skelmodel@@QAEXPAEI@Z 00456327 f i rendermodel.obj
 0001:00055363       ?fillbump@skelmesh@skelmodel@@QAEXPAEI@Z 00456363 f i rendermodel.obj
 0001:000553cf       ?setshader@skelmesh@skelmodel@@UAEXPAUShader@@@Z 004563cf f i rendermodel.obj
 0001:00055450       ?render@skelmesh@skelmodel@@QAEXPBUanimstate@animmodel@@AAUskin@4@AAUvbocacheentry@2@@Z 00456450 f i rendermodel.obj
 0001:00055724       ??0boneinfo@skelmodel@@QAE@XZ 00456724 f i rendermodel.obj
 0001:00055757       ??0skeleton@skelmodel@@QAE@XZ 00456757 f i rendermodel.obj
 0001:000557d4       ??1skeleton@skelmodel@@QAE@XZ 004567d4 f i rendermodel.obj
 0001:0005593a       ?findskelanim@skeleton@skelmodel@@QAEPAUskelanimspec@2@PBDD@Z 0045693a f i rendermodel.obj
 0001:000559cf       ?addskelanim@skeleton@skelmodel@@QAEAAUskelanimspec@2@PBD@Z 004569cf f i rendermodel.obj
 0001:00055a49       ?findbone@skeleton@skelmodel@@QAEHPBD@Z 00456a49 f i rendermodel.obj
 0001:00055a83       ?findtag@skeleton@skelmodel@@QAEHPBD@Z 00456a83 f i rendermodel.obj
 0001:00055ab3       ?addtag@skeleton@skelmodel@@QAE_NPBDH@Z 00456ab3 f i rendermodel.obj
 0001:00055af4       ?calcantipodes@skeleton@skelmodel@@QAEXXZ 00456af4 f i rendermodel.obj
 0001:00055d3d       ?remapbones@skeleton@skelmodel@@QAEXXZ 00456d3d f i rendermodel.obj
 0001:00056091       ?expandbonemask@skeleton@skelmodel@@QAEXPAEHH@Z 00457091 f i rendermodel.obj
 0001:000560d2       ?applybonemask@skeleton@skelmodel@@QAEXPAGPAEH@Z 004570d2 f i rendermodel.obj
 0001:00056168       ?linkchildren@skeleton@skelmodel@@QAEXXZ 00457168 f i rendermodel.obj
 0001:000561ab       ?availgpubones@skeleton@skelmodel@@QBEHXZ 004571ab f i rendermodel.obj
 0001:000561f0       ?gpuaccelerate@skeleton@skelmodel@@QBE_NXZ 004571f0 f i rendermodel.obj
 0001:00056219       ?interpmatbones@skeleton@skelmodel@@QAEXPBUanimstate@animmodel@@MABUvec@@HPBEAAUskelcacheentry@2@@Z 00457219 f i rendermodel.obj
 0001:000565b0       ?interpbones@skeleton@skelmodel@@QAEXPBUanimstate@animmodel@@MABUvec@@HPBEAAUskelcacheentry@2@@Z 004575b0 f i rendermodel.obj
 0001:000568e5       ?initmatragdoll@skeleton@skelmodel@@QAEXAAUragdolldata@@AAUskelcacheentry@2@PAUpart@animmodel@@@Z 004578e5 f i rendermodel.obj
 0001:00056af3       ?initragdoll@skeleton@skelmodel@@QAEXAAUragdolldata@@AAUskelcacheentry@2@PAUpart@animmodel@@@Z 00457af3 f i rendermodel.obj
 0001:00056d58       ?genmatragdollbones@skeleton@skelmodel@@QAEXAAUragdolldata@@AAUskelcacheentry@2@PAUpart@animmodel@@@Z 00457d58 f i rendermodel.obj
 0001:00056f40       ?genragdollbones@skeleton@skelmodel@@QAEXAAUragdolldata@@AAUskelcacheentry@2@PAUpart@animmodel@@@Z 00457f40 f i rendermodel.obj
 0001:000571a4       ?concattagtransform@skeleton@skelmodel@@QAEXPAUpart@animmodel@@HHABUmatrix3x4@@AAU5@@Z 004581a4 f i rendermodel.obj
 0001:00057229       ?calctagmatrix@skeleton@skelmodel@@QAEXPAUpart@animmodel@@HABUmatrix3x4@@AAUlinkedpart@4@@Z 00458229 f i rendermodel.obj
 0001:000572cd       ?calctags@skeleton@skelmodel@@QAEXAAUskelcacheentry@2@PAUpart@animmodel@@@Z 004582cd f i rendermodel.obj
 0001:0005735c       ?calctags@skeleton@skelmodel@@QAEXPAUpart@animmodel@@@Z 0045835c f i rendermodel.obj
 0001:000573d2       ?cleanup@skeleton@skelmodel@@QAEX_N@Z 004583d2 f i rendermodel.obj
 0001:00057480       ?checkskelcache@skeleton@skelmodel@@QAEAAUskelcacheentry@2@PAUpart@animmodel@@PBUanimstate@5@MABUvec@@PAUragdolldata@@@Z 00458480 f i rendermodel.obj
 0001:000576ae       ?setasmbones@skeleton@skelmodel@@QAEXAAUskelcacheentry@2@H@Z 004586ae f i rendermodel.obj
 0001:0005785a       ?bindubo@skeleton@skelmodel@@QAEXAAUUniformLoc@@AAUskelcacheentry@2@1H@Z 0045885a f i rendermodel.obj
 0001:000579db       ?setglslbones@skeleton@skelmodel@@QAEXAAUUniformLoc@@AAUskelcacheentry@2@1H@Z 004589db f i rendermodel.obj
 0001:00057ab1       ?setgpubones@skeleton@skelmodel@@QAEXAAUskelcacheentry@2@PAUblendcacheentry@2@H@Z 00458ab1 f i rendermodel.obj
 0001:00057b3d       ??0skelmeshgroup@skelmodel@@QAE@XZ 00458b3d f i rendermodel.obj
 0001:00057be2       ??1skelmeshgroup@skelmodel@@UAE@XZ 00458be2 f i rendermodel.obj
 0001:00057d3a       ?shareskeleton@skelmeshgroup@skelmodel@@QAEXPAD@Z 00458d3a f i rendermodel.obj
 0001:00057e69       ?findtag@skelmeshgroup@skelmodel@@UAEHPBD@Z 00458e69 f i rendermodel.obj
 0001:00057e7a       ?totalframes@skelmeshgroup@skelmodel@@UBEHXZ 00458e7a f i rendermodel.obj
 0001:00057e89       ?genvbo@skelmeshgroup@skelmodel@@QAEX_N0AAUvbocacheentry@2@@Z 00458e89 f i rendermodel.obj
 0001:000586ce       ?bindvbo@skelmeshgroup@skelmodel@@QAEXPBUanimstate@animmodel@@AAUvbocacheentry@2@PAUskelcacheentry@2@PAUblendcacheentry@2@@Z 004596ce f i rendermodel.obj
 0001:000588ff       ?concattagtransform@skelmeshgroup@skelmodel@@UAEXPAUpart@animmodel@@HHABUmatrix3x4@@AAU5@@Z 004598ff f i rendermodel.obj
 0001:0005891a       ?addblendcombo@skelmeshgroup@skelmodel@@QAEHABUblendcombo@2@@Z 0045991a f i rendermodel.obj
 0001:00058a3e       ?sortblendcombos@skelmeshgroup@skelmodel@@QAEXXZ 00459a3e f i rendermodel.obj
 0001:00058ad9       ?blendmatbones@skelmeshgroup@skelmodel@@QAEXABUskelcacheentry@2@AAUblendcacheentry@2@@Z 00459ad9 f i rendermodel.obj
 0001:00058bb1       ?blendbones@skelmeshgroup@skelmodel@@QAEXABUskelcacheentry@2@AAUblendcacheentry@2@@Z 00459bb1 f i rendermodel.obj
 0001:00058cad       ?cleanup@skelmeshgroup@skelmodel@@UAEXXZ 00459cad f i rendermodel.obj
 0001:00058d8a       ?checkvbocache@skelmeshgroup@skelmodel@@QAEAAUvbocacheentry@2@AAUskelcacheentry@2@H@Z 00459d8a f i rendermodel.obj
 0001:00058e10       ?checkblendcache@skelmeshgroup@skelmodel@@QAEAAUblendcacheentry@2@AAUskelcacheentry@2@H@Z 00459e10 f i rendermodel.obj
 0001:00058e7a       ?render@skelmeshgroup@skelmodel@@UAEXPBUanimstate@animmodel@@MABUvec@@PAUdynent@@PAUpart@4@@Z 00459e7a f i rendermodel.obj
 0001:0005934c       ??0skelpart@skelmodel@@QAE@XZ 0045a34c f i rendermodel.obj
 0001:00059386       ??1skelpart@skelmodel@@UAE@XZ 0045a386 f i rendermodel.obj
 0001:000593cb       ?sharepartmask@skelpart@skelmodel@@QAEPAEPAUanimpartmask@2@@Z 0045a3cb f i rendermodel.obj
 0001:00059410       ?initanimparts@skelpart@skelmodel@@QAEXXZ 0045a410 f i rendermodel.obj
 0001:00059457       ?addanimpart@skelpart@skelmodel@@QAE_NPAG@Z 0045a457 f i rendermodel.obj
 0001:00059488       ?endanimparts@skelpart@skelmodel@@QAEXXZ 0045a488 f i rendermodel.obj
 0001:000594ca       ??0skelmodel@@QAE@PBD@Z    0045a4ca f i rendermodel.obj
 0001:00059500       ?linktype@skelmodel@@UBEHPAUanimmodel@@@Z 0045a500 f i rendermodel.obj
 0001:00059542       ??_Eskelmesh@skelmodel@@UAEPAXI@Z 0045a542 f i  CIL library: CIL module
 0001:00059542       ??_Gskelmesh@skelmodel@@UAEPAXI@Z 0045a542 f i rendermodel.obj
 0001:0005955e       ??_Gskelmeshgroup@skelmodel@@UAEPAXI@Z 0045a55e f i rendermodel.obj
 0001:0005955e       ??_Eskelmeshgroup@skelmodel@@UAEPAXI@Z 0045a55e f i  CIL library: CIL module
 0001:0005957a       ??_Gskelpart@skelmodel@@UAEPAXI@Z 0045a57a f i rendermodel.obj
 0001:0005957a       ??_Eskelpart@skelmodel@@UAEPAXI@Z 0045a57a f i  CIL library: CIL module
 0001:00059596       ??1ragdollskel@@QAE@XZ     0045a596 f i rendermodel.obj
 0001:0005967d       ?linktype@md2@@UBEHPAUanimmodel@@@Z 0045a67d f i rendermodel.obj
 0001:00059683       ?genverts@md2meshgroup@md2@@QAEXPAHAAU?$vector@Utcvert@vertmodel@@@@AAU?$vector@G@@AAU?$vector@Utri@vertmodel@@@@@Z 0045a683 f i rendermodel.obj
 0001:00059834       ?load@md2meshgroup@md2@@QAE_NPAD@Z 0045a834 f i rendermodel.obj
 0001:00059c67       ?getdefaultanim@md2part@md2@@UAEXAAUaniminfo@@HIPAUdynent@@@Z 0045ac67 f i rendermodel.obj
 0001:00059ce3       ?loadmeshes@md2@@UAEPAUmeshgroup@animmodel@@PAD0@Z 0045ace3 f i rendermodel.obj
 0001:00059d52       ?load@md2@@UAE_NXZ         0045ad52 f i rendermodel.obj
 0001:00059f3f       ??1?$hashtable@Uivec@@H@@QAE@XZ 0045af3f f i rendermodel.obj
 0001:00059f77       ??_Gmd2meshgroup@md2@@UAEPAXI@Z 0045af77 f i rendermodel.obj
 0001:00059f77       ??_Gobjmeshgroup@obj@@UAEPAXI@Z 0045af77 f i rendermodel.obj
 0001:00059f77       ??_Emd3meshgroup@md3@@UAEPAXI@Z 0045af77 f i  CIL library: CIL module
 0001:00059f77       ??_Gmd3meshgroup@md3@@UAEPAXI@Z 0045af77 f i rendermodel.obj
 0001:00059f77       ??_Emd2meshgroup@md2@@UAEPAXI@Z 0045af77 f i  CIL library: CIL module
 0001:00059f77       ??_Eobjmeshgroup@obj@@UAEPAXI@Z 0045af77 f i  CIL library: CIL module
 0001:00059faf       ??_Gmd2part@md2@@UAEPAXI@Z 0045afaf f i rendermodel.obj
 0001:00059faf       ??_Emd2part@md2@@UAEPAXI@Z 0045afaf f i  CIL library: CIL module
 0001:00059fe7       ?md2pitch@@YAXPAM000@Z     0045afe7 f   rendermodel.obj
 0001:0005a063       ?md2anim@@YAXPADPAH1PAM1@Z 0045b063 f   rendermodel.obj
 0001:0005a129       ?load@md3meshgroup@md3@@QAE_NPAD@Z 0045b129 f i rendermodel.obj
 0001:0005a69f       ?loadmeshes@md3@@UAEPAUmeshgroup@animmodel@@PAD0@Z 0045b69f f i rendermodel.obj
 0001:0005a710       ?loaddefaultparts@md3@@UAE_NXZ 0045b710 f i rendermodel.obj
 0001:0005a821       ?load@md3@@UAE_NXZ         0045b821 f i rendermodel.obj
 0001:0005a925       ??_Eiqm@@UAEPAXI@Z         0045b925 f i  CIL library: CIL module
 0001:0005a925       ??_Esmd@@UAEPAXI@Z         0045b925 f i  CIL library: CIL module
 0001:0005a925       ??_Gmd2@@UAEPAXI@Z         0045b925 f i rendermodel.obj
 0001:0005a925       ??_Gsmd@@UAEPAXI@Z         0045b925 f i rendermodel.obj
 0001:0005a925       ??_Gmd5@@UAEPAXI@Z         0045b925 f i rendermodel.obj
 0001:0005a925       ??_Emd5@@UAEPAXI@Z         0045b925 f i  CIL library: CIL module
 0001:0005a925       ??_Emd2@@UAEPAXI@Z         0045b925 f i  CIL library: CIL module
 0001:0005a925       ??_Gobj@@UAEPAXI@Z         0045b925 f i rendermodel.obj
 0001:0005a925       ??_Eobj@@UAEPAXI@Z         0045b925 f i  CIL library: CIL module
 0001:0005a925       ??_Gmd3@@UAEPAXI@Z         0045b925 f i rendermodel.obj
 0001:0005a925       ??_Giqm@@UAEPAXI@Z         0045b925 f i rendermodel.obj
 0001:0005a925       ??_Emd3@@UAEPAXI@Z         0045b925 f i  CIL library: CIL module
 0001:0005a95e       ?md3load@@YAXPAD@Z         0045b95e f   rendermodel.obj
 0001:0005aa51       ?md3pitch@@YAXPAM000@Z     0045ba51 f   rendermodel.obj
 0001:0005aacd       ?md3skin@@YAXPAD00PAM1@Z   0045bacd f   rendermodel.obj
 0001:0005abdf       ?md3spec@@YAXPADPAH@Z      0045bbdf f   rendermodel.obj
 0001:0005ac88       ?md3ambient@@YAXPADPAH@Z   0045bc88 f   rendermodel.obj
 0001:0005ad35       ?md3glow@@YAXPADPAH@Z      0045bd35 f   rendermodel.obj
 0001:0005ade2       ?md3glare@@YAXPADPAM1@Z    0045bde2 f   rendermodel.obj
 0001:0005ae71       ?md3alphatest@@YAXPADPAM@Z 0045be71 f   rendermodel.obj
 0001:0005af22       ?md3alphablend@@YAXPADPAH@Z 0045bf22 f   rendermodel.obj
 0001:0005afae       ?md3cullface@@YAXPADPAH@Z  0045bfae f   rendermodel.obj
 0001:0005b03a       ?md3envmap@@YAXPAD0@Z      0045c03a f   rendermodel.obj
 0001:0005b0d2       ?md3bumpmap@@YAXPAD00@Z    0045c0d2 f   rendermodel.obj
 0001:0005b1bc       ?md3fullbright@@YAXPADPAM@Z 0045c1bc f   rendermodel.obj
 0001:0005b244       ?md3shader@@YAXPAD0@Z      0045c244 f   rendermodel.obj
 0001:0005b2cf       ?md3scroll@@YAXPADPAM1@Z   0045c2cf f   rendermodel.obj
 0001:0005b35e       ?md3anim@@YAXPADPAH1PAM1@Z 0045c35e f   rendermodel.obj
 0001:0005b424       ?md3link@@YAXPAH0PADPAM22@Z 0045c424 f   rendermodel.obj
 0001:0005b4bc       ?md3noclip@@YAXPADPAH@Z    0045c4bc f   rendermodel.obj
 0001:0005b538       ?type@md5@@UBEHXZ          0045c538 f i rendermodel.obj
 0001:0005b53c       ?cleanup@md5mesh@md5@@QAEXXZ 0045c53c f i rendermodel.obj
 0001:0005b561       ?buildverts@md5mesh@md5@@QAEXAAU?$vector@Umd5joint@@@@@Z 0045c561 f i rendermodel.obj
 0001:0005b6be       ?load@md5mesh@md5@@QAEXPAUstream@@PADI@Z 0045c6be f i rendermodel.obj
 0001:0005ba12       ?loadmd5mesh@md5meshgroup@md5@@QAE_NPBDM@Z 0045ca12 f i rendermodel.obj
 0001:0005bf82       ?loadmd5anim@md5meshgroup@md5@@QAEPAUskelanimspec@skelmodel@@PBD@Z 0045cf82 f i rendermodel.obj
 0001:0005c911       ?loadmeshes@md5@@UAEPAUmeshgroup@animmodel@@PAD0@Z 0045d911 f i rendermodel.obj
 0001:0005c9ad       ?loaddefaultparts@md5@@UAE_NXZ 0045d9ad f i rendermodel.obj
 0001:0005caf7       ?load@md5@@UAE_NXZ         0045daf7 f i rendermodel.obj
 0001:0005cbfa       ??_Emd5mesh@md5@@UAEPAXI@Z 0045dbfa f i  CIL library: CIL module
 0001:0005cbfa       ??_Gmd5mesh@md5@@UAEPAXI@Z 0045dbfa f i rendermodel.obj
 0001:0005cc43       ??_Esmdmeshgroup@smd@@UAEPAXI@Z 0045dc43 f i  CIL library: CIL module
 0001:0005cc43       ??_Eiqmmeshgroup@iqm@@UAEPAXI@Z 0045dc43 f i  CIL library: CIL module
 0001:0005cc43       ??_Gmd5meshgroup@md5@@UAEPAXI@Z 0045dc43 f i rendermodel.obj
 0001:0005cc43       ??_Giqmmeshgroup@iqm@@UAEPAXI@Z 0045dc43 f i rendermodel.obj
 0001:0005cc43       ??_Gsmdmeshgroup@smd@@UAEPAXI@Z 0045dc43 f i rendermodel.obj
 0001:0005cc43       ??_Emd5meshgroup@md5@@UAEPAXI@Z 0045dc43 f i  CIL library: CIL module
 0001:0005cc7b       ?setmd5dir@@YAXPAD@Z       0045dc7b f   rendermodel.obj
 0001:0005ccaf       ?md5load@@YAXPAD0PAM@Z     0045dcaf f   rendermodel.obj
 0001:0005ce08       ?md5tag@@YAXPAD0@Z         0045de08 f   rendermodel.obj
 0001:0005ce76       ?md5pitch@@YAXPADPAM111@Z  0045de76 f   rendermodel.obj
 0001:0005cf90       ?md5adjust@@YAXPADPAM11111@Z 0045df90 f   rendermodel.obj
 0001:0005d088       ?md5skin@@YAXPAD00PAM1@Z   0045e088 f   rendermodel.obj
 0001:0005d19f       ?md5spec@@YAXPADPAH@Z      0045e19f f   rendermodel.obj
 0001:0005d24d       ?md5ambient@@YAXPADPAH@Z   0045e24d f   rendermodel.obj
 0001:0005d2ff       ?md5glow@@YAXPADPAH@Z      0045e2ff f   rendermodel.obj
 0001:0005d3b1       ?md5glare@@YAXPADPAM1@Z    0045e3b1 f   rendermodel.obj
 0001:0005d445       ?md5alphatest@@YAXPADPAM@Z 0045e445 f   rendermodel.obj
 0001:0005d4ff       ?md5alphablend@@YAXPADPAH@Z 0045e4ff f   rendermodel.obj
 0001:0005d590       ?md5cullface@@YAXPADPAH@Z  0045e590 f   rendermodel.obj
 0001:0005d621       ?md5envmap@@YAXPAD0@Z      0045e621 f   rendermodel.obj
 0001:0005d6be       ?md5bumpmap@@YAXPAD00@Z    0045e6be f   rendermodel.obj
 0001:0005d7c6       ?md5fullbright@@YAXPADPAM@Z 0045e7c6 f   rendermodel.obj
 0001:0005d853       ?md5shader@@YAXPAD0@Z      0045e853 f   rendermodel.obj
 0001:0005d8e3       ?md5scroll@@YAXPADPAM1@Z   0045e8e3 f   rendermodel.obj
 0001:0005d977       ?md5anim@@YAXPAD0PAMPAH@Z  0045e977 f   rendermodel.obj
 0001:0005dabe       ?md5animpart@@YAXPAD@Z     0045eabe f   rendermodel.obj
 0001:0005dc20       ?md5link@@YAXPAH0PADPAM22@Z 0045ec20 f   rendermodel.obj
 0001:0005dcb8       ?md5noclip@@YAXPADPAH@Z    0045ecb8 f   rendermodel.obj
 0001:0005dd39       ?type@obj@@UBEHXZ          0045ed39 f i rendermodel.obj
 0001:0005dd3d       ?parsevert@objmeshgroup@obj@@QAEXPADAAU?$vector@Uvec@@@@@Z 0045ed3d f i rendermodel.obj
 0001:0005ddbb       ?load@objmeshgroup@obj@@QAE_NPADM@Z 0045edbb f i rendermodel.obj
 0001:0005e56d       ?loadmeshes@obj@@UAEPAUmeshgroup@animmodel@@PAD0@Z 0045f56d f i rendermodel.obj
 0001:0005e5e4       ?loaddefaultparts@obj@@UAE_NXZ 0045f5e4 f i rendermodel.obj
 0001:0005e732       ?load@obj@@UAE_NXZ         0045f732 f i rendermodel.obj
 0001:0005e836       ?objload@@YAXPADPAM@Z      0045f836 f   rendermodel.obj
 0001:0005e978       ?objpitch@@YAXPAM000@Z     0045f978 f   rendermodel.obj
 0001:0005e9f4       ?objskin@@YAXPAD00PAM1@Z   0045f9f4 f   rendermodel.obj
 0001:0005eb0b       ?objspec@@YAXPADPAH@Z      0045fb0b f   rendermodel.obj
 0001:0005ebb9       ?objambient@@YAXPADPAH@Z   0045fbb9 f   rendermodel.obj
 0001:0005ec6b       ?objglow@@YAXPADPAH@Z      0045fc6b f   rendermodel.obj
 0001:0005ed1d       ?objglare@@YAXPADPAM1@Z    0045fd1d f   rendermodel.obj
 0001:0005edb1       ?objalphatest@@YAXPADPAM@Z 0045fdb1 f   rendermodel.obj
 0001:0005ee6b       ?objalphablend@@YAXPADPAH@Z 0045fe6b f   rendermodel.obj
 0001:0005eefc       ?objcullface@@YAXPADPAH@Z  0045fefc f   rendermodel.obj
 0001:0005ef8d       ?objenvmap@@YAXPAD0@Z      0045ff8d f   rendermodel.obj
 0001:0005f02a       ?objbumpmap@@YAXPAD00@Z    0046002a f   rendermodel.obj
 0001:0005f132       ?objfullbright@@YAXPADPAM@Z 00460132 f   rendermodel.obj
 0001:0005f1bf       ?objshader@@YAXPAD0@Z      004601bf f   rendermodel.obj
 0001:0005f24f       ?objscroll@@YAXPADPAM1@Z   0046024f f   rendermodel.obj
 0001:0005f2e3       ?objnoclip@@YAXPADPAH@Z    004602e3 f   rendermodel.obj
 0001:0005f364       ?type@smd@@UBEHXZ          00460364 f i rendermodel.obj
 0001:0005f368       ?skipcomment@smdmeshgroup@smd@@QAE_NAAPAD@Z 00460368 f i rendermodel.obj
 0001:0005f3b0       ?skipsection@smdmeshgroup@smd@@QAEXPAUstream@@PADI@Z 004603b0 f i rendermodel.obj
 0001:0005f3f1       ?readname@smdmeshgroup@smd@@QAEXAAPADPADI@Z 004603f1 f i rendermodel.obj
 0001:0005f46d       ?readnodes@smdmeshgroup@smd@@QAEXPAUstream@@PADIAAU?$vector@Usmdbone@@@@@Z 0046046d f i rendermodel.obj
 0001:0005f609       ?readmaterial@smdmeshgroup@smd@@QAEXAAPADPADI@Z 00460609 f i rendermodel.obj
 0001:0005f685       ?finalize@smdmeshdata@smdmeshgroup@smd@@QAEXXZ 00460685 f i rendermodel.obj
 0001:0005f796       ?readtriangles@smdmeshgroup@smd@@QAEXPAUstream@@PADI@Z 00460796 f i rendermodel.obj
 0001:0005fc78       ?readskeleton@smdmeshgroup@smd@@QAEXPAUstream@@PADI@Z 00460c78 f i rendermodel.obj
 0001:0005fe7d       ?loadmesh@smdmeshgroup@smd@@QAE_NPBD@Z 00460e7d f i rendermodel.obj
 0001:00060135       ?readframes@smdmeshgroup@smd@@QAEHPAUstream@@PADIAAU?$vector@Udualquat@@@@@Z 00461135 f i rendermodel.obj
 0001:000606b3       ?loadanim@smdmeshgroup@smd@@QAEPAUskelanimspec@skelmodel@@PBD@Z 004616b3 f i rendermodel.obj
 0001:000609eb       ?loadmeshes@smd@@UAEPAUmeshgroup@animmodel@@PAD0@Z 004619eb f i rendermodel.obj
 0001:00060a76       ?loaddefaultparts@smd@@UAE_NXZ 00461a76 f i rendermodel.obj
 0001:00060b57       ?load@smd@@UAE_NXZ         00461b57 f i rendermodel.obj
 0001:00060c5a       ??1?$hashtable@PBDUsmdmeshdata@smdmeshgroup@smd@@@@QAE@XZ 00461c5a f i rendermodel.obj
 0001:00060c80       ??_Gsmdmesh@smd@@UAEPAXI@Z 00461c80 f i rendermodel.obj
 0001:00060c80       ??_Esmdmesh@smd@@UAEPAXI@Z 00461c80 f i  CIL library: CIL module
 0001:00060cb8       ?setsmddir@@YAXPAD@Z       00461cb8 f   rendermodel.obj
 0001:00060cec       ?smdload@@YAXPAD0@Z        00461cec f   rendermodel.obj
 0001:00060df7       ?smdtag@@YAXPAD0@Z         00461df7 f   rendermodel.obj
 0001:00060e65       ?smdpitch@@YAXPADPAM111@Z  00461e65 f   rendermodel.obj
 0001:00060f7f       ?smdadjust@@YAXPADPAM11111@Z 00461f7f f   rendermodel.obj
 0001:00061077       ?smdskin@@YAXPAD00PAM1@Z   00462077 f   rendermodel.obj
 0001:0006118e       ?smdspec@@YAXPADPAH@Z      0046218e f   rendermodel.obj
 0001:0006123c       ?smdambient@@YAXPADPAH@Z   0046223c f   rendermodel.obj
 0001:000612ee       ?smdglow@@YAXPADPAH@Z      004622ee f   rendermodel.obj
 0001:000613a0       ?smdglare@@YAXPADPAM1@Z    004623a0 f   rendermodel.obj
 0001:00061434       ?smdalphatest@@YAXPADPAM@Z 00462434 f   rendermodel.obj
 0001:000614ee       ?smdalphablend@@YAXPADPAH@Z 004624ee f   rendermodel.obj
 0001:0006157f       ?smdcullface@@YAXPADPAH@Z  0046257f f   rendermodel.obj
 0001:00061610       ?smdenvmap@@YAXPAD0@Z      00462610 f   rendermodel.obj
 0001:000616ad       ?smdbumpmap@@YAXPAD00@Z    004626ad f   rendermodel.obj
 0001:000617b5       ?smdfullbright@@YAXPADPAM@Z 004627b5 f   rendermodel.obj
 0001:00061842       ?smdshader@@YAXPAD0@Z      00462842 f   rendermodel.obj
 0001:000618d2       ?smdscroll@@YAXPADPAM1@Z   004628d2 f   rendermodel.obj
 0001:00061966       ?smdanim@@YAXPAD0PAMPAH@Z  00462966 f   rendermodel.obj
 0001:00061aad       ?smdanimpart@@YAXPAD@Z     00462aad f   rendermodel.obj
 0001:00061c0f       ?smdlink@@YAXPAH0PADPAM22@Z 00462c0f f   rendermodel.obj
 0001:00061ca7       ?smdnoclip@@YAXPADPAH@Z    00462ca7 f   rendermodel.obj
 0001:00061d28       ?type@iqm@@UBEHXZ          00462d28 f i rendermodel.obj
 0001:00061d2c       ?loadiqmmeshes@iqmmeshgroup@iqm@@QAE_NPBDABUiqmheader@@PAE@Z 00462d2c f i rendermodel.obj
 0001:00062317       ?loadiqmanims@iqmmeshgroup@iqm@@QAE_NPBDABUiqmheader@@PAE@Z 00463317 f i rendermodel.obj
 0001:000627e7       ?loadiqm@iqmmeshgroup@iqm@@QAE_NPBD_N1@Z 004637e7 f i rendermodel.obj
 0001:000628dc       ?loadanim@iqmmeshgroup@iqm@@QAEPAUskelanimspec@skelmodel@@PBD@Z 004638dc f i rendermodel.obj
 0001:00062971       ?loadmeshes@iqm@@UAEPAUmeshgroup@animmodel@@PAD0@Z 00463971 f i rendermodel.obj
 0001:00062a00       ?loaddefaultparts@iqm@@UAE_NXZ 00463a00 f i rendermodel.obj
 0001:00062ae1       ?load@iqm@@UAE_NXZ         00463ae1 f i rendermodel.obj
 0001:00062be4       ?setiqmdir@@YAXPAD@Z       00463be4 f   rendermodel.obj
 0001:00062c18       ?iqmload@@YAXPAD0@Z        00463c18 f   rendermodel.obj
 0001:00062d23       ?iqmtag@@YAXPAD0@Z         00463d23 f   rendermodel.obj
 0001:00062d91       ?iqmpitch@@YAXPADPAM111@Z  00463d91 f   rendermodel.obj
 0001:00062eab       ?iqmadjust@@YAXPADPAM11111@Z 00463eab f   rendermodel.obj
 0001:00062fa3       ?iqmskin@@YAXPAD00PAM1@Z   00463fa3 f   rendermodel.obj
 0001:000630ba       ?iqmspec@@YAXPADPAH@Z      004640ba f   rendermodel.obj
 0001:00063168       ?iqmambient@@YAXPADPAH@Z   00464168 f   rendermodel.obj
 0001:0006321a       ?iqmglow@@YAXPADPAH@Z      0046421a f   rendermodel.obj
 0001:000632cc       ?iqmglare@@YAXPADPAM1@Z    004642cc f   rendermodel.obj
 0001:00063360       ?iqmalphatest@@YAXPADPAM@Z 00464360 f   rendermodel.obj
 0001:0006341a       ?iqmalphablend@@YAXPADPAH@Z 0046441a f   rendermodel.obj
 0001:000634ab       ?iqmcullface@@YAXPADPAH@Z  004644ab f   rendermodel.obj
 0001:0006353c       ?iqmenvmap@@YAXPAD0@Z      0046453c f   rendermodel.obj
 0001:000635d9       ?iqmbumpmap@@YAXPAD00@Z    004645d9 f   rendermodel.obj
 0001:000636e1       ?iqmfullbright@@YAXPADPAM@Z 004646e1 f   rendermodel.obj
 0001:0006376e       ?iqmshader@@YAXPAD0@Z      0046476e f   rendermodel.obj
 0001:000637fe       ?iqmscroll@@YAXPADPAM1@Z   004647fe f   rendermodel.obj
 0001:00063892       ?iqmanim@@YAXPAD0PAMPAH@Z  00464892 f   rendermodel.obj
 0001:000639d9       ?iqmanimpart@@YAXPAD@Z     004649d9 f   rendermodel.obj
 0001:00063b3b       ?iqmlink@@YAXPAH0PADPAM22@Z 00464b3b f   rendermodel.obj
 0001:00063bd3       ?iqmnoclip@@YAXPADPAH@Z    00464bd3 f   rendermodel.obj
 0001:00063e2e       ?mdlcullface@@YAXPAH@Z     00464e2e f   rendermodel.obj
 0001:00063e5b       ?mdlcollide@@YAXPAH@Z      00464e5b f   rendermodel.obj
 0001:00063e81       ?mdlellipsecollide@@YAXPAH@Z 00464e81 f   rendermodel.obj
 0001:00063ea7       ?mdlspec@@YAXPAH@Z         00464ea7 f   rendermodel.obj
 0001:00063ef1       ?mdlambient@@YAXPAH@Z      00464ef1 f   rendermodel.obj
 0001:00063f3f       ?mdlalphatest@@YAXPAM@Z    00464f3f f   rendermodel.obj
 0001:00063f88       ?mdlalphablend@@YAXPAH@Z   00464f88 f   rendermodel.obj
 0001:00063fb5       ?mdlalphadepth@@YAXPAH@Z   00464fb5 f   rendermodel.obj
 0001:00063fdb       ?mdldepthoffset@@YAXPAH@Z  00464fdb f   rendermodel.obj
 0001:00064001       ?mdlglow@@YAXPAH@Z         00465001 f   rendermodel.obj
 0001:0006404f       ?mdlglare@@YAXPAM0@Z       0046504f f   rendermodel.obj
 0001:00064083       ?mdlenvmap@@YAXPAM0PAD@Z   00465083 f   rendermodel.obj
 0001:000640d8       ?mdlfullbright@@YAXPAM@Z   004650d8 f   rendermodel.obj
 0001:00064101       ?mdlshader@@YAXPAD@Z       00465101 f   rendermodel.obj
 0001:00064132       ?mdlspin@@YAXPAM0@Z        00465132 f   rendermodel.obj
 0001:0006415d       ?mdlscale@@YAXPAH@Z        0046515d f   rendermodel.obj
 0001:000641a5       ?mdltrans@@YAXPAM00@Z      004651a5 f   rendermodel.obj
 0001:000641eb       ?mdlyaw@@YAXPAM@Z          004651eb f   rendermodel.obj
 0001:0006420d       ?mdlpitch@@YAXPAM@Z        0046520d f   rendermodel.obj
 0001:0006422f       ?mdlshadow@@YAXPAH@Z       0046522f f   rendermodel.obj
 0001:00064255       ?mdlbb@@YAXPAM00@Z         00465255 f   rendermodel.obj
 0001:00064289       ?mdlextendbb@@YAXPAM00@Z   00465289 f   rendermodel.obj
 0001:000642cf       ?mdlname@@YAXXZ            004652cf f   rendermodel.obj
 0001:000642f5       ?rdvert@@YAXPAM000@Z       004652f5 f   rendermodel.obj
 0001:000643ea       ?rdeye@@YAXPAH@Z           004653ea f   rendermodel.obj
 0001:00064480       ?rdtri@@YAXPAH00@Z         00465480 f   rendermodel.obj
 0001:00064546       ?rdjoint@@YAXPAH0PAD11@Z   00465546 f   rendermodel.obj
 0001:00064663       ?rdlimitdist@@YAXPAH0PAM1@Z 00465663 f   rendermodel.obj
 0001:0006474b       ?rdlimitrot@@YAXPAH0PAM1111@Z 0046574b f   rendermodel.obj
 0001:0006485b       ?rdanimjoints@@YAXPAH@Z    0046585b f   rendermodel.obj
 0001:000648f4       ?mmodel@@YAXPAD@Z          004658f4 f   rendermodel.obj
 0001:00064945       ?mapmodelcompat@@YAXPAH00PAD1@Z 00465945 f   rendermodel.obj
 0001:00064950       ?mapmodelreset@@YAXPAH@Z   00465950 f   rendermodel.obj
 0001:00064984       ?mapmodelname@@YAPBDH@Z    00465984 f   rendermodel.obj
 0001:00064984       ?getmminfo@@YAAAUmapmodelinfo@@H@Z 00465984 f   rendermodel.obj
 0001:000649a0       ?run@?$_icmd_mapmodelname@$0BFN@@@SAXPAH@Z 004659a0 f   rendermodel.obj
 0001:000649cd       ?run@?$_icmd_nummapmodels@$0BFO@@@SAXXZ 004659cd f   rendermodel.obj
 0001:000649da       ?preloadmodel@@YAXPBD@Z    004659da f   rendermodel.obj
 0001:00064a11       ?flushpreloadedmodels@@YAXXZ 00465a11 f   rendermodel.obj
 0001:00064a80       ?preloadusedmapmodels@@YAX_N0@Z 00465a80 f   rendermodel.obj
 0001:00064ba2       ?loadmodel@@YAPAUmodel@@PBDH_N@Z 00465ba2 f   rendermodel.obj
 0001:00064cd0       ?preloadmodelshaders@@YAXXZ 00465cd0 f   rendermodel.obj
 0001:00064d0c       ?clearmodel@@YAXPAD@Z      00465d0c f   rendermodel.obj
 0001:00064d89       ?modeloccluded@@YA_NABUvec@@M@Z 00465d89 f   rendermodel.obj
 0001:00064e32       ?render2dbox@@YAXAAUvec@@MMM@Z 00465e32 f   rendermodel.obj
 0001:00064ebe       ?render3dbox@@YAXAAUvec@@MMMM@Z 00465ebe f   rendermodel.obj
 0001:00064fde       ?renderellipse@@YAXAAUvec@@MMM@Z 00465fde f   rendermodel.obj
 0001:000650db       ?addbatchedmodel@@YAAAUmodelbatch@@PAUmodel@@@Z 004660db f   rendermodel.obj
 0001:00065173       ?renderbatchedmodel@@YAXPAUmodel@@AAUbatchedmodel@@@Z 00466173 f   rendermodel.obj
 0001:00065255       ?endmodelbatches@@YAXXZ    00466255 f   rendermodel.obj
 0001:00065696       ?endmodelquery@@YAXXZ      00466696 f   rendermodel.obj
 0001:000657bc       ?rendermodelquery@@YAXPAUmodel@@PAUdynent@@ABUvec@@M@Z 004667bc f   rendermodel.obj
 0001:00065919       ?rendermodel@@YAXPAUentitylight@@PBDHABUvec@@MMHPAUdynent@@PAUmodelattach@@HHM@Z 00466919 f   rendermodel.obj
 0001:000662ca       ?abovemodel@@YAXAAUvec@@PBD@Z 004672ca f   rendermodel.obj
 0001:000662eb       ?matchanim@@YA_NPBD0@Z     004672eb f   rendermodel.obj
 0001:00066362       ?findanims@@YAXPBDAAU?$vector@H@@@Z 00467362 f   rendermodel.obj
 0001:00066398       ?loadskin@@YAXPBD0AAPAUTexture@@1@Z 00467398 f   rendermodel.obj
 0001:00066545       ?renderclient@@YAXPAUdynent@@PBDPAUmodelattach@@HHHHHM_N@Z 00467545 f   rendermodel.obj
 0001:00066822       ?setbbfrommodel@@YAXPAUdynent@@PBD@Z 00467822 f   rendermodel.obj
 0001:000668e6       ?add@?$vector@Ulinkedpart@animmodel@@@@QAEAAUlinkedpart@animmodel@@XZ 004678e6 f i rendermodel.obj
 0001:0006694d       ?add@?$vector@PAUmaterialsurface@@@@QAEAAPAUmaterialsurface@@ABQAU2@@Z 0046794d f i pvs.obj
 0001:0006694d       ?add@?$vector@PAUident@@@@QAEAAPAUident@@ABQAU2@@Z 0046794d f i command.obj
 0001:0006694d       ?add@?$vector@PAUskelmeshgroup@skelmodel@@@@QAEAAPAUskelmeshgroup@skelmodel@@ABQAU23@@Z 0046794d f i rendermodel.obj
 0001:0006694d       ?add@?$vector@PAUpart@animmodel@@@@QAEAAPAUpart@animmodel@@ABQAU23@@Z 0046794d f i rendermodel.obj
 0001:0006694d       ?add@?$vector@PBD@@QAEAAPBDABQBD@Z 0046794d f i serverbrowser.obj
 0001:0006694d       ?add@?$vector@PAUvtxarray@@@@QAEAAPAUvtxarray@@ABQAU2@@Z 0046794d f i octarender.obj
 0001:0006694d       ?add@?$vector@PAUoctaentities@@@@QAEAAPAUoctaentities@@ABQAU2@@Z 0046794d f i octarender.obj
 0001:0006694d       ?add@?$vector@H@@QAEAAHABH@Z 0046794d f i lightmap.obj
 0001:0006694d       ?add@?$vector@PAUextentity@@@@QAEAAPAUextentity@@ABQAU2@@Z 0046794d f i cubeloader.obj
 0001:0006694d       ?add@?$vector@PAUphysent@@@@QAEAAPAUphysent@@ABQAU2@@Z 0046794d f i physics.obj
 0001:0006694d       ?add@?$vector@PBUextentity@@@@QAEAAPBUextentity@@ABQBU2@@Z 0046794d f i lightmap.obj
 0001:0006694d       ?add@?$vector@PAD@@QAEAAPADABQAD@Z 0046794d f i command.obj
 0001:0006694d       ?add@?$vector@PAUfpsent@@@@QAEAAPAUfpsent@@ABQAU2@@Z 0046794d f i fps.obj
 0001:0006694d       ?add@?$vector@PAUplatforment@@@@QAEAAPAUplatforment@@ABQAU2@@Z 0046794d f i physics.obj
 0001:0006694d       ?add@?$vector@PAUmesh@animmodel@@@@QAEAAPAUmesh@animmodel@@ABQAU23@@Z 0046794d f i rendermodel.obj
 0001:0006694d       ?add@?$vector@PAUclientinfo@server@@@@QAEAAPAUclientinfo@server@@ABQAU23@@Z 0046794d f i server1.obj
 0001:00066984       ??0?$hashtable@PADPAUmeshgroup@animmodel@@@@QAE@H@Z 00467984 f i rendermodel.obj
 0001:000669f3       ??A?$hashtable@PADPAUmeshgroup@animmodel@@@@QAEAAPAUmeshgroup@animmodel@@ABQAD@Z 004679f3 f i rendermodel.obj
 0001:00066a3d       ??1?$hashset@U?$hashtableentry@PADPAUmeshgroup@animmodel@@@@@@QAE@XZ 00467a3d f i rendermodel.obj
 0001:00066a78       ?add@?$vector@Utri@BIH@@@@QAEAAUtri@BIH@@XZ 00467a78 f i rendermodel.obj
 0001:00066ab6       ??1?$vector@Uskelanimspec@skelmodel@@@@QAE@XZ 00467ab6 f i rendermodel.obj
 0001:00066af3       ??1?$vector@Utag@skelmodel@@@@QAE@XZ 00467af3 f i rendermodel.obj
 0001:00066b2e       ?add@?$vector@Utag@skelmodel@@@@QAEAAUtag@skelmodel@@XZ 00467b2e f i rendermodel.obj
 0001:00066b7b       ??0?$hashtable@PADPAUskeleton@skelmodel@@@@QAE@H@Z 00467b7b f i rendermodel.obj
 0001:00066bea       ??A?$hashtable@PADPAUskeleton@skelmodel@@@@QAEAAPAUskeleton@skelmodel@@ABQAD@Z 00467bea f i rendermodel.obj
 0001:00066c34       ??1?$hashset@U?$hashtableentry@PADPAUskeleton@skelmodel@@@@@@QAE@XZ 00467c34 f i rendermodel.obj
 0001:00066c6f       ??0?$hashtable@Uivec@@H@@QAE@H@Z 00467c6f f i rendermodel.obj
 0001:00066cd0       ?access@?$hashtable@Uivec@@H@@QAEPAHABUivec@@@Z 00467cd0 f i rendermodel.obj
 0001:00066d03       ??A?$hashtable@Uivec@@H@@QAEAAHABUivec@@@Z 00467d03 f i rendermodel.obj
 0001:00066d54       ??1?$hashset@U?$hashtableentry@Uivec@@H@@@@QAE@XZ 00467d54 f i rendermodel.obj
 0001:00066d70       ?add@?$vector@Utcvert@vertmodel@@@@QAEAAUtcvert@vertmodel@@XZ 00467d70 f i rendermodel.obj
 0001:00066d91       ?add@?$vector@Utri@vertmodel@@@@QAEAAUtri@vertmodel@@XZ 00467d91 f i rendermodel.obj
 0001:00066db4       ?add@?$vector@Umd5adjustment@@@@QAEAAUmd5adjustment@@ABU2@@Z 00467db4 f i rendermodel.obj
 0001:00066dfe       ?add@?$vector@Umd5joint@@@@QAEAAUmd5joint@@ABU2@@Z 00467dfe f i rendermodel.obj
 0001:00066e38       ?deletearrays@?$vector@PAD@@QAEXXZ 00467e38 f i rendermodel.obj
 0001:00066e52       ?add@?$vector@Usmdadjustment@@@@QAEAAUsmdadjustment@@ABU2@@Z 00467e52 f i rendermodel.obj
 0001:00066e9c       ??A?$hashtable@PBDUsmdmeshdata@smdmeshgroup@smd@@@@QAEAAUsmdmeshdata@smdmeshgroup@smd@@ABQBD@Z 00467e9c f i rendermodel.obj
 0001:00066eee       ??1?$hashset@U?$hashtableentry@PBDUsmdmeshdata@smdmeshgroup@smd@@@@@@QAE@XZ 00467eee f i rendermodel.obj
 0001:00066f54       ??1?$hashset@H@@QAE@XZ     00467f54 f i rendermodel.obj
 0001:00066f8a       ?add@?$vector@Uiqmadjustment@@@@QAEAAUiqmadjustment@@ABU2@@Z 00467f8a f i rendermodel.obj
 0001:00066fd4       ??0?$hashtable@PBDPAUmodel@@@@QAE@H@Z 00467fd4 f i rendermodel.obj
 0001:00067043       ?access@?$hashtable@PBDPAUmodel@@@@QAEPAPAUmodel@@ABQBD@Z 00468043 f i rendermodel.obj
 0001:0006707f       ?access@?$hashtable@PBDPAUmodel@@@@QAEAAPAUmodel@@ABQBDABQAU2@@Z 0046807f f i rendermodel.obj
 0001:000670d2       ??1?$hashset@U?$hashtableentry@PBDPAUmodel@@@@@@QAE@XZ 004680d2 f i rendermodel.obj
 0001:0006710d       ?add@?$vector@PAUmodelbatch@@@@QAEAAPAUmodelbatch@@ABQAU2@@Z 0046810d f i rendermodel.obj
 0001:00067153       ?growbuf@?$vector@Uvec@@@@QAEXH@Z 00468153 f i worldio.obj
 0001:00067153       ?growbuf@?$vector@Uaviindexentry@@@@QAEXH@Z 00468153 f i movie.obj
 0001:00067153       ?growbuf@?$vector@Uobstacle@avoidset@ai@@@@QAEXH@Z 00468153 f i ai.obj
 0001:00067153       ?growbuf@?$vector@Ueditline@@@@QAEXH@Z 00468153 f i 3dgui.obj
 0001:00067153       ?growbuf@?$vector@Ucubeface@@@@QAEXH@Z 00468153 f i octa.obj
 0001:00067153       ?growbuf@?$vector@Utri@ragdollskel@@@@QAEXH@Z 00468153 f i rendermodel.obj
 0001:00067153       ?growbuf@?$vector@Usoundslot@@@@QAEXH@Z 00468153 f i sound.obj
 0001:00067153       ?growbuf@?$vector@Uholdspawn@ctfservmode@server@@@@QAEXH@Z 00468153 f i server1.obj
 0001:00067153       ?growbuf@?$vector@Uskelanimspec@skelmodel@@@@QAEXH@Z 00468153 f i rendermodel.obj
 0001:000671a9       ?growbuf@?$vector@Ugui@@@@QAEXH@Z 004681a9 f i 3dgui.obj
 0001:000671a9       ?growbuf@?$vector@Urotlimit@ragdollskel@@@@QAEXH@Z 004681a9 f i rendermodel.obj
 0001:000671ff       ?growbuf@?$vector@Ujoint@ragdollskel@@@@QAEXH@Z 004681ff f i rendermodel.obj
 0001:00067255       ?growbuf@?$vector@Ulinkedpart@animmodel@@@@QAEXH@Z 00468255 f i rendermodel.obj
 0001:000672ab       ?growbuf@?$vector@Udistlimit@ragdollskel@@@@QAEXH@Z 004682ab f i rendermodel.obj
 0001:000672ab       ?growbuf@?$vector@Uanimspec@animmodel@@@@QAEXH@Z 004682ab f i rendermodel.obj
 0001:00067301       ?growbuf@?$vector@Utri@BIH@@@@QAEXH@Z 00468301 f i rendermodel.obj
 0001:00067357       ?growbuf@?$vector@Utcvert@vertmodel@@@@QAEXH@Z 00468357 f i rendermodel.obj
 0001:00067357       ?growbuf@?$vector@Uteamscore@@@@QAEXH@Z 00468357 f i client1.obj
 0001:00067357       ?growbuf@?$vector@Ucharinfo@font@@@@QAEXH@Z 00468357 f i rendertext.obj
 0001:00067357       ?growbuf@?$vector@Utag@skelmodel@@@@QAEXH@Z 00468357 f i rendermodel.obj
 0001:00067357       ?growbuf@?$vector@Ucrcinfo@server@@@@QAEXH@Z 00468357 f i server1.obj
 0001:000673af       ?deletechunks@?$hashset@U?$hashtableentry@Uivec@@H@@@@QAEXXZ 004683af f i rendermodel.obj
 0001:000673cf       ?growbuf@?$vector@Utri@vertmodel@@@@QAEXH@Z 004683cf f i rendermodel.obj
 0001:00067425       ?growbuf@?$vector@Umd5adjustment@@@@QAEXH@Z 00468425 f i rendermodel.obj
 0001:00067487       ?growbuf@?$vector@Umd5hierarchy@@@@QAEXH@Z 00468487 f i rendermodel.obj
 0001:000674e3       ?growbuf@?$vector@Usmdadjustment@@@@QAEXH@Z 004684e3 f i rendermodel.obj
 0001:00067545       ?growbuf@?$vector@Uiqmadjustment@@@@QAEXH@Z 00468545 f i rendermodel.obj
 0001:000675a7       ?growbuf@?$vector@Umapmodelinfo@@@@QAEXH@Z 004685a7 f i rendermodel.obj
 0001:0006760f       ?growbuf@?$vector@Ubatchedmodel@@@@QAEXH@Z 0046860f f i rendermodel.obj
 0001:00067665       ?growbuf@?$vector@PAUmodelbatch@@@@QAEXH@Z 00468665 f i rendermodel.obj
 0001:000676c9       ?growbuf@?$vector@Umodelattach@@@@QAEXH@Z 004686c9 f i rendermodel.obj
 0001:0006772b       ??1chain@?$hashset@U?$hashtableentry@PBDUsmdmeshdata@smdmeshgroup@smd@@@@@@QAE@XZ 0046872b f i rendermodel.obj
 0001:0006774f       ??1?$hashtableentry@PBDUsmdmeshdata@smdmeshgroup@smd@@@@QAE@XZ 0046874f f i rendermodel.obj
 0001:00067777       ??1smdmeshdata@smdmeshgroup@smd@@QAE@XZ 00468777 f i rendermodel.obj
 0001:000677cf       ?insert@?$hashset@U?$hashtableentry@PADPAUmeshgroup@animmodel@@@@@@QAEPAUchain@1@I@Z 004687cf f i rendermodel.obj
 0001:00067867       ?insert@?$hashset@U?$hashtableentry@PADPAUskeleton@skelmodel@@@@@@QAEPAUchain@1@I@Z 00468867 f i rendermodel.obj
 0001:000678ff       ?insert@?$hashset@U?$hashtableentry@Uvec@@H@@@@QAEPAUchain@1@I@Z 004688ff f i worldio.obj
 0001:000678ff       ?insert@?$hashset@U?$hashtableentry@Uivec@@H@@@@QAEPAUchain@1@I@Z 004688ff f i rendermodel.obj
 0001:00067980       ?insert@?$hashset@U?$hashtableentry@PBDUsmdmeshdata@smdmeshgroup@smd@@@@@@QAEPAUchain@1@I@Z 00468980 f i rendermodel.obj
 0001:00067a25       ?insert@?$hashset@U?$hashtableentry@PBDPAUmodel@@@@@@QAEPAUchain@1@I@Z 00468a25 f i rendermodel.obj
 0001:00067abd       ??0chain@?$hashset@U?$hashtableentry@PBDUsmdmeshdata@smdmeshgroup@smd@@@@@@QAE@XZ 00468abd f i rendermodel.obj
 0001:00067afd       ??$genvbo@Uvvertbump@vertmodel@@@vertmesh@vertmodel@@QAEHAAU?$vector@G@@HAAU?$vector@Uvvertbump@vertmodel@@@@PAHH@Z 00468afd f i rendermodel.obj
 0001:00067db4       ??$genvbo@Uvvert@vertmodel@@@vertmesh@vertmodel@@QAEHAAU?$vector@G@@HAAU?$vector@Uvvert@vertmodel@@@@PAHH@Z 00468db4 f i rendermodel.obj
 0001:00067ffd       ??$genvbo@Uvvertff@vertmodel@@@vertmesh@vertmodel@@QAEHAAU?$vector@G@@HAAU?$vector@Uvvertff@vertmodel@@@@PAHH@Z 00468ffd f i rendermodel.obj
 0001:00068222       ??$genvbo@Uvvertbumpw@skelmodel@@@skelmesh@skelmodel@@QAEHAAU?$vector@G@@HAAU?$vector@Uvvertbumpw@skelmodel@@@@@Z 00469222 f i rendermodel.obj
 0001:000683c4       ??$genvbo@Uvvertw@skelmodel@@@skelmesh@skelmodel@@QAEHAAU?$vector@G@@HAAU?$vector@Uvvertw@skelmodel@@@@@Z 004693c4 f i rendermodel.obj
 0001:0006852a       ??$genvbo@Uvvertbump@skelmodel@@@skelmesh@skelmodel@@QAEHAAU?$vector@G@@HAAU?$vector@Uvvertbump@skelmodel@@@@PAHH@Z 0046952a f i rendermodel.obj
 0001:000687e2       ??$genvbo@Uvvertn@skelmodel@@@skelmesh@skelmodel@@QAEHAAU?$vector@G@@HAAU?$vector@Uvvertn@skelmodel@@@@PAHH@Z 004697e2 f i rendermodel.obj
 0001:00068a21       ??$genvbo@Uvvert@skelmodel@@@skelmesh@skelmodel@@QAEHAAU?$vector@G@@HAAU?$vector@Uvvert@skelmodel@@@@PAHH@Z 00469a21 f i rendermodel.obj
 0001:00068c3f       ??$blendbones@Umatrix3x4@@@skelmeshgroup@skelmodel@@SAXAAUmatrix3x4@@PBU2@ABUblendcombo@1@@Z 00469c3f f i rendermodel.obj
 0001:00068cf9       ??$blendbones@Udualquat@@@skelmeshgroup@skelmodel@@SAXAAUdualquat@@PBU2@ABUblendcombo@1@@Z 00469cf9 f i rendermodel.obj
 0001:00068d8c       ??$interpverts@Umatrix3x4@@@skelmesh@skelmodel@@QAEXPIBUmatrix3x4@@0_N1PIAXAAUskin@animmodel@@@Z 00469d8c f i rendermodel.obj
 0001:00068f5c       ??$interpverts@Udualquat@@@skelmesh@skelmodel@@QAEXPIBUdualquat@@0_N1PIAXAAUskin@animmodel@@@Z 00469f5c f i rendermodel.obj
 0001:0006918b       ??$access@Usmdvertkey@smdmeshgroup@smd@@@?$hashset@H@@QAEAAHABUsmdvertkey@smdmeshgroup@smd@@ABH@Z 0046a18b f i rendermodel.obj
 0001:0006927b       ??$remove@PAD@?$hashset@U?$hashtableentry@PBDPAUmodel@@@@@@QAE_NABQAD@Z 0046a27b f i rendermodel.obj
 0001:000692ef       ?accumulate@matrix3x4@@QAEXABU1@M@Z 0046a2ef f i rendermodel.obj
 0001:00069384       ?feetpos@physent@@QBE?AUvec@@M@Z 0046a384 f i rendermodel.obj
 0001:000693bd       ??_Gmodel@@UAEPAXI@Z       0046a3bd f i rendermodel.obj
 0001:000693bd       ??_Emodel@@UAEPAXI@Z       0046a3bd f i  CIL library: CIL module
 0001:000693d9       ??0matrix3x3@@QAE@ABUquat@@@Z 0046a3d9 f i rendermodel.obj
 0001:000694ce       ?translate@dualquat@@QAEXABUvec@@@Z 0046a4ce f i rendermodel.obj
 0001:00069548       ?mulorient@dualquat@@QAEXABUquat@@@Z 0046a548 f i rendermodel.obj
 0001:000695a5       ??0dualquat@@QAE@ABUquat@@ABUvec@@@Z 0046a5a5 f i rendermodel.obj
 0001:00069627       ?restorew@quat@@QAEXXZ     0046a627 f i rendermodel.obj
 0001:0006966b       ??$convertmatrix@Umatrix3x4@@@quat@@QAEXABUmatrix3x4@@@Z 0046a66b f i rendermodel.obj
 0001:000697c6       ??0dualquat@@QAE@ABUmatrix3x4@@@Z 0046a7c6 f i rendermodel.obj
 0001:0006984d       ?transposemul@matrix3x4@@QAEXABUmatrix3x3@@ABUvec@@ABU1@@Z 0046a84d f i rendermodel.obj
 0001:000699cd       ?invert@dualquat@@QAEAAU1@XZ 0046a9cd f i rendermodel.obj
 0001:00069a61       ?mul@dualquat@@QAEXABU1@@Z 0046aa61 f i rendermodel.obj
 0001:00069a88       ?transform@dualquat@@QBE?AUvec@@ABU2@@Z 0046aa88 f i rendermodel.obj
 0001:00069b98       ?transposemul@matrix3x4@@QAEXABU1@0@Z 0046ab98 f i rendermodel.obj
 0001:00069d48       ?fixantipodal@dualquat@@QAEXABU1@@Z 0046ad48 f i rendermodel.obj
 0001:00069d87       ?mulorient@dualquat@@QAEXABUquat@@ABU1@@Z 0046ad87 f i rendermodel.obj
 0001:00069ecb       ?mul@quat@@QAEAAU1@ABU1@0@Z 0046aecb f i rendermodel.obj
 0001:00069f47       ?mul@dualquat@@QAEXABU1@0@Z 0046af47 f i rendermodel.obj
 0001:00069f7f       ?normalize@dualquat@@QAEXXZ 0046af7f f i rendermodel.obj
 0001:00069fda       ?gettranslation@dualquat@@QBE?AUvec@@XZ 0046afda f i rendermodel.obj
 0001:0006a074       ?mulorient@matrix3x4@@QAEXABUmatrix3x3@@@Z 0046b074 f i rendermodel.obj
 0001:0006a20a       ?rotate@matrix3x3@@QAEXMMABUvec@@@Z 0046b20a f i rendermodel.obj
 0001:0006a2c4       ??0matrix3x4@@QAE@ABUdualquat@@@Z 0046b2c4 f i rendermodel.obj
 0001:0006a46a       ?accumulate@dualquat@@QAEXABU1@M@Z 0046b46a f i rendermodel.obj
 0001:0006a4f4       ?mul@quat@@QAEAAU1@M@Z     0046b4f4 f i rendermodel.obj
 0001:0006a50c       ?mul@dualquat@@QAEAAU1@M@Z 0046b50c f i rendermodel.obj
 0001:0006a530       ??0glmatrixf@@QAE@ABUmatrix3x4@@@Z 0046b530 f i rendermodel.obj
 0001:0006a587       ?lerp@vec4@@QAEAAU1@ABU1@0M@Z 0046b587 f i rendermodel.obj
 0001:0006a5c4       ?lerp@matrix3x4@@QAEXABU1@0M@Z 0046b5c4 f i rendermodel.obj
 0001:0006a606       ?transformnormal@matrix3x4@@QBE?AUvec@@ABU2@@Z 0046b606 f i rendermodel.obj
 0001:0006a64d       ?mul@matrix3x4@@QAEXABU1@0@Z 0046b64d f i rendermodel.obj
 0001:0006a7c5       ?lerp@vec@@QAEAAU1@ABU1@M@Z 0046b7c5 f i rendermodel.obj
 0001:0006a7f4       ?transform@matrix3x4@@QBE?AUvec@@ABU2@@Z 0046b7f4 f i rendermodel.obj
 0001:0006a844       ?rotate_around_y@matrix3x4@@QAEXM@Z 0046b844 f i rendermodel.obj
 0001:0006a8c4       ?rotate_around_z@matrix3x4@@QAEXM@Z 0046b8c4 f i rendermodel.obj
 0001:0006a944       ??1model@@UAE@XZ           0046b944 f i rendermodel.obj
 0001:0006a987       ?preloadBIH@model@@UAEXXZ  0046b987 f i rendermodel.obj
 0001:0006a993       ?rotate_around_z@glmatrixf@@QAEXM@Z 0046b993 f i rendermodel.obj
 0001:0006aa39       ?invertnormal@glmatrixf@@QBEXAAUvec@@@Z 0046ba39 f i rendermodel.obj
 0001:0006aa96       ?rotate@glmatrixf@@QAEXMMABUvec@@@Z 0046ba96 f i rendermodel.obj
 0001:0006ac28       ??9animinfo@@QBE_NABU0@@Z  0046bc28 f i rendermodel.obj
 0001:0006ac6c       ?transformedtranslate@matrix3x4@@QAEXABUvec@@M@Z 0046bc6c f i rendermodel.obj
 0001:0006accb       ?scale@matrix3x4@@QAEXM@Z  0046bccb f i rendermodel.obj
 0001:0006acfd       ?setvariant_@Shader@@QAEXHHPAU1@@Z 0046bcfd f i rendermodel.obj
 0001:0006ad50       ?setvariant@Shader@@QAEXHH@Z 0046bd50 f i rendermodel.obj
 0001:0006ad78       ?max@vec@@QAEAAU1@M@Z      0046bd78 f i rendermodel.obj
 0001:0006adc2       ?reflect@vec@@QAEAAU1@ABU1@@Z 0046bdc2 f i rendermodel.obj
 0001:0006ae0b       ?multranspose@matrix3x3@@QAEXABU1@0@Z 0046be0b f i rendermodel.obj
 0001:0006af25       ?calcangleaxis@matrix3x3@@QAE_NAAMAAUvec@@M@Z 0046bf25 f i rendermodel.obj
 0001:0006b0ec       ?mul@matrix3x3@@QAEXABU1@0@Z 0046c0ec f i rendermodel.obj
 0001:0006b272       ?transposemul@matrix3x3@@QAEXABU1@0@Z 0046c272 f i rendermodel.obj
 0001:0006b3f8       ?add@vec4@@QAEAAU1@ABU1@@Z 0046c3f8 f i rendermodel.obj
 0001:0006b41a       ?mul@vec4@@QAEAAU1@M@Z     0046c41a f i rendermodel.obj
 0001:0006b43f       ?mul@matrix3x4@@QAEXABUmatrix3x3@@ABUvec@@ABU1@@Z 0046c43f f i rendermodel.obj
 0001:0006b5bf       ?transform@matrix3x3@@QBE?AUvec@@ABU2@@Z 0046c5bf f i rendermodel.obj
 0001:0006b606       ?addblurtiles@rendertarget@@QAE_NMMMMM@Z 0046c606 f i renderparticles.obj
 0001:0006b7d3       ?debugscissor@rendertarget@@QAEXHH_N@Z 0046c7d3 f i renderparticles.obj
 0001:0006b8f8       ?debugblurtiles@rendertarget@@QAEXHH_N@Z 0046c8f8 f i renderparticles.obj
 0001:0006bb25       ?finalize@particleemitter@@QAEXXZ 0046cb25 f i renderparticles.obj
 0001:0006bc53       ?extendbb@particleemitter@@QAEXABUvec@@M@Z 0046cc53 f i renderparticles.obj
 0001:0006bced       ?extendbb@particleemitter@@QAEXMM@Z 0046cced f i renderparticles.obj
 0001:0006bd29       ?clearparticleemitters@@YAXXZ 0046cd29 f   renderparticles.obj
 0001:0006bd41       ?addparticleemitters@@YAXXZ 0046cd41 f   renderparticles.obj
 0001:0006be4e       ??1partrenderer@@UAE@XZ    0046ce4e f i renderparticles.obj
 0001:0006be55       ?seedemitter@partrenderer@@UAEXAAUparticleemitter@@ABUvec@@1HMH@Z 0046ce55 f i renderparticles.obj
 0001:0006be58       ?calc@partrenderer@@QAEXPAUparticle@@AAH1AAUvec@@2_N@Z 0046ce58 f i renderparticles.obj
 0001:0006c058       ??_Epartrenderer@@UAEPAXI@Z 0046d058 f i  CIL library: CIL module
 0001:0006c058       ??_Gpartrenderer@@UAEPAXI@Z 0046d058 f i renderparticles.obj
 0001:0006c075       ??0listrenderer@@QAE@PBDHHH@Z 0046d075 f i renderparticles.obj
 0001:0006c0bd       ??0listrenderer@@QAE@HH@Z  0046d0bd f i renderparticles.obj
 0001:0006c0ff       ??1listrenderer@@UAE@XZ    0046d0ff f i renderparticles.obj
 0001:0006c129       ?setspec@model@@UAEXM@Z    0046d129 f i rendermodel.obj
 0001:0006c129       ?getteamscores@servmode@server@@UAEXAAU?$vector@Uteamscore@@@@@Z 0046d129 f i server1.obj
 0001:0006c129       ?checkitems@clientmode@game@@UAEXPAUfpsent@@@Z 0046d129 f i client1.obj
 0001:0006c129       ?process@gameevent@server@@UAEXPAUclientinfo@2@@Z 0046d129 f i server1.obj
 0001:0006c129       ?reset@servmode@server@@UAEX_N@Z 0046d129 f i server1.obj
 0001:0006c129       ?respawned@clientmode@game@@UAEXPAUfpsent@@@Z 0046d129 f i client1.obj
 0001:0006c129       ?resettracked@partrenderer@@UAEXPAUphysent@@@Z 0046d129 f i renderparticles.obj
 0001:0006c129       ?cleanup@listrenderer@@UAEXPAUlistparticle@@@Z 0046d129 f i renderparticles.obj
 0001:0006c129       ?setcullface@model@@UAEX_N@Z 0046d129 f i rendermodel.obj
 0001:0006c129       ?setglow@model@@UAEXM@Z    0046d129 f i rendermodel.obj
 0001:0006c129       ?init@partrenderer@@UAEXH@Z 0046d129 f i renderparticles.obj
 0001:0006c129       ?spawned@servmode@server@@UAEXPAUclientinfo@2@@Z 0046d129 f i server1.obj
 0001:0006c129       ?setambient@model@@UAEXM@Z 0046d129 f i rendermodel.obj
 0001:0006c129       ?removeplayer@clientmode@game@@UAEXPAUfpsent@@@Z 0046d129 f i client1.obj
 0001:0006c129       ?senditems@clientmode@game@@UAEXAAUpacketbuf@@@Z 0046d129 f i client1.obj
 0001:0006c129       ?respawned@captureclientmode@game@@UAEXPAUfpsent@@@Z 0046d129 f i client1.obj
 0001:0006c129       ?getteamscores@clientmode@game@@UAEXAAU?$vector@Uteamscore@@@@@Z 0046d129 f i client1.obj
 0001:0006c129       ?pushlist@g3d_gui@@UAEXH@Z 0046d129 f i 3dgui.obj
 0001:0006c129       ?setalphatest@model@@UAEXM@Z 0046d129 f i rendermodel.obj
 0001:0006c129       ?setfullbright@model@@UAEXM@Z 0046d129 f i rendermodel.obj
 0001:0006c129       ?entergame@servmode@server@@UAEXPAUclientinfo@2@@Z 0046d129 f i server1.obj
 0001:0006c129       ?setshader@model@@UAEXPAUShader@@@Z 0046d129 f i rendermodel.obj
 0001:0006c129       ?setalphablend@model@@UAEX_N@Z 0046d129 f i rendermodel.obj
 0001:0006c12c       ?reset@listrenderer@@UAEXXZ 0046d12c f i renderparticles.obj
 0001:0006c161       ?resettracked@listrenderer@@UAEXPAUphysent@@@Z 0046d161 f i renderparticles.obj
 0001:0006c1a3       ?addpart@listrenderer@@UAEPAUparticle@@ABUvec@@0HHMH@Z 0046d1a3 f i renderparticles.obj
 0001:0006c26d       ?count@listrenderer@@UAEHXZ 0046d26d f i renderparticles.obj
 0001:0006c27d       ?haswork@listrenderer@@UAE_NXZ 0046d27d f i renderparticles.obj
 0001:0006c286       ?render@listrenderer@@UAEXXZ 0046d286 f i renderparticles.obj
 0001:0006c34a       ??_Glistrenderer@@UAEPAXI@Z 0046d34a f i renderparticles.obj
 0001:0006c34a       ??_Elistrenderer@@UAEPAXI@Z 0046d34a f i  CIL library: CIL module
 0001:0006c366       ??0meterrenderer@@QAE@H@Z  0046d366 f i renderparticles.obj
 0001:0006c399       ?startrender@meterrenderer@@UAEXXZ 0046d399 f i renderparticles.obj
 0001:0006c3b9       ?endrender@meterrenderer@@UAEXXZ 0046d3b9 f i renderparticles.obj
 0001:0006c3d9       ?renderpart@meterrenderer@@UAEXPAUlistparticle@@ABUvec@@1HHPAE@Z 0046d3d9 f i renderparticles.obj
 0001:0006c7e2       ?cleanup@textrenderer@@UAEXPAUlistparticle@@@Z 0046d7e2 f i renderparticles.obj
 0001:0006c7fd       ?renderpart@textrenderer@@UAEXPAUlistparticle@@ABUvec@@1HHPAE@Z 0046d7fd f i renderparticles.obj
 0001:0006c93c       ??$genpos@$00@@YAXABUvec@@0MHHPAUpartvert@@@Z 0046d93c f i renderparticles.obj
 0001:0006ca46       ??$genpos@$01@@YAXABUvec@@0MHHPAUpartvert@@@Z 0046da46 f i renderparticles.obj
 0001:0006cab4       ??$genrotpos@$0A@@@YAXABUvec@@0MHHPAUpartvert@@H@Z 0046dab4 f i renderparticles.obj
 0001:0006cc64       ?var_depthfxrect@@YAXXZ    0046dc64 f   renderparticles.obj
 0001:0006cc64       ?var_fpdepthfx@@YAXXZ      0046dc64 f   renderparticles.obj
 0001:0006cc64       ?var_depthfxsize@@YAXXZ    0046dc64 f   renderparticles.obj
 0001:0006cc64       ?var_depthfxfilter@@YAXXZ  0046dc64 f   renderparticles.obj
 0001:0006cc64       ?var_depthfxprecision@@YAXXZ 0046dc64 f   renderparticles.obj
 0001:0006cc69       ?colorformats@depthfxtexture@@UBEPBIXZ 0046dc69 f i renderparticles.obj
 0001:0006ccc7       ?addscissorvert@depthfxtexture@@QAEXABUvec@@AAM111@Z 0046dcc7 f i renderparticles.obj
 0001:0006cd9d       ?addscissorbox@depthfxtexture@@QAE_NABUvec@@M@Z 0046dd9d f i renderparticles.obj
 0001:0006cdf3       ?addscissorbox@depthfxtexture@@QAE_NABUvec@@0@Z 0046ddf3 f i renderparticles.obj
 0001:0006cea2       ?screenview@depthfxtexture@@UBE_NXZ 0046dea2 f i renderparticles.obj
 0001:0006ceae       ?texrect@depthfxtexture@@UBE_NXZ 0046deae f i renderparticles.obj
 0001:0006cec2       ?filter@depthfxtexture@@UBE_NXZ 0046dec2 f i renderparticles.obj
 0001:0006cece       ?highprecision@depthfxtexture@@QBE_NXZ 0046dece f i renderparticles.obj
 0001:0006ceed       ?shouldrender@depthfxtexture@@UAE_NXZ 0046deed f i renderparticles.obj
 0001:0006cf36       ?dorender@depthfxtexture@@UAE_NXZ 0046df36 f i renderparticles.obj
 0001:0006cfe9       ?dodebug@depthfxtexture@@UAEXHH@Z 0046dfe9 f i renderparticles.obj
 0001:0006d05c       ?cleanupdepthfx@@YAXXZ     0046e05c f   renderparticles.obj
 0001:0006d069       ?binddepthfxtex@@YA_NXZ    0046e069 f   renderparticles.obj
 0001:0006d145       ?binddepthfxparams@@YAXMM_NPAX@Z 0046e145 f   renderparticles.obj
 0001:0006d2e2       ?drawdepthfxtex@@YAXXZ     0046e2e2 f   renderparticles.obj
 0001:0006e4c8       ??0fireballrenderer@@QAE@PBD@Z 0046f4c8 f i renderparticles.obj
 0001:0006e502       ?startrender@fireballrenderer@@UAEXXZ 0046f502 f i renderparticles.obj
 0001:0006e507       ?endrender@fireballrenderer@@UAEXXZ 0046f507 f i renderparticles.obj
 0001:0006e516       ?cleanup@fireballrenderer@@UAEXXZ 0046f516 f i renderparticles.obj
 0001:0006e51b       ?finddepthfxranges@fireballrenderer@@QAEHPAPAXPAMHHAAUvec@@2@Z 0046f51b f i renderparticles.obj
 0001:0006e80b       ?seedemitter@fireballrenderer@@UAEXAAUparticleemitter@@ABUvec@@1HMH@Z 0046f80b f i renderparticles.obj
 0001:0006e84a       ?renderpart@fireballrenderer@@UAEXPAUlistparticle@@ABUvec@@1HHPAE@Z 0046f84a f i renderparticles.obj
 0001:0006ecb6       ??_Gmeterrenderer@@UAEPAXI@Z 0046fcb6 f i renderparticles.obj
 0001:0006ecb6       ??_Efireballrenderer@@UAEPAXI@Z 0046fcb6 f i  CIL library: CIL module
 0001:0006ecb6       ??_Elightningrenderer@@UAEPAXI@Z 0046fcb6 f i  CIL library: CIL module
 0001:0006ecb6       ??_Glightningrenderer@@UAEPAXI@Z 0046fcb6 f i renderparticles.obj
 0001:0006ecb6       ??_Etextrenderer@@UAEPAXI@Z 0046fcb6 f i  CIL library: CIL module
 0001:0006ecb6       ??_Emeterrenderer@@UAEPAXI@Z 0046fcb6 f i  CIL library: CIL module
 0001:0006ecb6       ??_Gtextrenderer@@UAEPAXI@Z 0046fcb6 f i renderparticles.obj
 0001:0006ecb6       ??_Gfireballrenderer@@UAEPAXI@Z 0046fcb6 f i renderparticles.obj
 0001:0006ecd3       ??1fireballrenderer@@UAE@XZ 0046fcd3 f i renderparticles.obj
 0001:0006ecd3       ??1textrenderer@@UAE@XZ    0046fcd3 f i renderparticles.obj
 0001:0006ecd3       ??1lightningrenderer@@UAE@XZ 0046fcd3 f i renderparticles.obj
 0001:0006ecd3       ??1meterrenderer@@UAE@XZ   0046fcd3 f i renderparticles.obj
 0001:0006ecf7       ??0flarerenderer@@QAE@PBDH@Z 0046fcf7 f i renderparticles.obj
 0001:0006ed9b       ?reset@flarerenderer@@UAEXXZ 0046fd9b f i renderparticles.obj
 0001:0006eda0       ?newflare@flarerenderer@@QAEXAAUvec@@ABU2@EEEMM_N2@Z 0046fda0 f i renderparticles.obj
 0001:0006ee36       ?addflare@flarerenderer@@QAEXAAUvec@@EEE_N1@Z 0046fe36 f i renderparticles.obj
 0001:0006efa1       ?makelightflares@flarerenderer@@QAEXXZ 0046ffa1 f i renderparticles.obj
 0001:0006f1aa       ?count@flarerenderer@@UAEHXZ 004701aa f i renderparticles.obj
 0001:0006f1ae       ?haswork@flarerenderer@@UAE_NXZ 004701ae f i renderparticles.obj
 0001:0006f1cf       ?render@flarerenderer@@UAEXXZ 004701cf f i renderparticles.obj
 0001:0006f526       ?addpart@flarerenderer@@UAEPAUparticle@@ABUvec@@0HHMH@Z 00470526 f i renderparticles.obj
 0001:0006f52b       ??_E?$varenderer@$01@@UAEPAXI@Z 0047052b f i  CIL library: CIL module
 0001:0006f52b       ??_G?$varenderer@$00@@UAEPAXI@Z 0047052b f i renderparticles.obj
 0001:0006f52b       ??_Gflarerenderer@@UAEPAXI@Z 0047052b f i renderparticles.obj
 0001:0006f52b       ??_G?$varenderer@$01@@UAEPAXI@Z 0047052b f i renderparticles.obj
 0001:0006f52b       ??_Eflarerenderer@@UAEPAXI@Z 0047052b f i  CIL library: CIL module
 0001:0006f52b       ??_G?$varenderer@$0A@@@UAEPAXI@Z 0047052b f i renderparticles.obj
 0001:0006f52b       ??_E?$varenderer@$00@@UAEPAXI@Z 0047052b f i  CIL library: CIL module
 0001:0006f52b       ??_E?$varenderer@$0A@@@UAEPAXI@Z 0047052b f i  CIL library: CIL module
 0001:0006f9d3       ?startrender@lightningrenderer@@UAEXXZ 004709d3 f i renderparticles.obj
 0001:0006f9df       ?endrender@lightningrenderer@@UAEXXZ 004709df f i renderparticles.obj
 0001:0006f9eb       ?update@lightningrenderer@@UAEXXZ 004709eb f i renderparticles.obj
 0001:0006fa2f       ?seedemitter@lightningrenderer@@UAEXAAUparticleemitter@@ABUvec@@1HMH@Z 00470a2f f i renderparticles.obj
 0001:0006fa6b       ?renderpart@lightningrenderer@@UAEXPAUlistparticle@@ABUvec@@1HHPAE@Z 00470a6b f i renderparticles.obj
 0001:0006faee       ?finddepthfxranges@@YAXXZ  00470aee f   renderparticles.obj
 0001:0006fbf1       ?var_maxparticles@@YAXXZ   00470bf1 f   renderparticles.obj
 0001:0006fbf1       ?var_fewparticles@@YAXXZ   00470bf1 f   renderparticles.obj
 0001:0006fbf6       ?particleinit@@YAXXZ       00470bf6 f   renderparticles.obj
 0001:0006fc64       ?removetrackedparticles@@YAXPAUphysent@@@Z 00470c64 f   renderparticles.obj
 0001:0006fc82       ?renderparticles@@YAX_N@Z  00470c82 f   renderparticles.obj
 0001:00070472       ?canaddparticles@@YA_NXZ   00471472 f   renderparticles.obj
 0001:00070486       ?regular_particle_splash@@YAXHHHABUvec@@HMHHH@Z 00471486 f   renderparticles.obj
 0001:000704b8       ?particle_splash@@YAXHHHABUvec@@HMHH@Z 004714b8 f   renderparticles.obj
 0001:000704ee       ?particle_trail@@YAXHHABUvec@@0HMH@Z 004714ee f   renderparticles.obj
 0001:00070615       ?particle_text@@YAXABUvec@@PBDHHHMH@Z 00471615 f   renderparticles.obj
 0001:00070687       ?particle_textcopy@@YAXABUvec@@PBDHHHMH@Z 00471687 f   renderparticles.obj
 0001:0007070a       ?particle_icon@@YAXABUvec@@HHHHHMH@Z 0047170a f   renderparticles.obj
 0001:00070760       ?particle_meter@@YAXABUvec@@MHHHHM@Z 00471760 f   renderparticles.obj
 0001:000707d8       ?particle_flare@@YAXABUvec@@0HHHMPAUphysent@@@Z 004717d8 f   renderparticles.obj
 0001:00070809       ?particle_fireball@@YAXABUvec@@MHHHM@Z 00471809 f   renderparticles.obj
 0001:000708c1       ?regularshape@@YAXHHHHHHABUvec@@MH@Z 004718c1 f   renderparticles.obj
 0001:00071400       ?printparticles@@YA_NAAUextentity@@PAD@Z 00472400 f   renderparticles.obj
 0001:000714ae       ?seedparticles@@YAXXZ      004724ae f   renderparticles.obj
 0001:00071561       ?updateparticles@@YAXXZ    00472561 f   renderparticles.obj
 0001:000717db       ??0?$varenderer@$0A@@@QAE@PBDHH@Z 004727db f i renderparticles.obj
 0001:0007186c       ?reset@?$varenderer@$0A@@@UAEXXZ 0047286c f i renderparticles.obj
 0001:0007186c       ?reset@?$varenderer@$00@@UAEXXZ 0047286c f i renderparticles.obj
 0001:0007186c       ?reset@?$varenderer@$01@@UAEXXZ 0047286c f i renderparticles.obj
 0001:00071875       ?haswork@?$varenderer@$0A@@@UAE_NXZ 00472875 f i renderparticles.obj
 0001:00071875       ?haswork@?$varenderer@$00@@UAE_NXZ 00472875 f i renderparticles.obj
 0001:00071875       ?haswork@?$varenderer@$01@@UAE_NXZ 00472875 f i renderparticles.obj
 0001:0007187e       ?seedemitter@?$varenderer@$0A@@@UAEXAAUparticleemitter@@ABUvec@@1HMH@Z 0047287e f i renderparticles.obj
 0001:0007199a       ?update@?$varenderer@$0A@@@UAEXXZ 0047299a f i renderparticles.obj
 0001:00071a2d       ?init@?$varenderer@$0A@@@UAEXH@Z 00472a2d f i renderparticles.obj
 0001:00071a2d       ?init@?$varenderer@$00@@UAEXH@Z 00472a2d f i renderparticles.obj
 0001:00071a2d       ?init@?$varenderer@$01@@UAEXH@Z 00472a2d f i renderparticles.obj
 0001:00071acd       ?count@?$varenderer@$0A@@@UAEHXZ 00472acd f i renderparticles.obj
 0001:00071acd       ?count@?$varenderer@$01@@UAEHXZ 00472acd f i renderparticles.obj
 0001:00071acd       ?count@?$varenderer@$00@@UAEHXZ 00472acd f i renderparticles.obj
 0001:00071ad1       ?seedemitter@?$varenderer@$01@@UAEXAAUparticleemitter@@ABUvec@@1HMH@Z 00472ad1 f i renderparticles.obj
 0001:00071c28       ?update@?$varenderer@$01@@UAEXXZ 00472c28 f i renderparticles.obj
 0001:00071cbb       ?resettracked@?$varenderer@$01@@UAEXPAUphysent@@@Z 00472cbb f i renderparticles.obj
 0001:00071cbb       ?resettracked@?$varenderer@$0A@@@UAEXPAUphysent@@@Z 00472cbb f i renderparticles.obj
 0001:00071cbb       ?resettracked@?$varenderer@$00@@UAEXPAUphysent@@@Z 00472cbb f i renderparticles.obj
 0001:00071cf7       ?addpart@?$varenderer@$0A@@@UAEPAUparticle@@ABUvec@@0HHMH@Z 00472cf7 f i renderparticles.obj
 0001:00071cf7       ?addpart@?$varenderer@$00@@UAEPAUparticle@@ABUvec@@0HHMH@Z 00472cf7 f i renderparticles.obj
 0001:00071cf7       ?addpart@?$varenderer@$01@@UAEPAUparticle@@ABUvec@@0HHMH@Z 00472cf7 f i renderparticles.obj
 0001:00071db3       ?seedemitter@?$varenderer@$00@@UAEXAAUparticleemitter@@ABUvec@@1HMH@Z 00472db3 f i renderparticles.obj
 0001:00071ec5       ?update@?$varenderer@$00@@UAEXXZ 00472ec5 f i renderparticles.obj
 0001:00071f58       ?render@?$varenderer@$01@@UAEXXZ 00472f58 f i renderparticles.obj
 0001:00071f58       ?render@?$varenderer@$00@@UAEXXZ 00472f58 f i renderparticles.obj
 0001:00071f58       ?render@?$varenderer@$0A@@@UAEXXZ 00472f58 f i renderparticles.obj
 0001:00071fd5       ?genverts@?$varenderer@$0A@@@QAEXPAUparticle@@PAUpartvert@@_N@Z 00472fd5 f i renderparticles.obj
 0001:00072242       ?genverts@?$varenderer@$01@@QAEXPAUparticle@@PAUpartvert@@_N@Z 00473242 f i renderparticles.obj
 0001:0007249b       ?genverts@?$varenderer@$00@@QAEXPAUparticle@@PAUpartvert@@_N@Z 0047349b f i renderparticles.obj
 0001:0007289a       ?loadsky@@YAXPBDQAPAUTexture@@@Z 0047389a f   rendersky.obj
 0001:0007295f       ?loadskyoverlay@@YAPAUTexture@@PBD@Z 0047395f f   rendersky.obj
 0001:00072a00       ?var_skybox@@YAXXZ         00473a00 f   rendersky.obj
 0001:00072a17       ?var_cloudbox@@YAXXZ       00473a17 f   rendersky.obj
 0001:00072a2e       ?var_cloudlayer@@YAXXZ     00473a2e f   rendersky.obj
 0001:00072a43       ?draw_envbox_face@@YAXMMHHHMMHHHMMHHHMMHHHI@Z 00473a43 f   rendersky.obj
 0001:00072b23       ?draw_envbox@@YAXHMMHPAPAUTexture@@@Z 00473b23 f   rendersky.obj
 0001:00072e0b       ?draw_env_overlay@@YAXHPAUTexture@@MM@Z 00473e0b f   rendersky.obj
 0001:00073094       ??0domevert@@QAE@ABUvec@@ABUbvec@@M@Z 00474094 f i rendersky.obj
 0001:000730c8       ??0domevert@@QAE@ABU0@0@Z  004740c8 f i rendersky.obj
 0001:0007395e       ?var_fogdomecolour@@YAXXZ  0047495e f   rendersky.obj
 0001:00073ba9       ?drawskylimits@@YA_N_N@Z   00474ba9 f   rendersky.obj
 0001:00073bf2       ?drawskyoutline@@YAXXZ     00474bf2 f   rendersky.obj
 0001:00073ec1       ?drawskybox@@YAXH_N@Z      00474ec1 f   rendersky.obj
 0001:000746e1       ?limitsky@@YA_NXZ          004756e1 f   rendersky.obj
 0001:0007478a       ?newfont@@YAXPAD0PAH11111@Z 0047578a f   rendertext.obj
 0001:00074820       ?fontoffset@@YAXPAD@Z      00475820 f   rendertext.obj
 0001:00074834       ?fontchar@@YAXPAH000@Z     00475834 f   rendertext.obj
 0001:0007489d       ?setfont@@YA_NPBD@Z        0047589d f   rendertext.obj
 0001:000748b7       ?gettextres@@YAXAAH0@Z     004758b7 f   rendertext.obj
 0001:000748f5       ?text_width@@YAHPBD@Z      004758f5 f   rendertext.obj
 0001:00074914       ?tabify@@YAXPBDPAH@Z       00475914 f   rendertext.obj
 0001:000749d3       ?draw_textf@@YAXPBDHHZZ    004759d3 f   rendertext.obj
 0001:00074c6d       ?text_visible@@YAHPBDHHH@Z 00475c6d f   rendertext.obj
 0001:00074e2e       ?text_pos@@YAXPBDHAAH1H@Z  00475e2e f   rendertext.obj
 0001:00074fdc       ?text_bounds@@YAXPBDAAH1H@Z 00475fdc f   rendertext.obj
 0001:0007513b       ?draw_text@@YAXPBDHHHHHHHH@Z 0047613b f   rendertext.obj
 0001:0007545e       ?reloadfonts@@YAXXZ        0047645e f   rendertext.obj
 0001:000754a1       ??0?$hashtable@PBDUfont@@@@QAE@H@Z 004764a1 f i rendertext.obj
 0001:00075510       ?access@?$hashtable@PBDUfont@@@@QAEPAUfont@@ABQBD@Z 00476510 f i rendertext.obj
 0001:0007555a       ??A?$hashtable@PBDUfont@@@@QAEAAUfont@@ABQBD@Z 0047655a f i rendertext.obj
 0001:000755b1       ??1?$hashset@U?$hashtableentry@PBDUfont@@@@@@QAE@XZ 004765b1 f i rendertext.obj
 0001:0007561a       ?growbuf@?$vector@PAUfont@@@@QAEXH@Z 0047661a f i rendertext.obj
 0001:0007567e       ??1chain@?$hashset@U?$hashtableentry@PBDUfont@@@@@@QAE@XZ 0047667e f i rendertext.obj
 0001:000756a2       ??1?$hashtableentry@PBDUfont@@@@QAE@XZ 004766a2 f i rendertext.obj
 0001:000756ca       ??1font@@QAE@XZ            004766ca f i rendertext.obj
 0001:00075702       ?insert@?$hashset@U?$hashtableentry@PBDUfont@@@@@@QAEPAUchain@1@I@Z 00476702 f i rendertext.obj
 0001:000757be       ??0chain@?$hashset@U?$hashtableentry@PBDUfont@@@@@@QAE@XZ 004767be f i rendertext.obj
 0001:0007585a       ?isfoggedsphere@@YA_NMABUvec@@@Z 0047685a f   renderva.obj
 0001:000758e0       ?isvisiblesphere@@YAHMABUvec@@@Z 004768e0 f   renderva.obj
 0001:00075a63       ?isvisiblecube@@YAHABUivec@@H@Z 00476a63 f   renderva.obj
 0001:00075b19       ?findvisiblevas@@YAXAAU?$vector@PAUvtxarray@@@@_N@Z 00476b19 f   renderva.obj
 0001:00075c45       ?calcvfcD@@YAXXZ           00476c45 f   renderva.obj
 0001:00075c9c       ?setvfcP@@YAXMABUvec@@0@Z  00476c9c f   renderva.obj
 0001:00075f20       ?savevfcP@@YAXXZ           00476f20 f   renderva.obj
 0001:00075f35       ?restorevfcP@@YAXXZ        00476f35 f   renderva.obj
 0001:00075f4e       ?visiblecubes@@YAX_N@Z     00476f4e f   renderva.obj
 0001:00076107       ?newquery@@YAPAUoccludequery@@PAX@Z 00477107 f   renderva.obj
 0001:0007615c       ?checkquery@@YA_NPAUoccludequery@@_N@Z 0047715c f   renderva.obj
 0001:000761b1       ?drawbb@@YAXABUivec@@0ABUvec@@@Z 004771b1 f   renderva.obj
 0001:0007631c       ?findvisiblemms@@YAXABU?$vector@PAUextentity@@@@@Z 0047731c f   renderva.obj
 0001:000764a9       ?rendermapmodel@@YAXAAUextentity@@@Z 004774a9 f   renderva.obj
 0001:0007652a       ?renderreflectedmapmodels@@YAXXZ 0047752a f   renderva.obj
 0001:00076671       ?rendermapmodels@@YAXXZ    00477671 f   renderva.obj
 0001:000769d4       ?bboccluded@@YA_NABUivec@@0@Z 004779d4 f   renderva.obj
 0001:00076b92       ?renderoutline@@YAXXZ      00477b92 f   renderva.obj
 0001:00076d9f       ?renderblendbrush@@YAXIMMMM@Z 00477d9f f   renderva.obj
 0001:0007702b       ?rendershadowmapreceivers@@YAXXZ 0047802b f   renderva.obj
 0001:000771dc       ?renderdepthobstacles@@YAXABUvec@@0MPAMH@Z 004781dc f   renderva.obj
 0001:00077479       ??0renderstate@@QAE@XZ     00478479 f i renderva.obj
 0001:00077523       ?renderquery@@YAXAAUrenderstate@@PAUoccludequery@@PAUvtxarray@@_N@Z 00478523 f   renderva.obj
 0001:000775de       ??0geombatch@@QAE@ABUelementset@@PAGPAUvtxarray@@@Z 004785de f i renderva.obj
 0001:0007760b       ?compare@geombatch@@QBEHABU1@@Z 0047860b f i renderva.obj
 0001:000792bc       ?renderzpass@@YAXAAUrenderstate@@PAUvtxarray@@@Z 0047a2bc f   renderva.obj
 0001:00079456       ?renderfoggedvas@@YAXAAUrenderstate@@_N@Z 0047a456 f   renderva.obj
 0001:0007953c       ?rendershadowmappass@@YAXAAUrenderstate@@PAUvtxarray@@@Z 0047a53c f   renderva.obj
 0001:000795c2       ?renderva@@YAXAAUrenderstate@@PAUvtxarray@@H_N2@Z 0047a5c2 f   renderva.obj
 0001:00079a2e       ?loadcaustics@@YAX_N@Z     0047aa2e f   renderva.obj
 0001:00079ab7       ?cleanupva@@YAXXZ          0047aab7 f   renderva.obj
 0001:00079b45       ?var_caustics@@YAXXZ       0047ab45 f   renderva.obj
 0001:00079b4e       ?setupcaustics@@YAXHMPAM@Z 0047ab4e f   renderva.obj
 0001:00079d68       ?setupTMUs@@YAXAAUrenderstate@@M_N@Z 0047ad68 f   renderva.obj
 0001:0007a098       ?cleanupTMUs@@YAXAAUrenderstate@@M_N@Z 0047b098 f   renderva.obj
 0001:0007a56d       ?rendergeom@@YAXM_N@Z      0047b56d f   renderva.obj
 0001:0007b3df       ?renderalphageom@@YAX_N@Z  0047c3df f   renderva.obj
 0001:0007b9e1       ?findreflectedvas@@YAXAAU?$vector@PAUvtxarray@@@@H@Z 0047c9e1 f   renderva.obj
 0001:0007baed       ?renderskyva@@YAXPAUvtxarray@@_N@Z 0047caed f   renderva.obj
 0001:0007bbe1       ?renderreflectedskyvas@@YAXAAU?$vector@PAUvtxarray@@@@H@Z 0047cbe1 f   renderva.obj
 0001:0007bc90       ?rendersky@@YA_N_N@Z       0047cc90 f   renderva.obj
 0001:0007bd61       ?add@?$vector@Ugeombatch@@@@QAEAAUgeombatch@@ABU2@@Z 0047cd61 f i renderva.obj
 0001:0007bdab       ?growbuf@?$vector@Ugeombatch@@@@QAEXH@Z 0047cdab f i renderva.obj
 0001:0007be0d       ?setvariant@Shader@@QAEXHHAAUSlot@@AAUVSlot@@@Z 0047ce0d f i renderva.obj
 0001:0007be44       ?setvariant@Shader@@QAEXHHAAUSlot@@AAUVSlot@@PAU1@@Z 0047ce44 f i renderva.obj
 0001:0007be7c       ?normalize@plane@@QAEAAU1@XZ 0047ce7c f i renderva.obj
 0001:0007bea6       ??0GlobalShaderParamState@@QAE@XZ 0047cea6 f i shader.obj
 0001:0007becf       ?loadshaders@@YAXXZ        0047cecf f   shader.obj
 0001:0007c11d       ?lookupshaderbyname@@YAPAUShader@@PBD@Z 0047d11d f   shader.obj
 0001:0007c765       ?checkglslsupport@@YA_NXZ  0047d765 f   shader.obj
 0001:0007cc03       ?allocenvparams@Shader@@QAEXPAUSlot@@@Z 0047dc03 f   shader.obj
 0001:0007d0e5       ?setenvparamf@@YAXPBDHHMMMM@Z 0047e0e5 f   shader.obj
 0001:0007d124       ?setlocalparamf@@YAXPBDHHMMMM@Z 0047e124 f   shader.obj
 0001:0007d163       ?setlocalparamfv@@YAXPBDHHPBM@Z 0047e163 f   shader.obj
 0001:0007d186       ?flushenvparams@Shader@@QAEXPAUSlot@@@Z 0047e186 f   shader.obj
 0001:0007d4d3       ?setslotparams@Shader@@QAEXAAUSlot@@AAUVSlot@@@Z 0047e4d3 f   shader.obj
 0001:0007d501       ?bindprograms@Shader@@QAEXXZ 0047e501 f   shader.obj
 0001:0007d55a       ?var_shaders@@YAXXZ        0047e55a f   shader.obj
 0001:0007d55a       ?var_forceglsl@@YAXXZ      0047e55a f   shader.obj
 0001:0007d571       ?var_shaderprecision@@YAXXZ 0047e571 f   shader.obj
 0001:0007d588       ?compile@Shader@@QAE_NXZ   0047e588 f   shader.obj
 0001:0007d764       ?cleanup@Shader@@QAEX_N@Z  0047e764 f   shader.obj
 0001:0007db90       ?newshader@@YAPAUShader@@HPBD00PAU1@H@Z 0047eb90 f   shader.obj
 0001:0007e02e       ?genemufog@@YAXAAU?$vector@D@@0HH@Z 0047f02e f   shader.obj
 0001:0007f76b       ?defershader@@YAXPAHPBD1@Z 0048076b f   shader.obj
 0001:0007f80f       ?useshader@@YAXPAUShader@@@Z 0048080f f   shader.obj
 0001:0007f8bd       ?fixshaderdetail@@YAXXZ    004808bd f   shader.obj
 0001:0007f93a       ?uniformlocversion@Shader@@SAHXZ 0048093a f   shader.obj
 0001:0007f9b5       ?var_nativeshaders@@YAXXZ  004809b5 f   shader.obj
 0001:0007f9b5       ?var_shaderdetail@@YAXXZ   004809b5 f   shader.obj
 0001:0007f9ba       ?fixdetailshader@Shader@@QAEX_N0@Z 004809ba f   shader.obj
 0001:0007fa6d       ?useshaderbyname@@YAPAUShader@@PBD@Z 00480a6d f   shader.obj
 0001:0007fa9b       ?shader@@YAXPAHPAD11@Z     00480a9b f   shader.obj
 0001:0007fe45       ?variantshader@@YAXPAHPAD011@Z 00480e45 f   shader.obj
 0001:00080188       ?setshader@@YAXPAD@Z       00481188 f   shader.obj
 0001:000801c9       ?findshaderparam@@YAPAUShaderParam@@AAUSlot@@PBDHH@Z 004811c9 f   shader.obj
 0001:0008026b       ?findshaderparam@@YAPAUShaderParam@@AAUVSlot@@PBDHH@Z 0048126b f   shader.obj
 0001:00080393       ?linkslotshader@@YAXAAUSlot@@_N@Z 00481393 f   shader.obj
 0001:000803c7       ?linkvslotshader@@YAXAAUVSlot@@_N@Z 004813c7 f   shader.obj
 0001:00080510       ?altshader@@YAXPAD0@Z      00481510 f   shader.obj
 0001:0008053f       ?fastshader@@YAXPAD0PAH@Z  0048153f f   shader.obj
 0001:0008058b       ?run@?$_icmd_forceshader@$0GOG@@@SAXPBD@Z 0048158b f   shader.obj
 0001:00080590       ?isshaderdefined@@YAXPAD@Z 00481590 f   shader.obj
 0001:000805a9       ?isshadernative@@YAXPAD@Z  004815a9 f   shader.obj
 0001:000805cf       ?getshaderparamname@@YAPBDPBD@Z 004815cf f   shader.obj
 0001:00080646       ?addshaderparam@@YAXPBDHHMMMM@Z 00481646 f   shader.obj
 0001:00080718       ?run@?$_icmd_setvertexparam@$0HBK@@@SAXPAHPAM111@Z 00481718 f   shader.obj
 0001:000807cc       ?run@?$_icmd_setpixelparam@$0HBL@@@SAXPAHPAM111@Z 004817cc f   shader.obj
 0001:00080808       ?run@?$_icmd_setshaderparam@$0HBN@@@SAXPADPAM111@Z 00481808 f   shader.obj
 0001:000808ca       ?run@?$_icmd_defvertexparam@$0HBO@@@SAXPADPAHPAM222@Z 004818ca f   shader.obj
 0001:000809b5       ?run@?$_icmd_defpixelparam@$0HBP@@@SAXPADPAHPAM222@Z 004819b5 f   shader.obj
 0001:000809fb       ?run@?$_icmd_setuniformparam@$0HBM@@@SAXPADPAM111@Z 004819fb f   shader.obj
 0001:000809fb       ?run@?$_icmd_defuniformparam@$0HCA@@@SAXPADPAM111@Z 004819fb f   shader.obj
 0001:00080bf3       ?cleanuppostfx@@YAX_N@Z    00481bf3 f   shader.obj
 0001:00080c5c       ?renderpostfx@@YAXXZ       00481c5c f   shader.obj
 0001:00081139       ?clearpostfx@@YAXXZ        00482139 f   shader.obj
 0001:00081150       ?run@?$_icmd_addpostfx@$0HNK@@@SAXPADPAH10PAM222@Z 00482150 f   shader.obj
 0001:0008120b       ?run@?$_icmd_setpostfx@$0HOA@@@SAXPADPAM111@Z 0048220b f   shader.obj
 0001:00081253       ?parsetmufunc@@YAXAAUtmu@@AAUtmufunc@@PBD@Z 00482253 f   shader.obj
 0001:0008142b       ?resettmu@@YAXH@Z          0048242b f   shader.obj
 0001:00081494       ?colortmu@@YAXHMMMM@Z      00482494 f   shader.obj
 0001:00081528       ?committmufunc@@YAXI_NAAUtmufunc@@1@Z 00482528 f   shader.obj
 0001:0008164a       ?setuptmu@@YAXHPBD0@Z      0048264a f   shader.obj
 0001:00081718       ?inittmus@@YAXXZ           00482718 f   shader.obj
 0001:000817d0       ?cleanupshaders@@YAXXZ     004827d0 f   shader.obj
 0001:0008191d       ?reloadshaders@@YAXXZ      0048291d f   shader.obj
 0001:00081a91       ?setupblurkernel@@YAXHMPAM0@Z 00482a91 f   shader.obj
 0001:00081ba4       ?setblurshader@@YAXHHHPAM0I@Z 00482ba4 f   shader.obj
 0001:00081d0c       ?add@?$vector@ULocalShaderParamState@@@@QAEAAULocalShaderParamState@@ABU2@@Z 00482d0c f i shader.obj
 0001:00081d46       ?add@?$vector@UUniformLoc@@@@QAEAAUUniformLoc@@ABU2@@Z 00482d46 f i shader.obj
 0001:00081d80       ??0?$hashtable@PBDUShader@@@@QAE@H@Z 00482d80 f i shader.obj
 0001:00081def       ?access@?$hashtable@PBDUShader@@@@QAEPAUShader@@ABQBD@Z 00482def f i shader.obj
 0001:00081e3c       ??A?$hashtable@PBDUShader@@@@QAEAAUShader@@ABQBD@Z 00482e3c f i shader.obj
 0001:00081e96       ??1?$hashset@U?$hashtableentry@PBDUShader@@@@@@QAE@XZ 00482e96 f i shader.obj
 0001:00081f02       ?insert@?$vector@D@@QAEPADHPBDH@Z 00482f02 f i shader.obj
 0001:00081f7a       ?add@?$vector@Upostfxpass@@@@QAEAAUpostfxpass@@XZ 00482f7a f i shader.obj
 0001:00081fe4       ?growbuf@?$vector@ULocalShaderParamState@@@@QAEXH@Z 00482fe4 f i shader.obj
 0001:0008203a       ?growbuf@?$vector@UUniformLoc@@@@QAEXH@Z 0048303a f i shader.obj
 0001:00082090       ?growbuf@?$vector@Upostfxpass@@@@QAEXH@Z 00483090 f i shader.obj
 0001:000820f2       ??1chain@?$hashset@U?$hashtableentry@PBDUShader@@@@@@QAE@XZ 004830f2 f i shader.obj
 0001:00082116       ??1?$hashtableentry@PBDUShader@@@@QAE@XZ 00483116 f i shader.obj
 0001:0008213e       ?insert@?$hashset@U?$hashtableentry@PBDUShader@@@@@@QAEPAUchain@1@I@Z 0048313e f i shader.obj
 0001:00082205       ??0chain@?$hashset@U?$hashtableentry@PBDUShader@@@@@@QAE@XZ 00483205 f i shader.obj
 0001:0008222c       ??0?$hashtableentry@PBDUShader@@@@QAE@XZ 0048322c f i shader.obj
 0001:00082258       ??$remove@PAD@?$hashset@U?$hashtableentry@PBDUShader@@@@@@QAE_NABQAD@Z 00483258 f i shader.obj
 0001:000822f1       ??$?APBD@?$hashset@PBD@@QAEAAPBDABQBD@Z 004832f1 f i shader.obj
 0001:00082341       ?insert@?$hashset@PBD@@QAEPAUchain@1@I@Z 00483341 f i shader.obj
 0001:000823b9       ??0Shader@@QAE@XZ          004833b9 f i shader.obj
 0001:00082498       ??1Shader@@QAE@XZ          00483498 f i shader.obj
 0001:000825a7       ??0LocalShaderParamState@@QAE@XZ 004835a7 f i shader.obj
 0001:000825c5       ?checkblurtiles@rendertarget@@QAE_NMMMMM@Z 004835c5 f i shadowmap.obj
 0001:00082710       ?var_shadowmapsize@@YAXXZ  00483710 f   shadowmap.obj
 0001:00082710       ?var_shadowmapprecision@@YAXXZ 00483710 f   shadowmap.obj
 0001:00082710       ?var_fpshadowmap@@YAXXZ    00483710 f   shadowmap.obj
 0001:0008271d       ?var_shadowmapambient@@YAXXZ 0048371d f   shadowmap.obj
 0001:00082762       ?var_shadowmapangle@@YAXXZ 00483762 f   shadowmap.obj
 0001:000827a5       ?guessshadowdir@@YAXXZ     004837a5 f   shadowmap.obj
 0001:000828d0       ?attachment@shadowmaptexture@@UBEIXZ 004838d0 f i shadowmap.obj
 0001:000828e2       ?colorformats@shadowmaptexture@@UBEPBIXZ 004838e2 f i shadowmap.obj
 0001:00082926       ?shadowcompare@shadowmaptexture@@UBE_NXZ 00483926 f i shadowmap.obj
 0001:00082932       ?filter@shadowmaptexture@@UBE_NXZ 00483932 f i shadowmap.obj
 0001:00082948       ?swaptexs@shadowmaptexture@@UBE_NXZ 00483948 f i shadowmap.obj
 0001:00082954       ?scissorblur@shadowmaptexture@@UAE_NAAH000@Z 00483954 f i shadowmap.obj
 0001:00082a5e       ?scissorrender@shadowmaptexture@@UAE_NAAH000@Z 00483a5e f i shadowmap.obj
 0001:00082a8a       ?doclear@shadowmaptexture@@UAEXXZ 00483a8a f i shadowmap.obj
 0001:00082b1b       ?dorender@shadowmaptexture@@UAE_NXZ 00483b1b f i shadowmap.obj
 0001:00083132       ?dodebug@shadowmaptexture@@UAEXHH@Z 00484132 f i shadowmap.obj
 0001:000835cc       ?calcshadowmapbb@@YAXABUvec@@MMAAM111@Z 004845cc f   shadowmap.obj
 0001:0008373f       ?addshadowmapcaster@@YA_NABUvec@@MM@Z 0048473f f   shadowmap.obj
 0001:00083808       ?isshadowmapreceiver@@YA_NPAUvtxarray@@@Z 00484808 f   shadowmap.obj
 0001:00083946       ?isshadowmapcaster@@YA_NABUvec@@M@Z 00484946 f   shadowmap.obj
 0001:00083a1c       ?pushshadowmap@@YAXXZ      00484a1c f   shadowmap.obj
 0001:00083db7       ?popshadowmap@@YAXXZ       00484db7 f   shadowmap.obj
 0001:00083df4       ?rendershadowmap@@YAXXZ    00484df4 f   shadowmap.obj
 0001:00083e64       ??$transform@Uvec@@@glmatrixf@@QBEXABUvec@@AAUvec4@@@Z 00484e64 f i shadowmap.obj
 0001:00083f00       ?projective@glmatrixf@@QAEXMM@Z 00484f00 f i shadowmap.obj
 0001:000854f7       ?texreorient@@YAXAAUImageData@@_N11H@Z 004864f7 f   texture.obj
 0001:00085587       ?texrotate@@YAXAAUImageData@@HH@Z 00486587 f   texture.obj
 0001:000855cf       ?texoffset@@YAXAAUImageData@@HH@Z 004865cf f   texture.obj
 0001:000856b2       ?texmad@@YAXAAUImageData@@ABUvec@@1@Z 004866b2 f   texture.obj
 0001:0008578f       ?texcolorify@@YAXAAUImageData@@ABUvec@@U2@@Z 0048678f f   texture.obj
 0001:00085890       ?texffmask@@YAXAAUImageData@@MM@Z 00486890 f   texture.obj
 0001:000859be       ?texdup@@YAXAAUImageData@@HH@Z 004869be f   texture.obj
 0001:00085a14       ?texdecal@@YAXAAUImageData@@@Z 00486a14 f   texture.obj
 0001:00085ac5       ?texmix@@YAXAAUImageData@@HHHH@Z 00486ac5 f   texture.obj
 0001:00085bcf       ?texgrey@@YAXAAUImageData@@@Z 00486bcf f   texture.obj
 0001:00085cc2       ?var_texcompress@@YAXXZ    00486cc2 f   texture.obj
 0001:00085cc2       ?var_texreduce@@YAXXZ      00486cc2 f   texture.obj
 0001:00085cc2       ?var_maxtexsize@@YAXXZ     00486cc2 f   texture.obj
 0001:00085cc2       ?var_reducefilter@@YAXXZ   00486cc2 f   texture.obj
 0001:00085cc2       ?var_usenp2@@YAXXZ         00486cc2 f   texture.obj
 0001:00085cd9       ?var_texcompressquality@@YAXXZ 00486cd9 f   texture.obj
 0001:00085cde       ?setuptexcompress@@YAXXZ   00486cde f   texture.obj
 0001:00085d10       ?compressedformat@@YAIIHHH@Z 00486d10 f   texture.obj
 0001:00085d62       ?formatsize@@YAHI@Z        00486d62 f   texture.obj
 0001:00085d85       ?var_bilinear@@YAXXZ       00486d85 f   texture.obj
 0001:00085d85       ?var_trilinear@@YAXXZ      00486d85 f   texture.obj
 0001:00085d85       ?var_aniso@@YAXXZ          00486d85 f   texture.obj
 0001:00085d85       ?var_hwmipmap@@YAXXZ       00486d85 f   texture.obj
 0001:00085d9c       ?resizetexture@@YAXHH_N0IHAAH1@Z 00486d9c f   texture.obj
 0001:00085ec9       ?uploadtexture@@YAXIIHHIIPAXHHH_N@Z 00486ec9 f   texture.obj
 0001:000861bd       ?uploadcompressedtexture@@YAXIIHHPAEHHH_N@Z 004871bd f   texture.obj
 0001:000862af       ?uncompressedformat@@YAII@Z 004872af f   texture.obj
 0001:000862e1       ?setuptexparameters@@YAXHPAXHHII@Z 004872e1 f   texture.obj
 0001:00086436       ?createtexture@@YAXHHHPAXHHIIHHH_N@Z 00487436 f   texture.obj
 0001:000865e7       ?createcompressedtexture@@YAXHHHPAEHHHHHII@Z 004875e7 f   texture.obj
 0001:00086674       ?texalign@@YAHPAXHH@Z      00487674 f   texture.obj
 0001:000868d0       ?wrapsurface@@YAPAUSDL_Surface@@PAXHHH@Z 004878d0 f   texture.obj
 0001:00086924       ?creatergbsurface@@YAPAUSDL_Surface@@PAU1@@Z 00487924 f   texture.obj
 0001:00086967       ?creatergbasurface@@YAPAUSDL_Surface@@PAU1@@Z 00487967 f   texture.obj
 0001:000869b6       ?checkgrayscale@@YA_NPAUSDL_Surface@@@Z 004879b6 f   texture.obj
 0001:000869fd       ?fixsurfaceformat@@YAPAUSDL_Surface@@PAU1@@Z 004879fd f   texture.obj
 0001:00086aac       ?texflip@@YAXAAUImageData@@@Z 00487aac f   texture.obj
 0001:00086b32       ?texnormal@@YAXAAUImageData@@H@Z 00487b32 f   texture.obj
 0001:00086c9a       ?scaleimage@@YAXAAUImageData@@HH@Z 00487c9a f   texture.obj
 0001:00086d06       ?forcergbimage@@YAXAAUImageData@@@Z 00487d06 f   texture.obj
 0001:00086dc3       ?loadsurface@@YAPAUSDL_Surface@@PBD@Z 00487dc3 f   texture.obj
 0001:0008767e       ?loadalphamask@@YAXPAUTexture@@@Z 0048867e f   texture.obj
 0001:0008777b       ?textureload@@YAPAUTexture@@PBDH_N1@Z 0048877b f   texture.obj
 0001:0008785d       ?themereload@@YAXXZ        0048885d f   texture.obj
 0001:000878fa       ?var_theme@@YAXXZ          004888fa f   texture.obj
 0001:000878ff       ?settexture@@YA_NPBDH@Z    004888ff f   texture.obj
 0001:00087937       ??1MSlot@@QAE@XZ           00488937 f i texture.obj
 0001:0008796c       ?texturereset@@YAXPAH@Z    0048896c f   texture.obj
 0001:000879ef       ?materialreset@@YAXXZ      004889ef f   texture.obj
 0001:00087a24       ?clearslots@@YAXXZ         00488a24 f   texture.obj
 0001:00087b13       ?compactvslots@@YAXPAUcube@@H@Z 00488b13 f   texture.obj
 0001:00087bea       ?compactvslots@@YAHXZ      00488bea f   texture.obj
 0001:00087e4d       ?run@?$_icmd_compactvslots@$0EJO@@@SAXXZ 00488e4d f   texture.obj
 0001:00088377       ?editvslot@@YAPAUVSlot@@ABU1@0@Z 00489377 f   texture.obj
 0001:000884d5       ?run@?$_icmd_fixinsidefaces@$0FHC@@@SAXPAH@Z 004894d5 f   texture.obj
 0001:00088547       ?texture@@YAXPAD0PAH11PAM@Z 00489547 f   texture.obj
 0001:000887dc       ?autograss@@YAXPAD@Z       004897dc f   texture.obj
 0001:00088836       ?texscroll@@YAXPAM0@Z      00489836 f   texture.obj
 0001:00088879       ?texoffset_@@YAXPAH0@Z     00489879 f   texture.obj
 0001:000888be       ?texrotate_@@YAXPAH@Z      004898be f   texture.obj
 0001:000888f9       ?texscale@@YAXPAM@Z        004898f9 f   texture.obj
 0001:00088935       ?texlayer@@YAXPAHPAD0PAM@Z 00489935 f   texture.obj
 0001:000889cc       ?texalpha@@YAXPAM0@Z       004899cc f   texture.obj
 0001:00088a41       ?texcolor@@YAXPAM00@Z      00489a41 f   texture.obj
 0001:00088aee       ?texffenv@@YAXPAH@Z        00489aee f   texture.obj
 0001:0008a3f3       ?lookupmaterialslot@@YAAAUMSlot@@H_N@Z 0048b3f3 f   texture.obj
 0001:0008a42b       ?lookupvslot@@YAAAUVSlot@@H_N@Z 0048b42b f   texture.obj
 0001:0008a48f       ?linkslotshaders@@YAXXZ    0048b48f f   texture.obj
 0001:0008a519       ?loadthumbnail@@YAPAUTexture@@AAUSlot@@@Z 0048b519 f   texture.obj
 0001:0008aa14       ?loadlayermasks@@YAXXZ     0048ba14 f   texture.obj
 0001:0008aab9       ?forcecubemapload@@YAXI@Z  0048bab9 f   texture.obj
 0001:0008ac2f       ?var_envmapsize@@YAXXZ     0048bc2f f   texture.obj
 0001:0008ac36       ?cubemaploadwildcard@@YAPAUTexture@@PAU1@PBD_N22@Z 0048bc36 f   texture.obj
 0001:0008b15c       ?cubemapload@@YAPAUTexture@@PBD_N11@Z 0048c15c f   texture.obj
 0001:0008b26f       ?clearenvmaps@@YAXXZ       0048c26f f   texture.obj
 0001:0008b2c8       ?genenvmap@@YAIABUvec@@H@Z 0048c2c8 f   texture.obj
 0001:0008b4b8       ?initenvmaps@@YAXXZ        0048c4b8 f   texture.obj
 0001:0008b5c5       ?genenvmaps@@YAXXZ         0048c5c5 f   texture.obj
 0001:0008b690       ?closestenvmap@@YAGABUvec@@@Z 0048c690 f   texture.obj
 0001:0008b707       ?closestenvmap@@YAGHHHHH@Z 0048c707 f   texture.obj
 0001:0008b774       ?lookupenvmap@@YAIAAUSlot@@@Z 0048c774 f   texture.obj
 0001:0008b7b3       ?lookupenvmap@@YAIG@Z      0048c7b3 f   texture.obj
 0001:0008b7f7       ?cleanuptexture@@YAXPAUTexture@@@Z 0048c7f7 f   texture.obj
 0001:0008b832       ?cleanuptextures@@YAXXZ    0048c832 f   texture.obj
 0001:0008b8c8       ?reloadtexture@@YA_NPBD@Z  0048c8c8 f   texture.obj
 0001:0008b8f3       ?reloadtexture@@YA_NAAUTexture@@@Z 0048c8f3 f   texture.obj
 0001:0008b9d6       ?reloadtex@@YAXPAD@Z       0048c9d6 f   texture.obj
 0001:0008ba7c       ?reloadtextures@@YAXXZ     0048ca7c f   texture.obj
 0001:0008bad0       ?loaddds@@YA_NPBDAAUImageData@@@Z 0048cad0 f   texture.obj
 0001:0008bc35       ?gendds@@YAXPAD0@Z         0048cc35 f   texture.obj
 0001:0008bfae       ?writepngchunk@@YAXPAUstream@@PBDPAEI@Z 0048cfae f   texture.obj
 0001:0008c00c       ?savepng@@YAXPBDAAUImageData@@_N@Z 0048d00c f   texture.obj
 0001:0008c2f8       ?savetga@@YAXPBDAAUImageData@@_N@Z 0048d2f8 f   texture.obj
 0001:0008c55c       ?guessimageformat@@YAHPBDH@Z 0048d55c f   texture.obj
 0001:0008c5a8       ?saveimage@@YAXPBDHAAUImageData@@_N@Z 0048d5a8 f   texture.obj
 0001:0008c688       ?loadimage@@YA_NPBDAAUImageData@@@Z 0048d688 f   texture.obj
 0001:0008c6b1       ?screenshot@@YAXPAD@Z      0048d6b1 f   texture.obj
 0001:0008c872       ?flipnormalmapy@@YAXPAD0@Z 0048d872 f   texture.obj
 0001:0008c981       ?mergenormalmaps@@YAXPAD0@Z 0048d981 f   texture.obj
 0001:0008cbc4       ?add@?$vector@PAUSlot@@@@QAEAAPAUSlot@@ABQAU2@@Z 0048dbc4 f i texture.obj
 0001:0008cc0a       ??0?$hashtable@PADUTexture@@@@QAE@H@Z 0048dc0a f i texture.obj
 0001:0008cc79       ?access@?$hashtable@PADUTexture@@@@QAEPAUTexture@@ABQAD@Z 0048dc79 f i texture.obj
 0001:0008ccc4       ??A?$hashtable@PADUTexture@@@@QAEAAUTexture@@ABQAD@Z 0048dcc4 f i texture.obj
 0001:0008cd1c       ??1?$hashset@U?$hashtableentry@PADUTexture@@@@@@QAE@XZ 0048dd1c f i texture.obj
 0001:0008cd57       ?growbuf@?$vector@PAUSlot@@@@QAEXH@Z 0048dd57 f i texture.obj
 0001:0008cdbb       ?growbuf@?$vector@Uenvmap@@@@QAEXH@Z 0048ddbb f i texture.obj
 0001:0008ce1d       ?insert@?$hashset@U?$hashtableentry@PADUTexture@@@@@@QAEPAUchain@1@I@Z 0048de1d f i texture.obj
 0001:0008cecc       ??$remove@PAD@?$hashset@U?$hashtableentry@PADUTexture@@@@@@QAE_NABQAD@Z 0048decc f i texture.obj
 0001:0008cf54       ??$putbig@I@stream@@QAE_NI@Z 0048df54 f i texture.obj
 0001:0008cf77       ??$endianswap@I@@YAII@Z    0048df77 f i texture.obj
 0001:0008cf9b       ?cleanup@Slot@@QAEXXZ      0048df9b f i texture.obj
 0001:0008cfcf       ?reset@Slot@@QAEXXZ        0048dfcf f i texture.obj
 0001:0008d03c       ??0Slot@@QAE@H@Z           0048e03c f i texture.obj
 0001:0008d090       ??1Slot@@QAE@XZ            0048e090 f i texture.obj
 0001:0008d0d6       ??0MSlot@@QAE@XZ           0048e0d6 f i texture.obj
 0001:0008d111       ?wrap@ImageData@@QAEXPAUSDL_Surface@@@Z 0048e111 f i texture.obj
 0001:0008d142       ?calclevelsize@ImageData@@QBEHH@Z 0048e142 f i texture.obj
 0001:0008d17d       ?replace@ImageData@@QAEXAAU1@@Z 0048e17d f i texture.obj
 0001:0008d1ad       ?var_waterrefract@@YAXXZ   0048e1ad f   water.obj
 0001:0008d1ad       ?var_waterenvmap@@YAXXZ    0048e1ad f   water.obj
 0001:0008d1ad       ?var_waterfallrefract@@YAXXZ 0048e1ad f   water.obj
 0001:0008d1ad       ?var_waterfade@@YAXXZ      0048e1ad f   water.obj
 0001:0008d1ad       ?var_waterreflect@@YAXXZ   0048e1ad f   water.obj
 0001:0008db09       ?rendervertwater@@YAXIHHHIE@Z 0048eb09 f   water.obj
 0001:0008e609       ?calcwatersubdiv@@YAIHHHI@Z 0048f609 f   water.obj
 0001:0008e71c       ?renderwaterlod@@YAIHHHIE@Z 0048f71c f   water.obj
 0001:0008e8b0       ?renderflatwater@@YAXHHHIIE@Z 0048f8b0 f   water.obj
 0001:0008f03a       ?renderlava@@YAXABUmaterialsurface@@PAUTexture@@M@Z 0049003a f   water.obj
 0001:0008f0d6       ??0Reflection@@QAE@XZ      004900d6 f i water.obj
 0001:0008f116       ?var_watercolour@@YAXXZ    00490116 f   water.obj
 0001:0008f151       ?var_waterfallcolour@@YAXXZ 00490151 f   water.obj
 0001:0008f17e       ?var_lavacolour@@YAXXZ     0049017e f   water.obj
 0001:0008f1b9       ?setprojtexmatrix@@YAXAAUReflection@@_N@Z 004901b9 f   water.obj
 0001:0008f1fa       ?setuprefractTMUs@@YAXXZ   004901fa f   water.obj
 0001:0008f28b       ?setupreflectTMUs@@YAXXZ   0049028b f   water.obj
 0001:0008f2fa       ?cleanupwaterTMUs@@YAX_N@Z 004902fa f   water.obj
 0001:0008f374       ??1Reflection@@QAE@XZ      00490374 f i water.obj
 0001:0008f39a       ?renderwaterff@@YAXXZ      0049039a f   water.obj
 0001:0008f94e       ?preloadwatershaders@@YAX_N@Z 0049094e f   water.obj
 0001:0008fa70       ?renderwater@@YAXXZ        00490a70 f   water.obj
 0001:0009047b       ?setupwaterfallrefract@@YAXII@Z 0049147b f   water.obj
 0001:000904cf       ?cleanreflection@@YAXAAUReflection@@@Z 004914cf f   water.obj
 0001:00090509       ?cleanreflections@@YAXXZ   00491509 f   water.obj
 0001:00090565       ?var_reflectsize@@YAXXZ    00491565 f   water.obj
 0001:0009056a       ?genwatertex@@YAXAAI00_N@Z 0049156a f   water.obj
 0001:0009088c       ?addwaterfallrefraction@@YAXAAUmaterialsurface@@@Z 0049188c f   water.obj
 0001:000908df       ?addreflection@@YAXAAUmaterialsurface@@@Z 004918df f   water.obj
 0001:000909e7       ?queryreflection@@YAXAAUReflection@@_N@Z 004919e7 f   water.obj
 0001:00090b5d       ?queryreflections@@YAXXZ   00491b5d f   water.obj
 0001:00090e41       ?maskreflection@@YAXAAUReflection@@M_N1@Z 00491e41 f   water.obj
 0001:000916aa       ?drawreflections@@YAXXZ    004926aa f   water.obj
 0001:00091eed       ?exchangestr@@YAPADPADPBD@Z 00492eed f   command.obj
 0001:00091f0c       ?clear_command@@YAXXZ      00492f0c f   command.obj
 0001:00091fbc       ?clearoverride@@YAXAAUident@@@Z 00492fbc f   command.obj
 0001:00092032       ?pushident@@YAXAAUident@@PAD@Z 00493032 f   command.obj
 0001:00092073       ?popident@@YAXAAUident@@@Z 00493073 f   command.obj
 0001:000920a4       ?newident@@YAPAUident@@PBD@Z 004930a4 f   command.obj
 0001:0009213d       ?push@@YAXPAD0@Z           0049313d f   command.obj
 0001:00092167       ?pop@@YAXPAD@Z             00493167 f   command.obj
 0001:00092180       ?resetvar@@YAXPAD@Z        00493180 f   command.obj
 0001:000921b2       ?aliasa@@YAXPBDPAD@Z       004931b2 f   command.obj
 0001:000922b9       ?alias@@YAXPBD0@Z          004932b9 f   command.obj
 0001:000922d9       ?variable@@YAHPBDHHHPAHP6AXXZH@Z 004932d9 f   command.obj
 0001:00092383       ?fvariable@@YAMPBDMMMPAMP6AXXZH@Z 00493383 f   command.obj
 0001:00092438       ?svariable@@YAPADPBD0PAPADP6AXXZH@Z 00493438 f   command.obj
 0001:000924e3       ?setvar@@YAXPBDH_N1@Z      004934e3 f   command.obj
 0001:0009257a       ?setfvar@@YAXPBDM_N1@Z     0049357a f   command.obj
 0001:0009260d       ?setsvar@@YAXPBD0_N@Z      0049360d f   command.obj
 0001:000926a8       ?identexists@@YA_NPBD@Z    004936a8 f   command.obj
 0001:000926ba       ?getalias@@YAPBDPBD@Z      004936ba f   command.obj
 0001:000926d9       ?setvarchecked@@YAXPAUident@@H@Z 004936d9 f   command.obj
 0001:000927c7       ?setfvarchecked@@YAXPAUident@@M@Z 004937c7 f   command.obj
 0001:000928d3       ?setsvarchecked@@YAXPAUident@@PBD@Z 004938d3 f   command.obj
 0001:00092996       ?addcommand@@YA_NPBDP6AXXZ0@Z 00493996 f   command.obj
 0001:00092a2d       ?addident@@YAXPBDPAUident@@@Z 00493a2d f   command.obj
 0001:00092a7f       ?parsemacro@@YAXAAPBDHAAU?$vector@D@@@Z 00493a7f f   command.obj
 0001:00092ba7       ?parsestring@@YAPBDPBD@Z   00493ba7 f   command.obj
 0001:00092bcb       ?escapestring@@YAHPADPBD1@Z 00493bcb f   command.obj
 0001:00092c0e       ?parseexp@@YAPADAAPBDH@Z   00493c0e f   command.obj
 0001:00092e38       ?lookup@@YAPADPAD@Z        00493e38 f   command.obj
 0001:00092eb0       ?parseword@@YAPADAAPBDHAAH@Z 00493eb0 f   command.obj
 0001:00092fb7       ?conc@@YAPADPAPADH_N@Z     00493fb7 f   command.obj
 0001:00093069       ?executeret@@YAPADPBD@Z    00494069 f   command.obj
 0001:00093731       ?execute@@YAHPBD@Z         00494731 f   command.obj
 0001:00093765       ?execfile@@YA_NPBD_N@Z     00494765 f   command.obj
 0001:000937ec       ?writeescapedstring@@YAXPAUstream@@PBD@Z 004947ec f   command.obj
 0001:00093855       ?writecfg@@YAXPBD@Z        00494855 f   command.obj
 0001:00093aae       ?intstr@@YAPBDH@Z          00494aae f   command.obj
 0001:00093af7       ?intret@@YAXH@Z            00494af7 f   command.obj
 0001:00093b19       ?floatstr@@YAPBDM@Z        00494b19 f   command.obj
 0001:00093b8a       ?floatret@@YAXM@Z          00494b8a f   command.obj
 0001:00093bb0       ?run@?$_stdcmd@$0DDH@@@SAXPAD00@Z 00494bb0 f   command.obj
 0001:00093bec       ?run@?$_stdcmd@$0DDI@@@SAXPAD00@Z 00494bec f   command.obj
 0001:00093c23       ?run@?$_stdcmd@$0DEF@@@SAXPADPAH0@Z 00494c23 f   command.obj
 0001:00093c8a       ?run@?$_stdcmd@$0DFD@@@SAXPADPAH00@Z 00494c8a f   command.obj
 0001:00093cff       ?run@?$_stdcmd@$0DFE@@@SAXPAD0@Z 00494cff f   command.obj
 0001:00093d23       ?concat@@YAXPBD@Z          00494d23 f   command.obj
 0001:00093d23       ?result@@YAXPBD@Z          00494d23 f   command.obj
 0001:00093d3d       ?concatword@@YAXPAPADPAH@Z 00494d3d f   command.obj
 0001:00093d58       ?format@@YAXPAPADPAH@Z     00494d58 f   command.obj
 0001:00093e07       ?explodelist@@YAXPBDAAU?$vector@PAD@@@Z 00494e07 f   command.obj
 0001:00093e99       ?indexlist@@YAPADPBDH@Z    00494e99 f   command.obj
 0001:00093f45       ?listlen@@YAHPBD@Z         00494f45 f   command.obj
 0001:00093f9f       ?at@@YAXPADPAH@Z           00494f9f f   command.obj
 0001:00093fb5       ?substr@@YAXPADPAH0@Z      00494fb5 f   command.obj
 0001:00094018       ?getalias_@@YAXPAD@Z       00495018 f   command.obj
 0001:0009402a       ?run@?$_stdcmd@$0DLA@@@SAXPAD@Z 0049502a f   command.obj
 0001:00094038       ?run@?$_stdcmd@$0DLH@@@SAXPAD@Z 00495038 f   command.obj
 0001:00094049       ?looplist@@YAXPBD00_N@Z    00495049 f   command.obj
 0001:0009414d       ?prettylist@@YAXPBD0@Z     0049514d f   command.obj
 0001:000942b6       ?listincludes@@YAHPBD0H@Z  004952b6 f   command.obj
 0001:0009434f       ?listdel@@YAPADPBD0@Z      0049534f f   command.obj
 0001:00094465       ?run@?$_stdcmd@$0EBI@@@SAXPAD0@Z 00495465 f   command.obj
 0001:00094479       ?run@?$_stdcmd@$0EBJ@@@SAXPAD0@Z 00495479 f   command.obj
 0001:0009449a       ?run@?$_stdcmd@$0EBK@@@SAXPAD00@Z 0049549a f   command.obj
 0001:000944b1       ?run@?$_stdcmd@$0EBL@@@SAXPAD00@Z 004954b1 f   command.obj
 0001:000944c8       ?run@?$_stdcmd@$0ECN@@@SAXPAD000@Z 004954c8 f   command.obj
 0001:0009459c       ?run@?$_stdcmd@$0ECP@@@SAXPAH0@Z 0049559c f   command.obj
 0001:000945b0       ?run@?$_stdcmd@$0EDA@@@SAXPAH0@Z 004955b0 f   command.obj
 0001:000945c5       ?run@?$_stdcmd@$0EDB@@@SAXPAH0@Z 004955c5 f   command.obj
 0001:000945d9       ?run@?$_stdcmd@$0EDC@@@SAXPAM0@Z 004955d9 f   command.obj
 0001:000945f0       ?run@?$_stdcmd@$0EDD@@@SAXPAM0@Z 004955f0 f   command.obj
 0001:00094607       ?run@?$_stdcmd@$0EDE@@@SAXPAM0@Z 00495607 f   command.obj
 0001:0009461e       ?run@?$_stdcmd@$0EDF@@@SAXPAH0@Z 0049561e f   command.obj
 0001:00094637       ?run@?$_stdcmd@$0EDG@@@SAXPAH0@Z 00495637 f   command.obj
 0001:00094650       ?run@?$_stdcmd@$0EDH@@@SAXPAH0@Z 00495650 f   command.obj
 0001:00094669       ?run@?$_stdcmd@$0EDI@@@SAXPAH0@Z 00495669 f   command.obj
 0001:00094682       ?run@?$_stdcmd@$0EDJ@@@SAXPAH0@Z 00495682 f   command.obj
 0001:0009469b       ?run@?$_stdcmd@$0EDK@@@SAXPAH0@Z 0049569b f   command.obj
 0001:000946b4       ?run@?$_stdcmd@$0EDL@@@SAXPAM0@Z 004956b4 f   command.obj
 0001:000946d6       ?run@?$_stdcmd@$0EDM@@@SAXPAM0@Z 004956d6 f   command.obj
 0001:000946f8       ?run@?$_stdcmd@$0EDN@@@SAXPAM0@Z 004956f8 f   command.obj
 0001:0009471a       ?run@?$_stdcmd@$0EDO@@@SAXPAM0@Z 0049571a f   command.obj
 0001:0009473c       ?run@?$_stdcmd@$0EDP@@@SAXPAM0@Z 0049573c f   command.obj
 0001:0009475e       ?run@?$_stdcmd@$0EEA@@@SAXPAM0@Z 0049575e f   command.obj
 0001:00094780       ?run@?$_stdcmd@$0EEB@@@SAXPAH0@Z 00495780 f   command.obj
 0001:00094794       ?run@?$_stdcmd@$0EEC@@@SAXPAH@Z 00495794 f   command.obj
 0001:000947a7       ?run@?$_stdcmd@$0EED@@@SAXPAH0@Z 004957a7 f   command.obj
 0001:000947bb       ?run@?$_stdcmd@$0EEE@@@SAXPAH0@Z 004957bb f   command.obj
 0001:000947cf       ?run@?$_stdcmd@$0EEF@@@SAXPAH@Z 004957cf f   command.obj
 0001:000947df       ?run@?$_stdcmd@$0EEG@@@SAXPAH0@Z 004957df f   command.obj
 0001:000947f5       ?run@?$_stdcmd@$0EEH@@@SAXPAH0@Z 004957f5 f   command.obj
 0001:0009480b       ?run@?$_stdcmd@$0EEI@@@SAXPAH0@Z 0049580b f   command.obj
 0001:00094821       ?run@?$_stdcmd@$0EEJ@@@SAXPAH0@Z 00495821 f   command.obj
 0001:00094837       ?run@?$_stdcmd@$0EEK@@@SAXPAH0@Z 00495837 f   command.obj
 0001:0009484d       ?run@?$_stdcmd@$0EFA@@@SAXPAPADPAH@Z 0049584d f   command.obj
 0001:0009487c       ?run@?$_stdcmd@$0EFG@@@SAXPAPADPAH@Z 0049587c f   command.obj
 0001:000948aa       ?run@?$_stdcmd@$0EFI@@@SAXPAH0@Z 004958aa f   command.obj
 0001:000948c9       ?run@?$_stdcmd@$0EFJ@@@SAXPAH0@Z 004958c9 f   command.obj
 0001:000948e8       ?run@?$_stdcmd@$0EFK@@@SAXPAM0@Z 004958e8 f   command.obj
 0001:0009490e       ?run@?$_stdcmd@$0EFL@@@SAXPAM0@Z 0049590e f   command.obj
 0001:00094944       ?run@?$_stdcmd@$0EFM@@@SAXPAM@Z 00495944 f   command.obj
 0001:00094965       ?run@?$_stdcmd@$0EFN@@@SAXPAM@Z 00495965 f   command.obj
 0001:00094986       ?run@?$_stdcmd@$0EFO@@@SAXPAM@Z 00495986 f   command.obj
 0001:000949a7       ?run@?$_stdcmd@$0EFP@@@SAXPAM@Z 004959a7 f   command.obj
 0001:000949ca       ?run@?$_stdcmd@$0EGA@@@SAXPAM@Z 004959ca f   command.obj
 0001:000949ed       ?run@?$_stdcmd@$0EGB@@@SAXPAM@Z 004959ed f   command.obj
 0001:00094a10       ?run@?$_stdcmd@$0EGC@@@SAXPAM@Z 00495a10 f   command.obj
 0001:00094a2b       ?run@?$_stdcmd@$0EGD@@@SAXPAM0@Z 00495a2b f   command.obj
 0001:00094a50       ?run@?$_stdcmd@$0EGE@@@SAXPAM@Z 00495a50 f   command.obj
 0001:00094a6b       ?run@?$_stdcmd@$0EGF@@@SAXPAM@Z 00495a6b f   command.obj
 0001:00094a8e       ?run@?$_stdcmd@$0EGG@@@SAXPAM@Z 00495a8e f   command.obj
 0001:00094aa9       ?run@?$_stdcmd@$0EGH@@@SAXPAM@Z 00495aa9 f   command.obj
 0001:00094ac4       ?run@?$_stdcmd@$0EGN@@@SAXPAPADPAH@Z 00495ac4 f   command.obj
 0001:00094b2b       ?run@?$_stdcmd@$0EHD@@@SAXPAPADPAH@Z 00495b2b f   command.obj
 0001:00094b92       ?run@?$_stdcmd@$0EHJ@@@SAXPAPADPAH@Z 00495b92 f   command.obj
 0001:00094bf2       ?run@?$_stdcmd@$0EHP@@@SAXPAPADPAH@Z 00495bf2 f   command.obj
 0001:00094c52       ?run@?$_stdcmd@$0EIL@@@SAXPAPADPAH@Z 00495c52 f   command.obj
 0001:00094c92       ?run@?$_stdcmd@$0EJK@@@SAXPAHPAPAD0@Z 00495c92 f   command.obj
 0001:00094cec       ?run@?$_stdcmd@$0EJL@@@SAXPAMPAPADPAH@Z 00495cec f   command.obj
 0001:00094d48       ?run@?$_stdcmd@$0EJM@@@SAXPADPAPADPAH@Z 00495d48 f   command.obj
 0001:00094d9a       ?run@?$_stdcmd@$0EJO@@@SAXPAH0@Z 00495d9a f   command.obj
 0001:00094dcd       ?run@?$_stdcmd@$0EJP@@@SAXPAD0@Z 00495dcd f   command.obj
 0001:00094dcd       ?run@?$_stdcmd@$0EKA@@@SAXPAD0@Z 00495dcd f   command.obj
 0001:00094de9       ?run@?$_stdcmd@$0EKB@@@SAXPAD0@Z 00495de9 f   command.obj
 0001:00094e06       ?run@?$_stdcmd@$0EKC@@@SAXPAD0@Z 00495e06 f   command.obj
 0001:00094e24       ?run@?$_stdcmd@$0EKD@@@SAXPAD0@Z 00495e24 f   command.obj
 0001:00094e42       ?run@?$_stdcmd@$0EKE@@@SAXPAD0@Z 00495e42 f   command.obj
 0001:00094e60       ?run@?$_stdcmd@$0EKF@@@SAXPAD0@Z 00495e60 f   command.obj
 0001:00094e7e       ?run@?$_stdcmd@$0EKG@@@SAXPAD@Z 00495e7e f   command.obj
 0001:00094e8f       ?run@?$_stdcmd@$0EKH@@@SAXPAD@Z 00495e8f f   command.obj
 0001:00094e9d       ?run@?$_stdcmd@$0EKI@@@SAXPAD0@Z 00495e9d f   command.obj
 0001:00094ec1       ?run@?$_stdcmd@$0EKJ@@@SAXPAD@Z 00495ec1 f   command.obj
 0001:00094ed3       ?strreplace@@YAPADPBD00@Z  00495ed3 f   command.obj
 0001:00094f99       ?run@?$_stdcmd@$0EMD@@@SAXPAD00@Z 00495f99 f   command.obj
 0001:00094fb2       ?run@?$_stdcmd@$0EMG@@@SAXPAH@Z 00495fb2 f   command.obj
 0001:00094fcd       ?addsleep@@YAXPAHPAD@Z     00495fcd f   command.obj
 0001:0009503a       ?checksleep@@YAXH@Z        0049603a f   command.obj
 0001:00095107       ?clearsleep@@YAX_N@Z       00496107 f   command.obj
 0001:0009517b       ?clearsleep_@@YAXPAH@Z     0049617b f   command.obj
 0001:00095198       ??0?$hashtable@PBDUident@@@@QAE@H@Z 00496198 f i command.obj
 0001:000951f9       ?access@?$hashtable@PBDUident@@@@QAEPAUident@@ABQBD@Z 004961f9 f i command.obj
 0001:00095243       ?access@?$hashtable@PBDUident@@@@QAEAAUident@@ABQBDABU2@@Z 00496243 f i command.obj
 0001:000952bd       ?add@?$vector@PAU?$vector@D@@@@QAEAAPAU?$vector@D@@ABQAU2@@Z 004962bd f i command.obj
 0001:00095303       ?remove@?$vector@Usleepcmd@@@@QAE?AUsleepcmd@@H@Z 00496303 f i command.obj
 0001:00095353       ??1?$hashset@U?$hashtableentry@PBDUident@@@@@@QAE@XZ 00496353 f i command.obj
 0001:0009536f       ?deletechunks@?$hashset@U?$hashtableentry@PBDUident@@@@@@QAEXXZ 0049636f f i command.obj
 0001:000953c3       ?growbuf@?$vector@PAU?$vector@D@@@@QAEXH@Z 004963c3 f i command.obj
 0001:00095427       ?growbuf@?$vector@Usleepcmd@@@@QAEXH@Z 00496427 f i command.obj
 0001:00095489       ??1chain@?$hashset@U?$hashtableentry@PBDUident@@@@@@QAE@XZ 00496489 f i command.obj
 0001:000954ae       ??1?$hashtableentry@PBDUident@@@@QAE@XZ 004964ae f i command.obj
 0001:000954d4       ?insert@?$hashset@U?$hashtableentry@PBDUident@@@@@@QAEPAUchain@1@I@Z 004964d4 f i command.obj
 0001:00095579       ??0chain@?$hashset@U?$hashtableentry@PBDUident@@@@@@QAE@XZ 00496579 f i command.obj
 0001:000955e8       ??1ident@@UAE@XZ           004965e8 f i command.obj
 0001:000955ef       ??_Gident@@UAEPAXI@Z       004965ef f i command.obj
 0001:000955ef       ??_Eident@@UAEPAXI@Z       004965ef f i  CIL library: CIL module
 0001:0009560c       ?changed@ident@@UAEXXZ     0049660c f i command.obj
 0001:00095616       ?var_maxcon@@YAXXZ         00496616 f   console.obj
 0001:0009563e       ?conline@@YAXHPBD@Z        0049663e f   console.obj
 0001:000956b0       ?conoutfv@@YAXHPBDPAD@Z    004966b0 f   console.obj
 0001:000956f4       ?conoutf@@YAXPBDZZ         004966f4 f   console.obj
 0001:00095708       ?conoutf@@YAXHPBDZZ        00496708 f   console.obj
 0001:0009571e       ?run@?$_icmd_toggleconsole@$0DF@@@SAXXZ 0049671e f   console.obj
 0001:00095726       ?rendercommand@@YAHHHH@Z   00496726 f   console.obj
 0001:000957e6       ?setconskip@@YAXAAHHH@Z    004967e6 f   console.obj
 0001:0009585a       ?run@?$_icmd_conskip@$0FP@@@SAXPAH@Z 0049685a f   console.obj
 0001:00095883       ?run@?$_icmd_miniconskip@$0GA@@@SAXPAH@Z 00496883 f   console.obj
 0001:0009589e       ?run@?$_icmd_clearconsole@$0GC@@@SAXXZ 0049689e f   console.obj
 0001:000958c7       ?drawconlines@@YAHHHHHHHHH@Z 004968c7 f   console.obj
 0001:00095a42       ?renderconsole@@YAHHHH@Z   00496a42 f   console.obj
 0001:00095bd1       ??1keym@@QAE@XZ            00496bd1 f i console.obj
 0001:00095c06       ?keymap@@YAXPAHPAD@Z       00496c06 f   console.obj
 0001:00095c8b       ?searchbinds@@YAXPADH@Z    00496c8b f   console.obj
 0001:00095d7d       ?findbind@@YAPAUkeym@@PAD@Z 00496d7d f   console.obj
 0001:00095dc3       ?getbind@@YAXPADH@Z        00496dc3 f   console.obj
 0001:00095de8       ?bindkey@@YAXPAD0HPBD@Z    00496de8 f   console.obj
 0001:00095e72       ?run@?$_icmd_bind@$0PE@@@SAXPAD0@Z 00496e72 f   console.obj
 0001:00095ea6       ?run@?$_icmd_specbind@$0PF@@@SAXPAD0@Z 00496ea6 f   console.obj
 0001:00095eda       ?run@?$_icmd_editbind@$0PG@@@SAXPAD0@Z 00496eda f   console.obj
 0001:00095f0e       ?run@?$_icmd_getbind@$0PH@@@SAXPAD@Z 00496f0e f   console.obj
 0001:00095f1c       ?run@?$_icmd_getspecbind@$0PI@@@SAXPAD@Z 00496f1c f   console.obj
 0001:00095f2a       ?run@?$_icmd_geteditbind@$0PJ@@@SAXPAD@Z 00496f2a f   console.obj
 0001:00095f38       ?run@?$_icmd_searchbinds@$0PK@@@SAXPAD@Z 00496f38 f   console.obj
 0001:00095f46       ?run@?$_icmd_searchspecbinds@$0PL@@@SAXPAD@Z 00496f46 f   console.obj
 0001:00095f54       ?run@?$_icmd_searcheditbinds@$0PM@@@SAXPAD@Z 00496f54 f   console.obj
 0001:00095f62       ?inputcommand@@YAXPAD00@Z  00496f62 f   console.obj
 0001:0009603a       ?run@?$_icmd_saycommand@$0BAL@@@SAXPAD@Z 0049703a f   console.obj
 0001:0009604b       ?pasteconsole@@YAXXZ       0049704b f   console.obj
 0001:00096090       ?restore@hline@@QAEXXZ     00497090 f i console.obj
 0001:0009612a       ?shouldsave@hline@@QAE_NXZ 0049712a f i console.obj
 0001:00096195       ?save@hline@@QAEXXZ        00497195 f i console.obj
 0001:000961e5       ?run@hline@@QAEXXZ         004971e5 f i console.obj
 0001:0009621e       ?history_@@YAXPAH@Z        0049721e f   console.obj
 0001:0009625c       ?addreleaseaction@@YAPBDPBD@Z 0049725c f   console.obj
 0001:000962ba       ?onrelease@@YAXPAD@Z       004972ba f   console.obj
 0001:000962bf       ?execbind@@YAXAAUkeym@@_N@Z 004972bf f   console.obj
 0001:00096391       ?consolekey@@YAXH_NH@Z     00497391 f   console.obj
 0001:000967d1       ?keypress@@YAXH_NH@Z       004977d1 f   console.obj
 0001:00096845       ?writebinds@@YAXPAUstream@@@Z 00497845 f   console.obj
 0001:000969b9       ??0filesval@@QAE@HPBD0@Z   004979b9 f i console.obj
 0001:00096a27       ?update@filesval@@QAEXXZ   00497a27 f i console.obj
 0001:00096ad8       ?addcomplete@@YAXPADH00@Z  00497ad8 f   console.obj
 0001:00096c20       ?addfilecomplete@@YAXPAD00@Z 00497c20 f   console.obj
 0001:00096c37       ?addlistcomplete@@YAXPAD0@Z 00497c37 f   console.obj
 0001:00096c4c       ?complete@@YAXPAD@Z        00497c4c f   console.obj
 0001:00096ef4       ?comparefiles@filesval@@SAHPAPAD0@Z 00497ef4 f   console.obj
 0001:00096f08       ?writecompletions@@YAXPAUstream@@@Z 00497f08 f   console.obj
 0001:00096ff0       ?insert@?$vector@Ucline@@@@QAEAAUcline@@HABU2@@Z 00497ff0 f i console.obj
 0001:00097072       ??0?$hashtable@HUkeym@@@@QAE@H@Z 00498072 f i console.obj
 0001:000970e1       ?access@?$hashtable@HUkeym@@@@QAEPAUkeym@@ABH@Z 004980e1 f i console.obj
 0001:00097106       ??1?$hashset@U?$hashtableentry@HUkeym@@@@@@QAE@XZ 00498106 f i console.obj
 0001:00097122       ?add@?$vector@PAUhline@@@@QAEAAPAUhline@@ABQAU2@@Z 00498122 f i console.obj
 0001:00097168       ??0?$hashtable@Ufileskey@@PAUfilesval@@@@QAE@H@Z 00498168 f i console.obj
 0001:000971d7       ?access@?$hashtable@Ufileskey@@PAUfilesval@@@@QAEPAPAUfilesval@@ABUfileskey@@@Z 004981d7 f i console.obj
 0001:0009721f       ??A?$hashtable@Ufileskey@@PAUfilesval@@@@QAEAAPAUfilesval@@ABUfileskey@@@Z 0049821f f i console.obj
 0001:00097279       ??1?$hashset@U?$hashtableentry@Ufileskey@@PAUfilesval@@@@@@QAE@XZ 00498279 f i console.obj
 0001:000972b4       ??0?$hashtable@PADPAUfilesval@@@@QAE@H@Z 004982b4 f i console.obj
 0001:00097323       ?access@?$hashtable@PADPAUfilesval@@@@QAEPAPAUfilesval@@ABQAD@Z 00498323 f i console.obj
 0001:0009736e       ??A?$hashtable@PADPAUfilesval@@@@QAEAAPAUfilesval@@ABQAD@Z 0049836e f i console.obj
 0001:000973ce       ??1?$hashset@U?$hashtableentry@PADPAUfilesval@@@@@@QAE@XZ 004983ce f i console.obj
 0001:00097409       ?deletechunks@?$hashset@U?$hashtableentry@HUkeym@@@@@@QAEXXZ 00498409 f i console.obj
 0001:0009745b       ?growbuf@?$vector@PAUhline@@@@QAEXH@Z 0049845b f i console.obj
 0001:000974bf       ?growbuf@?$vector@Ureleaseaction@@@@QAEXH@Z 004984bf f i console.obj
 0001:00097523       ??1chain@?$hashset@U?$hashtableentry@HUkeym@@@@@@QAE@XZ 00498523 f i console.obj
 0001:00097547       ??1?$hashtableentry@HUkeym@@@@QAE@XZ 00498547 f i console.obj
 0001:0009756e       ?growbuf@?$vector@Ucline@@@@QAEXH@Z 0049856e f i console.obj
 0001:000975d0       ?insert@?$hashset@U?$hashtableentry@HUkeym@@@@@@QAEPAUchain@1@I@Z 004985d0 f i console.obj
 0001:0009768c       ?insert@?$hashset@U?$hashtableentry@Ufileskey@@PAUfilesval@@@@@@QAEPAUchain@1@I@Z 0049868c f i console.obj
 0001:00097724       ?insert@?$hashset@U?$hashtableentry@PADPAUfilesval@@@@@@QAEPAUchain@1@I@Z 00498724 f i console.obj
 0001:000977a5       ??0chain@?$hashset@U?$hashtableentry@HUkeym@@@@@@QAE@XZ 004987a5 f i console.obj
 0001:00097845       ?run@?$_icmd_getgraphoxversion@$0BE@@@SAXXZ 00498845 f   main.obj
 0001:00097851       ?var_scr_h@@YAXXZ          00498851 f   main.obj
 0001:00097851       ?var_scr_w@@YAXXZ          00498851 f   main.obj
 0001:00097868       ?var_colorbits@@YAXXZ      00498868 f   main.obj
 0001:0009787f       ?var_depthbits@@YAXXZ      0049887f f   main.obj
 0001:00097896       ?var_stencilbits@@YAXXZ    00498896 f   main.obj
 0001:000978ad       ?var_fsaa@@YAXXZ           004988ad f   main.obj
 0001:000978c4       ?var_vsync@@YAXXZ          004988c4 f   main.obj
 0001:000978db       ?writeinitcfg@@YAXXZ       004988db f   main.obj
 0001:00097a14       ?cleanup@@YAXXZ            00498a14 f   main.obj
 0001:00097af8       ?quit@@YAXXZ               00498af8 f   main.obj
 0001:00097b7a       ?fatal@@YAXPBDZZ           00498b7a f   main.obj
 0001:00097c1f       ?getbackgroundres@@YAXAAH0@Z 00498c1f f   main.obj
 0001:00097c98       ?restorebackground@@YAXXZ  00498c98 f   main.obj
 0001:00097cdc       ?renderbackground@@YAXPBDPAUTexture@@00_N2@Z 00498cdc f   main.obj
 0001:00099469       ?renderprogress@@YAXMPBDI_N@Z 0049a469 f   main.obj
 0001:0009aa84       ?keyrepeat@@YAX_N@Z        0049ba84 f   main.obj
 0001:0009aa9b       ?inputgrab@@YAX_N@Z        0049ba9b f   main.obj
 0001:0009aabc       ?var_fullscreen@@YAXXZ     0049babc f   main.obj
 0001:0009aaea       ?screenres@@YAXPAH0@Z      0049baea f   main.obj
 0001:0009ab49       ?var_gamma@@YAXXZ          0049bb49 f   main.obj
 0001:0009ab92       ?resetgamma@@YAXXZ         0049bb92 f   main.obj
 0001:0009abe0       ?setupscreen@@YAXAAH00@Z   0049bbe0 f   main.obj
 0001:0009b1b4       ?resetgl@@YAXXZ            0049c1b4 f   main.obj
 0001:0009b3b7       ?interceptkey@@YA_NH@Z     0049c3b7 f   main.obj
 0001:0009b4ff       ?checkinput@@YAXXZ         0049c4ff f   main.obj
 0001:0009b666       ?swapbuffers@@YAXXZ        0049c666 f   main.obj
 0001:0009b67c       ?var_gamespeed@@YAXXZ      0049c67c f   main.obj
 0001:0009b693       ?var_paused@@YAXXZ         0049c693 f   main.obj
 0001:0009b6a7       ?limitfps@@YAXAAHH@Z       0049c6a7 f   main.obj
 0001:0009b719       ?stackdumper@@YAXIPAU_EXCEPTION_POINTERS@@@Z 0049c719 f   main.obj
 0001:0009b90d       ?getfps@@YAXAAH00@Z        0049c90d f   main.obj
 0001:0009b970       ?getfps_@@YAXPAH@Z         0049c970 f   main.obj
 0001:0009b9f2       ?var_clockfix@@YAXXZ       0049c9f2 f   main.obj
 0001:0009b9f2       ?var_clockerror@@YAXXZ     0049c9f2 f   main.obj
 0001:0009ba07       ?readstats@@YAXXZ          0049ca07 f   main.obj
 0001:0009ba73       _SDL_main                  0049ca73 f   main.obj
 0001:0009c408       ?add@?$vector@TSDL_Event@@@@QAEAATSDL_Event@@ABT2@@Z 0049d408 f i main.obj
 0001:0009c452       ?remove@?$vector@TSDL_Event@@@@QAE?ATSDL_Event@@H@Z 0049d452 f i main.obj
 0001:0009c4a2       ?growbuf@?$vector@TSDL_Event@@@@QAEXH@Z 0049d4a2 f i main.obj
 0001:0009c504       ??0menu@@QAE@XZ            0049d504 f i menus.obj
 0001:0009c540       ?gui@menu@@UAEXAAUg3d_gui@@_N@Z 0049d540 f i menus.obj
 0001:0009c5a3       ?clear@menu@@UAEXXZ        0049d5a3 f i menus.obj
 0001:0009c5ba       ??_Emenu@@UAEPAXI@Z        0049d5ba f i  CIL library: CIL module
 0001:0009c5ba       ??_Gmenu@@UAEPAXI@Z        0049d5ba f i menus.obj
 0001:0009c5d7       ??1menu@@UAE@XZ            0049d5d7 f i menus.obj
 0001:0009c5fc       ?schedule@delayedupdate@@QAEXPBD@Z 0049d5fc f i menus.obj
 0001:0009c61c       ?getstring@delayedupdate@@QBEPBDXZ 0049d61c f i menus.obj
 0001:0009c659       ?run@delayedupdate@@QAEXXZ 0049d659 f i menus.obj
 0001:0009c725       ?menuinfrontofplayer@@YA?AUvec@@XZ 0049d725 f   menus.obj
 0001:0009c78d       ?popgui@@YAXXZ             0049d78d f   menus.obj
 0001:0009c7a6       ?pushgui@@YAXPAUmenu@@H@Z  0049d7a6 f   menus.obj
 0001:0009c817       ?restoregui@@YAXH@Z        0049d817 f   menus.obj
 0001:0009c846       ?showgui@@YAXPBD@Z         0049d846 f   menus.obj
 0001:0009c88e       ?cleargui@@YAHH@Z          0049d88e f   menus.obj
 0001:0009c906       ?guionclear@@YAXPAD@Z      0049d906 f   menus.obj
 0001:0009c94a       ?guistayopen@@YAXPAD@Z     0049d94a f   menus.obj
 0001:0009c96a       ?guinoautotab@@YAXPAD@Z    0049d96a f   menus.obj
 0001:0009c993       ?guibutton@@YAXPAD00@Z     0049d993 f   menus.obj
 0001:0009ca57       ?guiimage@@YAXPAD0PAMPAH0@Z 0049da57 f   menus.obj
 0001:0009cb11       ?guicolor@@YAXPAH@Z        0049db11 f   menus.obj
 0001:0009cb5a       ?guitextbox@@YAXPADPAH11@Z 0049db5a f   menus.obj
 0001:0009cbac       ?guitext@@YAXPAD0@Z        0049dbac f   menus.obj
 0001:0009cc04       ?guititle@@YAXPAD@Z        0049dc04 f   menus.obj
 0001:0009cc1f       ?guitab@@YAXPAD@Z          0049dc1f f   menus.obj
 0001:0009cc38       ?guibar@@YAXXZ             0049dc38 f   menus.obj
 0001:0009cc48       ?guistrut@@YAXPAMPAH@Z     0049dc48 f   menus.obj
 0001:0009cd85       ?guislider@@YAXPADPAH10@Z  0049dd85 f   menus.obj
 0001:0009ce31       ?guilistslider@@YAXPAD00@Z 0049de31 f   menus.obj
 0001:0009cf4e       ?guinameslider@@YAXPAD000@Z 0049df4e f   menus.obj
 0001:0009d061       ?guicheckbox@@YAXPAD0PAM10@Z 0049e061 f   menus.obj
 0001:0009d0ea       ?guiradio@@YAXPAD0PAM0@Z   0049e0ea f   menus.obj
 0001:0009d150       ?guibitfield@@YAXPAD0PAH0@Z 0049e150 f   menus.obj
 0001:0009d1b3       ?guifield@@YAXPADPAH0@Z    0049e1b3 f   menus.obj
 0001:0009d208       ?guieditor@@YAXPADPAH11@Z  0049e208 f   menus.obj
 0001:0009d24b       ?guikeyfield@@YAXPADPAH0@Z 0049e24b f   menus.obj
 0001:0009d2a0       ?guilist@@YAXPAD@Z         0049e2a0 f   menus.obj
 0001:0009d2c7       ?guialign@@YAXPAHPAD@Z     0049e2c7 f   menus.obj
 0001:0009d303       ?newgui@@YAXPAD00@Z        0049e303 f   menus.obj
 0001:0009d399       ?guiservers@@YAXXZ         0049e399 f   menus.obj
 0001:0009d3cb       ?run@?$_icmd_cleargui@$0BPI@@@SAXPAH@Z 0049e3cb f   menus.obj
 0001:0009d3de       ?gui@applymenu@@UAEXAAUg3d_gui@@_N@Z 0049e3de f i menus.obj
 0001:0009d4f4       ?clear@applymenu@@UAEXXZ   0049e4f4 f i menus.obj
 0001:0009d50a       ??1applymenu@@UAE@XZ       0049e50a f i menus.obj
 0001:0009d52e       ??_Gapplymenu@@UAEPAXI@Z   0049e52e f i menus.obj
 0001:0009d52e       ??_Eapplymenu@@UAEPAXI@Z   0049e52e f i  CIL library: CIL module
 0001:0009d54b       ?addchange@@YAXPBDH@Z      0049e54b f   menus.obj
 0001:0009d65f       ?clearchanges@@YAXH@Z      0049e65f f   menus.obj
 0001:0009d70e       ?menuprocess@@YAXXZ        0049e70e f   menus.obj
 0001:0009d7da       ?clearmainmenu@@YAXXZ      0049e7da f   menus.obj
 0001:0009d80f       ?g3d_mainmenu@@YAXXZ       0049e80f f   menus.obj
 0001:0009d87c       ??0?$hashtable@PBDUmenu@@@@QAE@H@Z 0049e87c f i menus.obj
 0001:0009d8eb       ?access@?$hashtable@PBDUmenu@@@@QAEPAUmenu@@ABQBD@Z 0049e8eb f i menus.obj
 0001:0009d935       ??A?$hashtable@PBDUmenu@@@@QAEAAUmenu@@ABQBD@Z 0049e935 f i menus.obj
 0001:0009d98c       ??1?$hashset@U?$hashtableentry@PBDUmenu@@@@@@QAE@XZ 0049e98c f i menus.obj
 0001:0009d9f5       ?add@?$vector@PAUmenu@@@@QAEAAPAUmenu@@ABQAU2@@Z 0049e9f5 f i menus.obj
 0001:0009da3b       ?insert@?$vector@PAUmenu@@@@QAEAAPAUmenu@@HABQAU2@@Z 0049ea3b f i menus.obj
 0001:0009da85       ?add@?$vector@Udelayedupdate@@@@QAEAAUdelayedupdate@@XZ 0049ea85 f i menus.obj
 0001:0009daea       ?shrink@?$vector@Udelayedupdate@@@@QAEXH@Z 0049eaea f i menus.obj
 0001:0009db27       ?growbuf@?$vector@PAUmenu@@@@QAEXH@Z 0049eb27 f i menus.obj
 0001:0009db8b       ?growbuf@?$vector@Udelayedupdate@@@@QAEXH@Z 0049eb8b f i menus.obj
 0001:0009dbed       ??1chain@?$hashset@U?$hashtableentry@PBDUmenu@@@@@@QAE@XZ 0049ebed f i menus.obj
 0001:0009dc11       ??1?$hashtableentry@PBDUmenu@@@@QAE@XZ 0049ec11 f i menus.obj
 0001:0009dc39       ?insert@?$hashset@U?$hashtableentry@PBDUmenu@@@@@@QAEPAUchain@1@I@Z 0049ec39 f i menus.obj
 0001:0009dcf5       ??0chain@?$hashset@U?$hashtableentry@PBDUmenu@@@@@@QAE@XZ 0049ecf5 f i menus.obj
 0001:0009ddd5       ?startchunk@aviwriter@@QAEXPBD@Z 0049edd5 f i movie.obj
 0001:0009de13       ?endchunk@aviwriter@@QAEXXZ 0049ee13 f i movie.obj
 0001:0009de65       ?writechunk@aviwriter@@QAEXPBDPBXI@Z 0049ee65 f i movie.obj
 0001:0009de9e       ?close@aviwriter@@QAEXXZ   0049ee9e f i movie.obj
 0001:0009dfee       ??0aviwriter@@QAE@PBDIII_N@Z 0049efee f i movie.obj
 0001:0009e14c       ?open@aviwriter@@QAE_NXZ   0049f14c f i movie.obj
 0001:0009e678       ?boxsample@aviwriter@@SAXPBEIIIIIIIIAAI11@Z 0049f678 f i movie.obj
 0001:0009e84d       ?scaleyuv@aviwriter@@QAEXPBEII@Z 0049f84d f i movie.obj
 0001:0009ec74       ?encodeyuv@aviwriter@@QAEXPBE@Z 0049fc74 f i movie.obj
 0001:0009eec8       ?compressyuv@aviwriter@@QAEXPBE@Z 0049fec8 f i movie.obj
 0001:0009f00b       ?writesound@aviwriter@@QAEXPAEI@Z 004a000b f i movie.obj
 0001:0009f0ed       ?writevideoframe@aviwriter@@QAE_NPBEIIHI@Z 004a00ed f i movie.obj
 0001:0009f2c9       ??0soundbuffer@recorder@@QAE@XZ 004a02c9 f i movie.obj
 0001:0009f2d3       ??1soundbuffer@recorder@@QAE@XZ 004a02d3 f i movie.obj
 0001:0009f2ec       ??0videobuffer@recorder@@QAE@XZ 004a02ec f i movie.obj
 0001:0009f2ec       ??0tag@vertmodel@@QAE@XZ   004a02ec f i rendermodel.obj
 0001:0009f2f2       ?init@videobuffer@recorder@@QAEXHHH@Z 004a02f2 f i movie.obj
 0001:0009f327       ?videoencoder@recorder@@YAHPAX@Z 004a0327 f   movie.obj
 0001:0009f508       ?soundencoder@recorder@@YAXPAXPAEH@Z 004a0508 f   movie.obj
 0001:0009f5ce       ?start@recorder@@YAXPBDHHH_N@Z 004a05ce f   movie.obj
 0001:0009f7f7       ??_Gaviwriter@@QAEPAXI@Z   004a07f7 f i movie.obj
 0001:0009f858       ?cleanup@recorder@@YAXXZ   004a0858 f   movie.obj
 0001:0009f8e6       ?stop@recorder@@YAXXZ      004a08e6 f   movie.obj
 0001:0009fa19       ?drawquad@recorder@@YAXMMMMMM@Z 004a0a19 f   movie.obj
 0001:0009facf       ?readbuffer@recorder@@YAXAAUvideobuffer@1@I@Z 004a0acf f   movie.obj
 0001:000a0466       ?readbuffer@recorder@@YA_NXZ 004a1466 f   movie.obj
 0001:000a055e       ?drawhud@recorder@@YAXXZ   004a155e f   movie.obj
 0001:000a076a       ?movie@@YAXPAD@Z           004a176a f   movie.obj
 0001:000a07be       ?add@?$vector@Uaviindexentry@@@@QAEAAUaviindexentry@@ABU2@@Z 004a17be f i movie.obj
 0001:000a07be       ?add@?$vector@Ucubeface@@@@QAEAAUcubeface@@ABU2@@Z 004a17be f i octa.obj
 0001:000a07be       ?add@?$vector@Uvec@@@@QAEAAUvec@@ABU2@@Z 004a17be f i worldio.obj
 0001:000a07f6       ??1soundsample@@QAE@XZ     004a17f6 f i sound.obj
 0001:000a07f6       ??1zipfile@@QAE@XZ         004a17f6 f i zip.obj
 0001:000a0807       ?reset@soundchannel@@QAEXXZ 004a1807 f i sound.obj
 0001:000a0844       ?newchannel@@YAAAUsoundchannel@@HPAUsoundslot@@PBUvec@@PAUextentity@@H@Z 004a1844 f   sound.obj
 0001:000a0958       ?freechannel@@YAXH@Z       004a1958 f   sound.obj
 0001:000a0988       ?syncchannel@@YAXAAUsoundchannel@@@Z 004a1988 f   sound.obj
 0001:000a09c3       ?stopchannels@@YAXXZ       004a19c3 f   sound.obj
 0001:000a09c3       ?stopsounds@@YAXXZ         004a19c3 f   sound.obj
 0001:000a09fa       ?var_soundvol@@YAXXZ       004a19fa f   sound.obj
 0001:000a0a10       ?var_musicvol@@YAXXZ       004a1a10 f   sound.obj
 0001:000a0a24       ?setmusicvol@@YAXH@Z       004a1a24 f   sound.obj
 0001:000a0a49       ?stopmusic@@YAXXZ          004a1a49 f   sound.obj
 0001:000a0acd       ?var_soundbufferlen@@YAXXZ 004a1acd f   sound.obj
 0001:000a0acd       ?var_soundfreq@@YAXXZ      004a1acd f   sound.obj
 0001:000a0acd       ?var_soundchans@@YAXXZ     004a1acd f   sound.obj
 0001:000a0ae4       ?initsound@@YAXXZ          004a1ae4 f   sound.obj
 0001:000a0b4a       ?musicdone@@YAXXZ          004a1b4a f   sound.obj
 0001:000a0bd1       ?loadmusic@@YAPAU_Mix_Music@@PBD@Z 004a1bd1 f   sound.obj
 0001:000a0c8c       ?startmusic@@YAXPAD0@Z     004a1c8c f   sound.obj
 0001:000a0dc2       ?addsound@@YAHPBDHHAAU?$vector@Usoundslot@@@@@Z 004a1dc2 f   sound.obj
 0001:000a0ef0       ?registersound@@YAXPADPAH@Z 004a1ef0 f   sound.obj
 0001:000a0f10       ?mapsound@@YAXPADPAH1@Z    004a1f10 f   sound.obj
 0001:000a0f45       ?resetchannels@@YAXXZ      004a1f45 f   sound.obj
 0001:000a0f81       ?stopmapsound@@YAXPAUextentity@@@Z 004a1f81 f   sound.obj
 0001:000a0fc2       ?checkmapsounds@@YAXXZ     004a1fc2 f   sound.obj
 0001:000a103f       ?updatechannel@@YA_NAAUsoundchannel@@@Z 004a203f f   sound.obj
 0001:000a11b5       ?updatesounds@@YAXXZ       004a21b5 f   sound.obj
 0001:000a12ea       ?playsound@@YAHHPBUvec@@PAUextentity@@HHHHH@Z 004a22ea f   sound.obj
 0001:000a166c       ?stopsound@@YA_NHHH@Z      004a266c f   sound.obj
 0001:000a16eb       ?sound@@YAXPAH@Z           004a26eb f   sound.obj
 0001:000a1705       ?resetsound@@YAXXZ         004a2705 f   sound.obj
 0001:000a1885       ?var_mumble@@YAXXZ         004a2885 f   sound.obj
 0001:000a1898       ?initmumble@@YAXXZ         004a2898 f   sound.obj
 0001:000a1918       ?closemumble@@YAXXZ        004a2918 f   sound.obj
 0001:000a1980       ?updatemumble@@YAXXZ       004a2980 f   sound.obj
 0001:000a1a61       ??0?$hashtable@PBDUsoundsample@@@@QAE@H@Z 004a2a61 f i sound.obj
 0001:000a1ad0       ??A?$hashtable@PBDUsoundsample@@@@QAEAAUsoundsample@@ABQBD@Z 004a2ad0 f i sound.obj
 0001:000a1b27       ??1?$hashset@U?$hashtableentry@PBDUsoundsample@@@@@@QAE@XZ 004a2b27 f i sound.obj
 0001:000a1b4b       ?clear@?$hashset@U?$hashtableentry@PBDUsoundsample@@@@@@QAEXXZ 004a2b4b f i sound.obj
 0001:000a1b73       ?deletechunks@?$hashset@U?$hashtableentry@PBDUsoundsample@@@@@@QAEXXZ 004a2b73 f i sound.obj
 0001:000a1bc7       ?insert@?$hashset@U?$hashtableentry@PBDUsoundsample@@@@@@QAEPAUchain@1@I@Z 004a2bc7 f i sound.obj
 0001:000a1c83       ??0chain@?$hashset@U?$hashtableentry@PBDUsoundsample@@@@@@QAE@XZ 004a2c83 f i sound.obj
 0001:000a1ca7       ?compress@tiger@@YAXPB_KQA_K@Z 004a2ca7 f   crypto.obj
 0001:000a2782       ?gensboxes@tiger@@YAXXZ    004a3782 f   crypto.obj
 0001:000a287c       ?hash@tiger@@YAXPBEHAAThashval@1@@Z 004a387c f   crypto.obj
 0001:000a2974       ?invert@gfield@@QAE_NABU1@@Z 004a3974 f i crypto.obj
 0001:000a2b7d       ?sqrt@gfield@@QAE_NABU1@@Z 004a3b7d f i crypto.obj
 0001:000a2c2e       ?mul2@ecjacobian@@QAEXXZ   004a3c2e f i crypto.obj
 0001:000a2d46       ?add@ecjacobian@@QAEXABU1@@Z 004a3d46 f i crypto.obj
 0001:000a2f55       ?normalize@ecjacobian@@QAEXXZ 004a3f55 f i crypto.obj
 0001:000a2fd2       ?calcy@ecjacobian@@QAE_N_N@Z 004a3fd2 f i crypto.obj
 0001:000a304d       ?print@ecjacobian@@QAEXAAU?$vector@D@@@Z 004a404d f i crypto.obj
 0001:000a3089       ?parse@ecjacobian@@QAEXPBD@Z 004a4089 f i crypto.obj
 0001:000a30e3       ?genprivkey@@YAXPBDAAU?$vector@D@@1@Z 004a40e3 f   crypto.obj
 0001:000a31fa       ?answerchallenge@@YAXPBD0AAU?$vector@D@@@Z 004a41fa f   crypto.obj
 0001:000a326b       ?printdigits@?$bigint@$0N@@@QBEXAAU?$vector@D@@@Z 004a426b f i crypto.obj
 0001:000a32c8       ?hasbit@?$bigint@$0N@@@QBE_NH@Z 004a42c8 f i crypto.obj
 0001:000a32f6       ?shrink@?$bigint@$0N@@@QAEXXZ 004a42f6 f i crypto.obj
 0001:000a330d       ?parsedigits@?$bigint@$0N@@@SAHPAGHPBD@Z 004a430d f i crypto.obj
 0001:000a33b5       ??$?M$0N@@?$bigint@$0N@@@QBE_NABU0@@Z 004a43b5 f i crypto.obj
 0001:000a33f6       ??$sub@$0N@$0N@@?$bigint@$0N@@@QAEAAU0@ABU0@0@Z 004a43f6 f i crypto.obj
 0001:000a3490       ??$legendre@$0N@@gfield@@SAHABU?$bigint@$0N@@@@Z 004a4490 f i crypto.obj
 0001:000a3525       ??$pow@$0N@$0N@@gfield@@QAEAAU0@ABU?$bigint@$0N@@@0@Z 004a4525 f i crypto.obj
 0001:000a35ab       ??$sub@$0N@$0N@@gfield@@QAEAAU0@ABU?$bigint@$0N@@@0@Z 004a45ab f i crypto.obj
 0001:000a35e8       ??$mul@$0N@$0N@@gfield@@QAEAAU0@ABU?$bigint@$0N@@@0@Z 004a45e8 f i crypto.obj
 0001:000a360c       ??$add@$0N@$0N@@gfield@@QAEAAU0@ABU?$bigint@$0N@@@0@Z 004a460c f i crypto.obj
 0001:000a3634       ??$mul@$0N@@ecjacobian@@QAEXU?$bigint@$0N@@@@Z 004a4634 f i crypto.obj
 0001:000a3695       ??$rshift@$0N@@?$bigint@$0N@@@QAEAAU0@ABU0@H@Z 004a4695 f i crypto.obj
 0001:000a375c       ?numbits@?$bigint@$0N@@@QBEHXZ 004a475c f i crypto.obj
 0001:000a378f       ??$add@$0N@$00@?$bigint@$0N@@@QAEAAU0@ABU0@ABU?$bigint@$00@@@Z 004a478f f i crypto.obj
 0001:000a378f       ??$add@$0N@$0N@@?$bigint@$0N@@@QAEAAU0@ABU0@0@Z 004a478f f i crypto.obj
 0001:000a3834       ??$mul@$0N@$0N@@?$bigint@$0BK@@@QAEAAU0@ABU?$bigint@$0N@@@0@Z 004a4834 f i crypto.obj
 0001:000a38fd       ??$reduce@$0BK@@gfield@@QAEXABU?$bigint@$0BK@@@@Z 004a48fd f i crypto.obj
 0001:000a3ac5       ??$mul@$0M@@ecjacobian@@QAEXABU0@U?$bigint@$0M@@@@Z 004a4ac5 f i crypto.obj
 0001:000a3b54       ??$sub@$0N@$00@?$bigint@$0N@@@QAEAAU0@ABU0@ABU?$bigint@$00@@@Z 004a4b54 f i crypto.obj
 0001:000a3c5d       ?adjoint@glmatrixf@@QAEXABU1@@Z 004a4c5d f   geom.obj
 0001:000a4139       ?invert@glmatrixf@@QAE_NABU1@M@Z 004a5139 f   geom.obj
 0001:000a41b8       ?rayrectintersect@@YA_NABUvec@@000AAMAAH@Z 004a51b8 f   geom.obj
 0001:000a42ed       ?linecylinderintersect@@YA_NABUvec@@000MAAM@Z 004a52ed f   geom.obj
 0001:000a45af       ?makerelpath@@YAPADPBD000@Z 004a55af f   stream.obj
 0001:000a468f       ?path@@YAPADPAD@Z          004a568f f   stream.obj
 0001:000a4761       ?path@@YAPADPBD_N@Z        004a5761 f   stream.obj
 0001:000a478a       ?parentdir@@YAPBDPBD@Z     004a578a f   stream.obj
 0001:000a47cb       ?fileexists@@YA_NPBD0@Z    004a57cb f   stream.obj
 0001:000a47fa       ?createdir@@YA_NPBD@Z      004a57fa f   stream.obj
 0001:000a4837       ?fixpackagedir@@YAIPAD@Z   004a5837 f   stream.obj
 0001:000a485a       ?addpackagedir@@YAXPBD@Z   004a585a f   stream.obj
 0001:000a48bc       ?findfile@@YAPBDPBD0@Z     004a58bc f   stream.obj
 0001:000a49df       ?listdir@@YA_NPBD0AAU?$vector@PAD@@@Z 004a59df f   stream.obj
 0001:000a4a8d       ?listfiles@@YAHPBD0AAU?$vector@PAD@@@Z 004a5a8d f   stream.obj
 0001:000a4bd4       ?rwops@stream@@QAEPAUSDL_RWops@@XZ 004a5bd4 f   stream.obj
 0001:000a4c02       ?size@stream@@UAEJXZ       004a5c02 f   stream.obj
 0001:000a4c4c       ?getline@stream@@UAE_NPADH@Z 004a5c4c f   stream.obj
 0001:000a4cad       ??0filestream@@QAE@XZ      004a5cad f i stream.obj
 0001:000a4ce0       ?close@filestream@@UAEXXZ  004a5ce0 f i stream.obj
 0001:000a4cf7       ?end@filestream@@UAE_NXZ   004a5cf7 f i stream.obj
 0001:000a4d07       ?tell@filestream@@UAEJXZ   004a5d07 f i stream.obj
 0001:000a4d11       ?seek@filestream@@UAE_NJH@Z 004a5d11 f i stream.obj
 0001:000a4d30       ?read@filestream@@UAEHPAXH@Z 004a5d30 f i stream.obj
 0001:000a4d48       ?write@filestream@@UAEHPBXH@Z 004a5d48 f i stream.obj
 0001:000a4d60       ?getchar@filestream@@UAEHXZ 004a5d60 f i stream.obj
 0001:000a4d6a       ?putchar@filestream@@UAE_NH@Z 004a5d6a f i stream.obj
 0001:000a4d85       ?getline@filestream@@UAE_NPADH@Z 004a5d85 f i stream.obj
 0001:000a4da1       ?putstring@filestream@@UAE_NPBD@Z 004a5da1 f i stream.obj
 0001:000a4dbc       ?printf@filestream@@UAAHPBDZZ 004a5dbc f i stream.obj
 0001:000a4dd5       ??_Efilestream@@UAEPAXI@Z  004a5dd5 f i  CIL library: CIL module
 0001:000a4dd5       ??_Gfilestream@@UAEPAXI@Z  004a5dd5 f i stream.obj
 0001:000a4e1d       ??0gzstream@@QAE@XZ        004a5e1d f i stream.obj
 0001:000a4e77       ?readbuf@gzstream@@QAEXH@Z 004a5e77 f i stream.obj
 0001:000a4eb8       ?readbyte@gzstream@@QAEHH@Z 004a5eb8 f i stream.obj
 0001:000a4ee3       ?skipbytes@gzstream@@QAEXH@Z 004a5ee3 f i stream.obj
 0001:000a4f18       ?checkheader@gzstream@@QAE_NXZ 004a5f18 f i stream.obj
 0001:000a5006       ?open@gzstream@@QAE_NPAUstream@@PBD_NH@Z 004a6006 f i stream.obj
 0001:000a510f       ?getcrc@gzstream@@UAEIXZ   004a610f f i stream.obj
 0001:000a5113       ?finishreading@gzstream@@QAEXXZ 004a6113 f i stream.obj
 0001:000a51a3       ?stopreading@gzstream@@QAEXXZ 004a61a3 f i stream.obj
 0001:000a51b9       ?finishwriting@gzstream@@QAEXXZ 004a61b9 f i stream.obj
 0001:000a5237       ?close@gzstream@@UAEXXZ    004a6237 f i stream.obj
 0001:000a5296       ?end@gzstream@@UAE_NXZ     004a6296 f i stream.obj
 0001:000a52a4       ?tell@gzstream@@UAEJXZ     004a62a4 f i stream.obj
 0001:000a52bc       ?seek@gzstream@@UAE_NJH@Z  004a62bc f i stream.obj
 0001:000a5398       ?read@gzstream@@UAEHPAXH@Z 004a6398 f i stream.obj
 0001:000a5445       ?flush@gzstream@@QAE_NXZ   004a6445 f i stream.obj
 0001:000a5484       ?write@gzstream@@UAEHPBXH@Z 004a6484 f i stream.obj
 0001:000a5507       ??_Ggzstream@@UAEPAXI@Z    004a6507 f i stream.obj
 0001:000a5507       ??_Egzstream@@UAEPAXI@Z    004a6507 f i  CIL library: CIL module
 0001:000a554f       ?openrawfile@@YAPAUstream@@PBD0@Z 004a654f f   stream.obj
 0001:000a55cb       ?openfile@@YAPAUstream@@PBD0@Z 004a65cb f   stream.obj
 0001:000a55ef       ?opentempfile@@YAPAUstream@@PBD0@Z 004a65ef f   stream.obj
 0001:000a5670       ?opengzfile@@YAPAUstream@@PBD0PAU1@H@Z 004a6670 f   stream.obj
 0001:000a56f2       ?loadfile@@YAPADPBDPAH@Z   004a66f2 f   stream.obj
 0001:000a5762       ??_Gstream@@UAEPAXI@Z      004a6762 f i stream.obj
 0001:000a5762       ??_Estream@@UAEPAXI@Z      004a6762 f i  CIL library: CIL module
 0001:000a577f       ?getchar@stream@@UAEHXZ    004a677f f i stream.obj
 0001:000a579e       ?putstring@stream@@UAE_NPBD@Z 004a679e f i stream.obj
 0001:000a57c6       ?putchar@stream@@UAE_NH@Z  004a67c6 f i stream.obj
 0001:000a57e4       ?putline@stream@@UAE_NPBD@Z 004a67e4 f i stream.obj
 0001:000a580c       ?printf@stream@@UAAHPBDZZ  004a680c f i stream.obj
 0001:000a580c       ?tell@stream@@UAEJXZ       004a680c f i stream.obj
 0001:000a5810       ?getcrc@stream@@UAEIXZ     004a6810 f i stream.obj
 0001:000a5810       ?type@md2@@UBEHXZ          004a6810 f i rendermodel.obj
 0001:000a5810       ?setBIH@model@@UAEPAUBIH@@XZ 004a6810 f i rendermodel.obj
 0001:000a5813       ??1stream@@UAE@XZ          004a6813 f i stream.obj
 0001:000a581a       ?reloadMT@@YAIXZ           004a681a f   tools.obj
 0001:000a5956       ?randomMT@@YAIXZ           004a6956 f   tools.obj
 0001:000a5998       ??0ziparchive@@QAE@XZ      004a6998 f i zip.obj
 0001:000a5a14       ??1?$hashtable@PBDUzipfile@@@@QAE@XZ 004a6a14 f i zip.obj
 0001:000a5e3b       ?findzip@@YAPAUziparchive@@PBD@Z 004a6e3b f   zip.obj
 0001:000a6127       ?addzip@@YA_NPBD00@Z       004a7127 f   zip.obj
 0001:000a635a       ?removezip@@YA_NPBD@Z      004a735a f   zip.obj
 0001:000a6427       ??_Gziparchive@@QAEPAXI@Z  004a7427 f i zip.obj
 0001:000a6480       ?readbuf@zipstream@@QAEXI@Z 004a7480 f i zip.obj
 0001:000a6509       ?open@zipstream@@QAE_NPAUziparchive@@PAUzipfile@@@Z 004a7509 f i zip.obj
 0001:000a6597       ?stopreading@zipstream@@QAEXXZ 004a7597 f i zip.obj
 0001:000a65f1       ?close@zipstream@@UAEXXZ   004a75f1 f i zip.obj
 0001:000a6622       ?size@zipstream@@UAEJXZ    004a7622 f i zip.obj
 0001:000a6629       ?end@zipstream@@UAE_NXZ    004a7629 f i zip.obj
 0001:000a6639       ?tell@zipstream@@UAEJXZ    004a7639 f i zip.obj
 0001:000a6655       ?seek@zipstream@@UAE_NJH@Z 004a7655 f i zip.obj
 0001:000a67b0       ?read@zipstream@@UAEHPAXH@Z 004a77b0 f i zip.obj
 0001:000a6898       ??_Gzipstream@@UAEPAXI@Z   004a7898 f i zip.obj
 0001:000a6898       ??_Ezipstream@@UAEPAXI@Z   004a7898 f i  CIL library: CIL module
 0001:000a68e0       ?openzipfile@@YAPAUstream@@PBD0@Z 004a78e0 f   zip.obj
 0001:000a69c8       ?listzipfiles@@YAHPBD0AAU?$vector@PAD@@@Z 004a79c8 f   zip.obj
 0001:000a6b16       ?run@?$_icmd_addzip@$0CDG@@@SAXPBD00@Z 004a7b16 f   zip.obj
 0001:000a6b3f       ?run@?$_icmd_removezip@$0CDH@@@SAXPBD@Z 004a7b3f f   zip.obj
 0001:000a6b44       ?access@?$hashtable@PBDUzipfile@@@@QAEPAUzipfile@@ABQBD@Z 004a7b44 f i zip.obj
 0001:000a6b88       ??1?$hashset@U?$hashtableentry@PBDUzipfile@@@@@@QAE@XZ 004a7b88 f i zip.obj
 0001:000a6bee       ??1?$vector@Uzipfile@@@@QAE@XZ 004a7bee f i zip.obj
 0001:000a6c2b       ?add@?$vector@Uzipfile@@@@QAEAAUzipfile@@XZ 004a7c2b f i zip.obj
 0001:000a6c86       ?add@?$vector@PAUziparchive@@@@QAEAAPAUziparchive@@ABQAU2@@Z 004a7c86 f i zip.obj
 0001:000a6ccc       ?removeobj@?$vector@PAUziparchive@@@@QAEXABQAUziparchive@@@Z 004a7ccc f i zip.obj
 0001:000a6d11       ?growbuf@?$vector@Uinterest@ai@@@@QAEXH@Z 004a7d11 f i ai.obj
 0001:000a6d11       ?growbuf@?$vector@Uzipfile@@@@QAEXH@Z 004a7d11 f i zip.obj
 0001:000a6d11       ?growbuf@?$vector@Uvert@ragdollskel@@@@QAEXH@Z 004a7d11 f i rendermodel.obj
 0001:000a6d67       ?growbuf@?$vector@PAUziparchive@@@@QAEXH@Z 004a7d67 f i zip.obj
 0001:000a6dcb       ??1chain@?$hashset@U?$hashtableentry@PBDUsoundsample@@@@@@QAE@XZ 004a7dcb f i sound.obj
 0001:000a6dcb       ??1chain@?$hashset@U?$hashtableentry@PBDUzipfile@@@@@@QAE@XZ 004a7dcb f i zip.obj
 0001:000a6def       ??1?$hashtableentry@PBDUzipfile@@@@QAE@XZ 004a7def f i zip.obj
 0001:000a6def       ??1?$hashtableentry@PBDUsoundsample@@@@QAE@XZ 004a7def f i sound.obj
 0001:000a6e22       ?insert@?$hashset@U?$hashtableentry@PBDUzipfile@@@@@@QAEPAUchain@1@I@Z 004a7e22 f i zip.obj
 0001:000a6ec7       ??0chain@?$hashset@U?$hashtableentry@PBDUzipfile@@@@@@QAE@XZ 004a7ec7 f i zip.obj
 0001:000a6ef9       ??1avoidset@ai@@QAE@XZ     004a7ef9 f i ai.obj
 0001:000a6f3e       ?run@?$_icmd_addbot@$0BA@@ai@@SAXPAD@Z 004a7f3e f   ai.obj
 0001:000a6f79       ?run@?$_icmd_delbot@$0BB@@ai@@SAXXZ 004a7f79 f   ai.obj
 0001:000a6f88       ?run@?$_icmd_botlimit@$0BC@@ai@@SAXPAH@Z 004a7f88 f   ai.obj
 0001:000a6f9e       ?run@?$_icmd_botbalance@$0BD@@ai@@SAXPAH@Z 004a7f9e f   ai.obj
 0001:000a6fb4       ?viewdist@ai@@YAMH@Z       004a7fb4 f   ai.obj
 0001:000a6ff1       ?viewfieldx@ai@@YAMH@Z     004a7ff1 f   ai.obj
 0001:000a7033       ?weaprange@ai@@YA_NPAUfpsent@@HM@Z 004a8033 f   ai.obj
 0001:000a708b       ?targetable@ai@@YA_NPAUfpsent@@0@Z 004a808b f   ai.obj
 0001:000a70e2       ?getsight@ai@@YA_NAAUvec@@MM00MMM@Z 004a80e2 f   ai.obj
 0001:000a71db       ?cansee@ai@@YA_NPAUfpsent@@AAUvec@@11@Z 004a81db f   ai.obj
 0001:000a7244       ?canshoot@ai@@YA_NPAUfpsent@@0@Z 004a8244 f   ai.obj
 0001:000a729c       ?hastarget@ai@@YA_NPAUfpsent@@AAUaistate@1@0MMM@Z 004a829c f   ai.obj
 0001:000a73ee       ?getaimpos@ai@@YA?AUvec@@PAUfpsent@@0@Z 004a83ee f   ai.obj
 0001:000a756f       ?create@ai@@YAXPAUfpsent@@@Z 004a856f f   ai.obj
 0001:000a75b9       ?init@ai@@YAXPAUfpsent@@HHHHHPBD1@Z 004a85b9 f   ai.obj
 0001:000a77d9       ?update@ai@@YAXXZ          004a87d9 f   ai.obj
 0001:000a78bb       ?checkothers@ai@@YA_NAAU?$vector@H@@PAUfpsent@@HHH_N@Z 004a88bb f   ai.obj
 0001:000a79a6       ?makeroute@ai@@YA_NPAUfpsent@@AAUaistate@1@H_N2@Z 004a89a6 f   ai.obj
 0001:000a7a2c       ?makeroute@ai@@YA_NPAUfpsent@@AAUaistate@1@ABUvec@@_N3@Z 004a8a2c f   ai.obj
 0001:000a7a58       ?randomnode@ai@@YA_NPAUfpsent@@AAUaistate@1@ABUvec@@MM@Z 004a8a58 f   ai.obj
 0001:000a7b49       ?randomnode@ai@@YA_NPAUfpsent@@AAUaistate@1@MM@Z 004a8b49 f   ai.obj
 0001:000a7b81       ?badhealth@ai@@YA_NPAUfpsent@@@Z 004a8b81 f   ai.obj
 0001:000a7bab       ?enemy@ai@@YA_NPAUfpsent@@AAUaistate@1@ABUvec@@M_N@Z 004a8bab f   ai.obj
 0001:000a7c87       ?patrol@ai@@YA_NPAUfpsent@@AAUaistate@1@ABUvec@@MMH_N@Z 004a8c87 f   ai.obj
 0001:000a7d35       ?defend@ai@@YA_NPAUfpsent@@AAUaistate@1@ABUvec@@MMH@Z 004a8d35 f   ai.obj
 0001:000a7dc6       ?violence@ai@@YA_NPAUfpsent@@AAUaistate@1@0_N@Z 004a8dc6 f   ai.obj
 0001:000a7e3e       ?target@ai@@YA_NPAUfpsent@@AAUaistate@1@_N2M@Z 004a8e3e f   ai.obj
 0001:000a7f38       ?hasgoodammo@ai@@YA_NPAUfpsent@@@Z 004a8f38 f   ai.obj
 0001:000a7f58       ?assist@ai@@YAXPAUfpsent@@AAUaistate@1@AAU?$vector@Uinterest@ai@@@@_N3@Z 004a8f58 f   ai.obj
 0001:000a8158       ?items@ai@@YAXPAUfpsent@@AAUaistate@1@AAU?$vector@Uinterest@ai@@@@_N@Z 004a9158 f   ai.obj
 0001:000a819e       ?parseinterests@ai@@YA_NPAUfpsent@@AAUaistate@1@AAU?$vector@Uinterest@ai@@@@_N3@Z 004a919e f   ai.obj
 0001:000a8277       ?find@ai@@YA_NPAUfpsent@@AAUaistate@1@_N@Z 004a9277 f   ai.obj
 0001:000a8433       ?damaged@ai@@YAXPAUfpsent@@0@Z 004a9433 f   ai.obj
 0001:000a8537       ?findorientation@ai@@YAXAAUvec@@MM0@Z 004a9537 f   ai.obj
 0001:000a85c0       ?setup@ai@@YAXPAUfpsent@@_N@Z 004a95c0 f   ai.obj
 0001:000a8699       ?itemspawned@ai@@YAXH@Z    004a9699 f   ai.obj
 0001:000a8828       ?check@ai@@YA_NPAUfpsent@@AAUaistate@1@@Z 004a9828 f   ai.obj
 0001:000a8849       ?dowait@ai@@YAHPAUfpsent@@AAUaistate@1@@Z 004a9849 f   ai.obj
 0001:000a88ad       ?dodefend@ai@@YAHPAUfpsent@@AAUaistate@1@@Z 004a98ad f   ai.obj
 0001:000a89e7       ?dointerest@ai@@YAHPAUfpsent@@AAUaistate@1@@Z 004a99e7 f   ai.obj
 0001:000a8ade       ?dopursue@ai@@YAHPAUfpsent@@AAUaistate@1@@Z 004a9ade f   ai.obj
 0001:000a8b79       ?closenode@ai@@YAHPAUfpsent@@_N@Z 004a9b79 f   ai.obj
 0001:000a8c57       ?wpspot@ai@@YA_NPAUfpsent@@H_N@Z 004a9c57 f   ai.obj
 0001:000a8cd1       ?anynode@ai@@YA_NPAUfpsent@@AAUaistate@1@_N@Z 004a9cd1 f   ai.obj
 0001:000a8e33       ?hunt@ai@@YA_NPAUfpsent@@AAUaistate@1@H@Z 004a9e33 f   ai.obj
 0001:000a8f57       ?jumpto@ai@@YAXPAUfpsent@@AAUaistate@1@ABUvec@@@Z 004a9f57 f   ai.obj
 0001:000a90eb       ?fixfullrange@ai@@YAXAAM00_N@Z 004aa0eb f   ai.obj
 0001:000a916b       ?fixrange@ai@@YAXAAM0@Z    004aa16b f   ai.obj
 0001:000a9180       ?getyawpitch@ai@@YAXABUvec@@0AAM1@Z 004aa180 f   ai.obj
 0001:000a91d8       ?scaleyawpitch@ai@@YAXAAM0MMMM@Z 004aa1d8 f   ai.obj
 0001:000a92cf       ?lockon@ai@@YA_NPAUfpsent@@0M@Z 004aa2cf f   ai.obj
 0001:000a9362       ?process@ai@@YAHPAUfpsent@@AAUaistate@1@@Z 004aa362 f   ai.obj
 0001:000a9a1e       ?hasrange@ai@@YA_NPAUfpsent@@0H@Z 004aaa1e f   ai.obj
 0001:000a9a75       ?request@ai@@YA_NPAUfpsent@@AAUaistate@1@@Z 004aaa75 f   ai.obj
 0001:000a9ba3       ?timeouts@ai@@YAXPAUfpsent@@AAUaistate@1@@Z 004aaba3 f   ai.obj
 0001:000a9d7f       ?logic@ai@@YAXPAUfpsent@@AAUaistate@1@_N@Z 004aad7f f   ai.obj
 0001:000a9ea6       ?avoid@ai@@YAXXZ           004aaea6 f   ai.obj
 0001:000a9f2f       ?think@ai@@YAXPAUfpsent@@_N@Z 004aaf2f f   ai.obj
 0001:000aa122       ?drawstate@ai@@YAXPAUfpsent@@AAUaistate@1@_NH@Z 004ab122 f   ai.obj
 0001:000aa2ba       ?drawroute@ai@@YAXPAUfpsent@@AAUaistate@1@M@Z 004ab2ba f   ai.obj
 0001:000aa488       ?render@ai@@YAXXZ          004ab488 f   ai.obj
 0001:000aa75e       ?inrange@?$vector@Uwaypoint@ai@@@@QBE_NH@Z 004ab75e f i ai.obj
 0001:000aa771       ?add@?$vector@Uinterest@ai@@@@QAEAAUinterest@ai@@XZ 004ab771 f i ai.obj
 0001:000aa7d0       ?removeunordered@?$vector@Uinterest@ai@@@@QAE?AUinterest@ai@@H@Z 004ab7d0 f i ai.obj
 0001:000aa808       ?abovehead@dynent@@QAE?AUvec@@XZ 004ab808 f i ai.obj
 0001:000aa845       ?remove@?$vector@Uaistate@ai@@@@QAE?AUaistate@ai@@H@Z 004ab845 f i ai.obj
 0001:000aa886       ?add@avoidset@ai@@QAEXPAXM@Z 004ab886 f i ai.obj
 0001:000aa8c6       ?add@avoidset@ai@@QAEXAAU12@@Z 004ab8c6 f i ai.obj
 0001:000aa97c       ?addprevnode@aiinfo@ai@@QAEXH@Z 004ab97c f i ai.obj
 0001:000aa997       ?canpickup@fpsstate@@QAE_NH@Z 004ab997 f i ai.obj
 0001:000aaa04       ?hasammo@fpsstate@@QAEHHH@Z 004aba04 f i ai.obj
 0001:000aaa1c       ?switchstate@aiinfo@ai@@QAEAAUaistate@2@AAU32@HHH@Z 004aba1c f i ai.obj
 0001:000aaa4f       ?headpos@physent@@QBE?AUvec@@M@Z 004aba4f f i ai.obj
 0001:000aaa7d       ?find@avoidset@ai@@QBE_NHPAUfpsent@@@Z 004aba7d f i ai.obj
 0001:000aaad1       ?hasprevnode@aiinfo@ai@@QBE_NH@Z 004abad1 f i ai.obj
 0001:000aaaf0       ?stopmoving@dynent@@QAEXXZ 004abaf0 f i ai.obj
 0001:000aab14       ??_Gaiinfo@ai@@QAEPAXI@Z   004abb14 f i ai.obj
 0001:000aab62       ?clearsetup@aiinfo@ai@@QAEXXZ 004abb62 f i ai.obj
 0001:000aabdc       ?growbuf@?$vector@Uaistate@ai@@@@QAEXH@Z 004abbdc f i ai.obj
 0001:000aac32       ?addstate@aiinfo@ai@@QAEAAUaistate@2@HHH@Z 004abc32 f i ai.obj
 0001:000aac91       ?wipe@aiinfo@ai@@QAEXXZ    004abc91 f i ai.obj
 0001:000aacc0       ?reset@aiinfo@ai@@QAEX_N@Z 004abcc0 f i ai.obj
 0001:000aad09       ??0aiinfo@ai@@QAE@XZ       004abd09 f i ai.obj
 0001:000aad63       ?squaredist@vec@@QBEMABU1@@Z 004abd63 f i ai.obj
 0001:000aad9a       ?usesvertexarray@?$varenderer@$0A@@@UAE_NXZ 004abd9a f i renderparticles.obj
 0001:000aad9a       ?depthtest@rendertarget@@UBE_NXZ 004abd9a f i glare.obj
 0001:000aad9a       ?flipdebug@rendertarget@@UBE_NXZ 004abd9a f i glare.obj
 0001:000aad9a       ?dorender@rendertarget@@UAE_NXZ 004abd9a f i glare.obj
 0001:000aad9a       ?hidefrags@ctfservmode@server@@UAE_NXZ 004abd9a f i server1.obj
 0001:000aad9a       ?filter@rendertarget@@UBE_NXZ 004abd9a f i glare.obj
 0001:000aad9a       ?hidefrags@captureservmode@server@@UAE_NXZ 004abd9a f i server1.obj
 0001:000aad9a       ?shouldrender@rendertarget@@UAE_NXZ 004abd9a f i glare.obj
 0001:000aad9a       ?hidefrags@ctfclientmode@game@@UAE_NXZ 004abd9a f i client1.obj
 0001:000aad9a       ?usesvertexarray@?$varenderer@$00@@UAE_NXZ 004abd9a f i renderparticles.obj
 0001:000aad9a       ?usesvertexarray@?$varenderer@$01@@UAE_NXZ 004abd9a f i renderparticles.obj
 0001:000aad9a       ?loaddefaultparts@animmodel@@UAE_NXZ 004abd9a f i rendermodel.obj
 0001:000aad9a       ?keepable@explodeevent@server@@UBE_NXZ 004abd9a f i server1.obj
 0001:000aad9a       ?hidefrags@captureclientmode@game@@UAE_NXZ 004abd9a f i client1.obj
 0001:000aad9d       ?getteamscores@captureservmode@server@@UAEXAAU?$vector@Uteamscore@@@@@Z 004abd9d f i server1.obj
 0001:000aad9d       ?getteamscores@captureclientmode@game@@UAEXAAU?$vector@Uteamscore@@@@@Z 004abd9d f i client1.obj
 0001:000aade6       ?findscore@captureclientmode@game@@QAEAAUscore@12@PBD@Z 004abde6 f i client1.obj
 0001:000aaed5       ?initbase@captureclientmode@game@@QAEXHHPBD0HH@Z 004abed5 f i client1.obj
 0001:000aaf47       ?disttoenemy@captureclientmode@game@@QAEMAAUbaseinfo@12@@Z 004abf47 f i client1.obj
 0001:000aafc0       ?insidebase@captureclientmode@game@@QAE_NABUbaseinfo@12@ABUvec@@@Z 004abfc0 f i client1.obj
 0001:000aafc0       ?insidebase@captureservmode@server@@QAE_NABUbaseinfo@12@ABUvec@@@Z 004abfc0 f i server1.obj
 0001:000ab00d       ??0captureclientmode@game@@QAE@XZ 004ac00d f i client1.obj
 0001:000ab08e       ?replenishammo@captureclientmode@game@@QAEXXZ 004ac08e f i client1.obj
 0001:000ab14a       ?receiveammo@captureclientmode@game@@QAEXPAUfpsent@@H@Z 004ac14a f i client1.obj
 0001:000ab1de       ?checkitems@captureclientmode@game@@UAEXPAUfpsent@@@Z 004ac1de f i client1.obj
 0001:000ab314       ?rendertether@captureclientmode@game@@QAEXPAUfpsent@@@Z 004ac314 f i client1.obj
 0001:000ab5b9       ?preload@captureclientmode@game@@UAEXXZ 004ac5b9 f i client1.obj
 0001:000ab5d4       ?rendergame@captureclientmode@game@@UAEXXZ 004ac5d4 f i client1.obj
 0001:000abbcc       ?calcradarscale@captureclientmode@game@@QAEMXZ 004acbcc f i client1.obj
 0001:000abbcc       ?calcradarscale@ctfclientmode@game@@QAEMXZ 004acbcc f i client1.obj
 0001:000abc18       ?drawblips@captureclientmode@game@@QAEXPAUfpsent@@MHHH_N@Z 004acc18 f i client1.obj
 0001:000abf0c       ?respawnwait@captureclientmode@game@@UAEHPAUfpsent@@@Z 004acf0c f i client1.obj
 0001:000abf57       ?clipconsole@ctfclientmode@game@@UAEHHH@Z 004acf57 f i client1.obj
 0001:000abf57       ?clipconsole@captureclientmode@game@@UAEHHH@Z 004acf57 f i client1.obj
 0001:000abf67       ?drawradar@ctfclientmode@game@@QAEXMMM@Z 004acf67 f i client1.obj
 0001:000abf67       ?drawradar@captureclientmode@game@@QAEXMMM@Z 004acf67 f i client1.obj
 0001:000ac01b       ?drawhud@captureclientmode@game@@UAEXPAUfpsent@@HH@Z 004ad01b f i client1.obj
 0001:000ac3eb       ?setup@captureclientmode@game@@UAEXXZ 004ad3eb f i client1.obj
 0001:000ac5e5       ?senditems@captureclientmode@game@@UAEXAAUpacketbuf@@@Z 004ad5e5 f i client1.obj
 0001:000ac670       ?updatebase@captureclientmode@game@@QAEXHPBD0HH@Z 004ad670 f i client1.obj
 0001:000ac8f2       ?setscore@captureclientmode@game@@QAEXHPBDH@Z 004ad8f2 f i client1.obj
 0001:000ac9f5       ?closesttoenemy@captureclientmode@game@@QAEHPBD_N1@Z 004ad9f5 f i client1.obj
 0001:000acab9       ?pickteamspawn@captureclientmode@game@@QAEHPBD@Z 004adab9 f i client1.obj
 0001:000acbd7       ?pickspawn@captureclientmode@game@@UAEXPAUfpsent@@@Z 004adbd7 f i client1.obj
 0001:000acbf8       ?prefixnextmap@captureclientmode@game@@UAEPBDXZ 004adbf8 f i client1.obj
 0001:000acbfe       ?aifind@captureclientmode@game@@UAEXPAUfpsent@@AAUaistate@ai@@AAU?$vector@Uinterest@ai@@@@@Z 004adbfe f i client1.obj
 0001:000acee0       ?aidefend@captureclientmode@game@@UAE_NPAUfpsent@@AAUaistate@ai@@@Z 004adee0 f i client1.obj
 0001:000ad176       ?aipursue@captureclientmode@game@@UAE_NPAUfpsent@@AAUaistate@ai@@@Z 004ae176 f i client1.obj
 0001:000ad205       ??_Gctfclientmode@game@@UAEPAXI@Z 004ae205 f i client1.obj
 0001:000ad205       ??_Ecaptureclientmode@game@@UAEPAXI@Z 004ae205 f i  CIL library: CIL module
 0001:000ad205       ??_Ectfclientmode@game@@UAEPAXI@Z 004ae205 f i  CIL library: CIL module
 0001:000ad205       ??_Gcaptureclientmode@game@@UAEPAXI@Z 004ae205 f i client1.obj
 0001:000ad222       ??_E_ccmd_dropflag@?1???0ctfclientmode@game@@QAE@XZ@UAEPAXI@Z 004ae222 f i  CIL library: CIL module
 0001:000ad222       ??_E_ccmd_repammo@?1???0captureclientmode@game@@QAE@XZ@UAEPAXI@Z 004ae222 f i  CIL library: CIL module
 0001:000ad222       ??_G_ccmd_repammo@?1???0captureclientmode@game@@QAE@XZ@UAEPAXI@Z 004ae222 f i client1.obj
 0001:000ad222       ??_G_ccmd_dropflag@?1???0ctfclientmode@game@@QAE@XZ@UAEPAXI@Z 004ae222 f i client1.obj
 0001:000ad25b       ??1captureclientmode@game@@UAE@XZ 004ae25b f i client1.obj
 0001:000ad25b       ??1ctfclientmode@game@@UAE@XZ 004ae25b f i client1.obj
 0001:000ad2c0       ?reset@flag@ctfclientmode@game@@QAEXXZ 004ae2c0 f i client1.obj
 0001:000ad350       ?pos@flag@ctfclientmode@game@@QAEABUvec@@XZ 004ae350 f i client1.obj
 0001:000ad370       ?addflag@ctfclientmode@game@@QAE_NHABUvec@@HH@Z 004ae370 f i client1.obj
 0001:000ad46b       ?ownflag@ctfclientmode@game@@QAEXHPAUfpsent@@H@Z 004ae46b f i client1.obj
 0001:000ad4bb       ?dropflag@ctfclientmode@game@@QAEXHABUvec@@MH@Z 004ae4bb f i client1.obj
 0001:000ad516       ?returnflag@ctfclientmode@game@@QAEXHH@Z 004ae516 f i client1.obj
 0001:000ad560       ?getteamscore@ctfclientmode@game@@UAEHPBD@Z 004ae560 f i client1.obj
 0001:000ad560       ?getteamscore@ctfservmode@server@@UAEHPBD@Z 004ae560 f i server1.obj
 0001:000ad5a9       ?insidebase@ctfclientmode@game@@QAE_NABUflag@12@ABUvec@@@Z 004ae5a9 f i client1.obj
 0001:000ad5a9       ?insidebase@ctfservmode@server@@QAE_NABUflag@12@ABUvec@@@Z 004ae5a9 f i server1.obj
 0001:000ad5f7       ??0ctfclientmode@game@@QAE@XZ 004ae5f7 f i client1.obj
 0001:000ad673       ?preload@ctfclientmode@game@@UAEXXZ 004ae673 f i client1.obj
 0001:000ad6b3       ?drawminimap@ctfclientmode@game@@QAEXPAUfpsent@@MMM@Z 004ae6b3 f i client1.obj
 0001:000ad6b3       ?drawminimap@captureclientmode@game@@QAEXPAUfpsent@@MMM@Z 004ae6b3 f i client1.obj
 0001:000ad804       ?drawblip@ctfclientmode@game@@QAEXPAUfpsent@@MMMABUvec@@_N@Z 004ae804 f i client1.obj
 0001:000ad926       ?drawblip@ctfclientmode@game@@QAEXPAUfpsent@@MMMH_N@Z 004ae926 f i client1.obj
 0001:000adbad       ?drawhud@ctfclientmode@game@@UAEXPAUfpsent@@HH@Z 004aebad f i client1.obj
 0001:000ae0ea       ?removeplayer@ctfclientmode@game@@UAEXPAUfpsent@@@Z 004af0ea f i client1.obj
 0001:000ae137       ?interpflagpos@ctfclientmode@game@@QAE?AUvec@@AAUflag@12@AAM@Z 004af137 f i client1.obj
 0001:000ae283       ?rendergame@ctfclientmode@game@@UAEXXZ 004af283 f i client1.obj
 0001:000ae804       ?setup@ctfclientmode@game@@UAEXXZ 004af804 f i client1.obj
 0001:000ae9e6       ?senditems@ctfclientmode@game@@UAEXAAUpacketbuf@@@Z 004af9e6 f i client1.obj
 0001:000aead4       ?parseflags@ctfclientmode@game@@QAEXAAU?$databuf@E@@_N@Z 004afad4 f i client1.obj
 0001:000aec82       ?dropflag@ctfclientmode@game@@QAEXPAUfpsent@@HHABUvec@@@Z 004afc82 f i client1.obj
 0001:000aedf4       ?flagexplosion@ctfclientmode@game@@QAEXHHABUvec@@@Z 004afdf4 f i client1.obj
 0001:000aef22       ?flageffect@ctfclientmode@game@@QAEXHHABUvec@@0@Z 004aff22 f i client1.obj
 0001:000af03b       ?returnflag@ctfclientmode@game@@QAEXPAUfpsent@@HH@Z 004b003b f i client1.obj
 0001:000af1af       ?spawnflag@ctfclientmode@game@@QAEXAAUflag@12@@Z 004b01af f i client1.obj
 0001:000af1df       ?resetflag@ctfclientmode@game@@QAEXHHHHH@Z 004b01df f i client1.obj
 0001:000af39b       ?scoreflag@ctfclientmode@game@@QAEXPAUfpsent@@HHHHHHHH@Z 004b039b f i client1.obj
 0001:000af720       ?takeflag@ctfclientmode@game@@QAEXPAUfpsent@@HH@Z 004b0720 f i client1.obj
 0001:000af900       ?checkitems@ctfclientmode@game@@UAEXPAUfpsent@@@Z 004b0900 f i client1.obj
 0001:000afa81       ?respawned@ctfclientmode@game@@UAEXPAUfpsent@@@Z 004b0a81 f i client1.obj
 0001:000afb70       ?respawnwait@ctfclientmode@game@@UAEHPAUfpsent@@@Z 004b0b70 f i client1.obj
 0001:000afbbe       ?pickholdspawn@ctfclientmode@game@@QAE_NPAUfpsent@@@Z 004b0bbe f i client1.obj
 0001:000afe15       ?pickspawn@ctfclientmode@game@@UAEXPAUfpsent@@@Z 004b0e15 f i client1.obj
 0001:000afea9       ?prefixnextmap@ctfclientmode@game@@UAEPBDXZ 004b0ea9 f i client1.obj
 0001:000afed5       ?aihomerun@ctfclientmode@game@@QAE_NPAUfpsent@@AAUaistate@ai@@@Z 004b0ed5 f i client1.obj
 0001:000b011c       ?aicheck@ctfclientmode@game@@UAE_NPAUfpsent@@AAUaistate@ai@@@Z 004b111c f i client1.obj
 0001:000b0296       ?aifind@ctfclientmode@game@@UAEXPAUfpsent@@AAUaistate@ai@@AAU?$vector@Uinterest@ai@@@@@Z 004b1296 f i client1.obj
 0001:000b06cc       ?aidefend@ctfclientmode@game@@UAE_NPAUfpsent@@AAUaistate@ai@@@Z 004b16cc f i client1.obj
 0001:000b0a0e       ?aipursue@ctfclientmode@game@@UAE_NPAUfpsent@@AAUaistate@ai@@@Z 004b1a0e f i client1.obj
 0001:000b0bd4       ?switchname@game@@YAXPBD@Z 004b1bd4 f   client1.obj
 0001:000b0c4d       ?run@?$_icmd_name@$0ED@@game@@SAXPAD@Z 004b1c4d f   client1.obj
 0001:000b0c56       ?run@?$_icmd_getname@$0EE@@game@@SAXXZ 004b1c56 f   client1.obj
 0001:000b0c68       ?run@?$_icmd_team@$0EP@@game@@SAXPAD@Z 004b1c68 f   client1.obj
 0001:000b0cb9       ?run@?$_icmd_getteam@$0FA@@game@@SAXXZ 004b1cb9 f   client1.obj
 0001:000b0ccb       ??0authkey@game@@QAE@PBD00@Z 004b1ccb f i client1.obj
 0001:000b0d13       ?findauthkey@game@@YAPAUauthkey@1@PBD@Z 004b1d13 f   client1.obj
 0001:000b0da4       ?addauthkey@game@@YAXPBD00@Z 004b1da4 f   client1.obj
 0001:000b0edf       ?run@?$_icmd_authkey@$0HK@@game@@SAXPAD00@Z 004b1edf f   client1.obj
 0001:000b0ee4       ?run@?$_icmd_hasauthkey@$0ID@@game@@SAXPAD0@Z 004b1ee4 f   client1.obj
 0001:000b0f59       ?genauthkey@game@@YAXPBD@Z 004b1f59 f   client1.obj
 0001:000b0fe8       ?saveauthkeys@game@@YAXXZ  004b1fe8 f   client1.obj
 0001:000b1058       ?allowedittoggle@game@@YA_NXZ 004b2058 f   client1.obj
 0001:000b10be       ?edittoggled@game@@YAX_N@Z 004b20be f   client1.obj
 0001:000b1137       ?run@?$_icmd_getclientname@$0MC@@game@@SAXPAH@Z 004b2137 f   client1.obj
 0001:000b115a       ?run@?$_icmd_getclientteam@$0MJ@@game@@SAXPAH@Z 004b215a f   client1.obj
 0001:000b117d       ?run@?$_icmd_getclientmodel@$0NA@@game@@SAXPAH@Z 004b217d f   client1.obj
 0001:000b119f       ?getclienticon@game@@YAPBDH@Z 004b219f f   client1.obj
 0001:000b1206       ?run@?$_icmd_getclienticon@$0NJ@@game@@SAXPAH@Z 004b2206 f   client1.obj
 0001:000b1219       ?run@?$_icmd_ismaster@$0OA@@game@@SAXPAH@Z 004b2219 f   client1.obj
 0001:000b1247       ?run@?$_icmd_isadmin@$0OH@@game@@SAXPAH@Z 004b2247 f   client1.obj
 0001:000b1275       ?run@?$_icmd_getmastermode@$0OJ@@game@@SAXXZ 004b2275 f   client1.obj
 0001:000b1282       ?run@?$_icmd_mastermodename@$0OK@@game@@SAXPAH@Z 004b2282 f   client1.obj
 0001:000b129b       ?run@?$_icmd_isspectator@$0PB@@game@@SAXPAH@Z 004b229b f   client1.obj
 0001:000b12c6       ?run@?$_icmd_isai@$0PJ@@game@@SAXPAH0@Z 004b22c6 f   client1.obj
 0001:000b1303       ?parseplayer@game@@YAHPBD@Z 004b2303 f   client1.obj
 0001:000b13af       ?run@?$_icmd_getclientnum@$0BBC@@game@@SAXPAD@Z 004b23af f   client1.obj
 0001:000b13d4       ?listclients@game@@YAX_N@Z 004b23d4 f   client1.obj
 0001:000b1512       ?run@?$_icmd_listclients@$0BCI@@game@@SAXPAH@Z 004b2512 f   client1.obj
 0001:000b1527       ?clearbans@game@@YAXXZ     004b2527 f   client1.obj
 0001:000b1536       ?kick@game@@YAXPBD@Z       004b2536 f   client1.obj
 0001:000b1564       ?setteam@game@@YAXPBD0@Z   004b2564 f   client1.obj
 0001:000b1596       ?hashpwd@game@@YAXPBD@Z    004b2596 f   client1.obj
 0001:000b15d5       ?setmaster@game@@YAXPBD@Z  004b25d5 f   client1.obj
 0001:000b1669       ?run@?$_icmd_mastermode@$0BFB@@game@@SAXPAH@Z 004b2669 f   client1.obj
 0001:000b167f       ?tryauth@game@@YA_NPBD@Z   004b267f f   client1.obj
 0001:000b16b0       ?run@?$_icmd_auth@$0BFL@@game@@SAXPAD@Z 004b26b0 f   client1.obj
 0001:000b16b5       ?run@?$_icmd_spectator@$0BGC@@game@@SAXPAHPAD@Z 004b26b5 f   client1.obj
 0001:000b16f0       ?run@?$_icmd_checkmaps@$0BGE@@game@@SAXXZ 004b26f0 f   client1.obj
 0001:000b16ff       ?changemapserv@game@@YAXPBDH@Z 004b26ff f   client1.obj
 0001:000b17f6       ?run@?$_icmd_mode@$0BIN@@game@@SAXPAH@Z 004b27f6 f   client1.obj
 0001:000b1859       ?run@?$_icmd_getmode@$0BIO@@game@@SAXXZ 004b2859 f   client1.obj
 0001:000b1866       ?run@?$_icmd_timeremaining@$0BJI@@game@@SAXPAH@Z 004b2866 f   client1.obj
 0001:000b18c8       ?run@?$_icmds_@$0BJJ@@game@@SAXPAH@Z 004b28c8 f   client1.obj
 0001:000b18f1       ?run@?$_icmds_@$0BJK@@game@@SAXPAH@Z 004b28f1 f   client1.obj
 0001:000b191a       ?run@?$_icmds_@$0BJL@@game@@SAXPAH@Z 004b291a f   client1.obj
 0001:000b1943       ?run@?$_icmds_@$0BJM@@game@@SAXPAH@Z 004b2943 f   client1.obj
 0001:000b196c       ?run@?$_icmds_@$0BJN@@game@@SAXPAH@Z 004b296c f   client1.obj
 0001:000b1995       ?run@?$_icmds_@$0BJO@@game@@SAXPAH@Z 004b2995 f   client1.obj
 0001:000b19be       ?run@?$_icmds_@$0BJP@@game@@SAXPAH@Z 004b29be f   client1.obj
 0001:000b19ed       ?run@?$_icmds_@$0BKA@@game@@SAXPAH@Z 004b29ed f   client1.obj
 0001:000b1a19       ?run@?$_icmds_@$0BKB@@game@@SAXPAH@Z 004b2a19 f   client1.obj
 0001:000b1a4a       ?run@?$_icmds_@$0BKC@@game@@SAXPAH@Z 004b2a4a f   client1.obj
 0001:000b1a7b       ?run@?$_icmds_@$0BKD@@game@@SAXPAH@Z 004b2a7b f   client1.obj
 0001:000b1aa4       ?run@?$_icmds_@$0BKE@@game@@SAXPAH@Z 004b2aa4 f   client1.obj
 0001:000b1ad0       ?run@?$_icmds_@$0BKF@@game@@SAXPAH@Z 004b2ad0 f   client1.obj
 0001:000b1afc       ?run@?$_icmds_@$0BKG@@game@@SAXPAH@Z 004b2afc f   client1.obj
 0001:000b1b28       ?run@?$_icmds_@$0BKH@@game@@SAXPAH@Z 004b2b28 f   client1.obj
 0001:000b1b54       ?run@?$_icmds_@$0BKI@@game@@SAXPAH@Z 004b2b54 f   client1.obj
 0001:000b1b80       ?run@?$_icmds_@$0BKJ@@game@@SAXPAH@Z 004b2b80 f   client1.obj
 0001:000b1bac       ?changemap@game@@YAXPBDH@Z 004b2bac f   client1.obj
 0001:000b1c33       ?changemap@game@@YAXPBD@Z  004b2c33 f   client1.obj
 0001:000b1c5e       ?run@?$_icmd_map@$0BLK@@game@@SAXPAD@Z 004b2c5e f   client1.obj
 0001:000b1c63       ?sendclipboard@game@@YAXXZ 004b2c63 f   client1.obj
 0001:000b1d4a       ?edittrigger@game@@YAXABUselinfo@@HHHH@Z 004b2d4a f   client1.obj
 0001:000b1ede       ?printvar@game@@YAXPAUfpsent@@PAUident@@@Z 004b2ede f   client1.obj
 0001:000b1fc2       ?vartrigger@game@@YAXPAUident@@@Z 004b2fc2 f   client1.obj
 0001:000b2051       ?pausegame@game@@YAXPAH@Z  004b3051 f   client1.obj
 0001:000b206d       ?addmsg@game@@YAXHPBDZZ    004b306d f   client1.obj
 0001:000b22ec       ?gamedisconnect@game@@YAX_N@Z 004b32ec f   client1.obj
 0001:000b239f       ?toserver@game@@YAXPAD@Z   004b339f f   client1.obj
 0001:000b2506       ?sayteam@game@@YAXPAD@Z    004b3506 f   client1.obj
 0001:000b2a60       ?sendposition@game@@YAXPAUfpsent@@_N@Z 004b3a60 f   client1.obj
 0001:000b2abc       ?sendpositions@game@@YAXXZ 004b3abc f   client1.obj
 0001:000b2b7a       ?sendmessages@game@@YAXXZ  004b3b7a f   client1.obj
 0001:000b2ce7       ?c2sinfo@game@@YAX_N@Z     004b3ce7 f   client1.obj
 0001:000b2d1d       ?sendintro@game@@YAXXZ     004b3d1d f   client1.obj
 0001:000b2df7       ?updatepos@game@@YAXPAUfpsent@@@Z 004b3df7 f   client1.obj
 0001:000b2f18       ?parsepositions@game@@YAXAAU?$databuf@E@@@Z 004b3f18 f   client1.obj
 0001:000b342c       ?parsestate@game@@YAXPAUfpsent@@AAU?$databuf@E@@_N@Z 004b442c f   client1.obj
 0001:000b3542       ?parsemessages@game@@YAXHPAUfpsent@@AAU?$databuf@E@@@Z 004b4542 f   client1.obj
 0001:000b5392       ?receivefile@game@@YAXPAEH@Z 004b6392 f   client1.obj
 0001:000b552f       ?getmap@game@@YAXXZ        004b652f f   client1.obj
 0001:000b5574       ?stopdemo@game@@YAXXZ      004b6574 f   client1.obj
 0001:000b559f       ?run@?$_icmd_recorddemo@$0HBA@@game@@SAXPAH@Z 004b659f f   client1.obj
 0001:000b55ce       ?run@?$_icmd_cleardemos@$0HBH@@game@@SAXPAH@Z 004b65ce f   client1.obj
 0001:000b55fd       ?run@?$_icmd_getdemo@$0HBP@@game@@SAXPAH@Z 004b65fd f   client1.obj
 0001:000b5633       ?listdemos@game@@YAXXZ     004b6633 f   client1.obj
 0001:000b564e       ?sendmap@game@@YAXXZ       004b664e f   client1.obj
 0001:000b579e       ?gotoplayer@game@@YAXPBD@Z 004b679e f   client1.obj
 0001:000b5851       ?gotosel@game@@YAXXZ       004b6851 f   client1.obj
 0001:000b58dd       ?add@?$vector@Uteamscore@@@@QAEAAUteamscore@@ABU2@@Z 004b68dd f i client1.obj
 0001:000b5914       ?add@?$vector@Uholdspawn@ctfclientmode@game@@@@QAEAAUholdspawn@ctfclientmode@game@@XZ 004b6914 f i client1.obj
 0001:000b597b       ?growbuf@?$vector@Uholdspawn@ctfclientmode@game@@@@QAEXH@Z 004b697b f i client1.obj
 0001:000b597b       ?growbuf@?$vector@Ulightmaptask@@@@QAEXH@Z 004b697b f i lightmap.obj
 0001:000b59d1       ?growbuf@?$vector@PAUauthkey@game@@@@QAEXH@Z 004b69d1 f i client1.obj
 0001:000b5a35       ?hitpush@fpsent@@QAEXHABUvec@@PAU1@H@Z 004b6a35 f i client1.obj
 0001:000b5aac       ??1fpsent@@QAE@XZ          004b6aac f i client1.obj
 0001:000b5b54       ??0animinterpinfo@@QAE@XZ  004b6b54 f i client1.obj
 0001:000b5b89       ??0dynent@@QAE@XZ          004b6b89 f i client1.obj
 0001:000b5c06       ??1dynent@@QAE@XZ          004b6c06 f i client1.obj
 0001:000b5c15       ??0fpsent@@QAE@XZ          004b6c15 f i client1.obj
 0001:000b5d17       ?respawn@fpsstate@@QAEXXZ  004b6d17 f i client1.obj
 0001:000b5d46       ?stopattacksound@fpsent@@QAEXXZ 004b6d46 f i client1.obj
 0001:000b5d72       ?respawn@fpsent@@QAEXXZ    004b6d72 f i client1.obj
 0001:000b5de8       ??_Gclientmode@game@@UAEPAXI@Z 004b6de8 f i client1.obj
 0001:000b5de8       ??_Eclientmode@game@@UAEPAXI@Z 004b6de8 f i  CIL library: CIL module
 0001:000b5e05       ?clipconsole@clientmode@game@@UAEHHH@Z 004b6e05 f i client1.obj
 0001:000b5e05       ?adddepthfx@partrenderer@@UAEHAAUvec@@0@Z 004b6e05 f i renderparticles.obj
 0001:000b5e05       ?loadmeshes@animmodel@@UAEPAUmeshgroup@1@PAD0@Z 004b6e05 f i rendermodel.obj
 0001:000b5e05       ?read@stream@@UAEHPAXH@Z   004b6e05 f i stream.obj
 0001:000b5e05       ?write@stream@@UAEHPBXH@Z  004b6e05 f i stream.obj
 0001:000b5e0a       ?pickspawn@clientmode@game@@UAEXPAUfpsent@@@Z 004b6e0a f i client1.obj
 0001:000b5e1c       ?prefixnextmap@clientmode@game@@UAEPBDXZ 004b6e1c f i client1.obj
 0001:000b5e22       ?changeteam@servmode@server@@UAEXPAUclientinfo@2@PBD1@Z 004b6e22 f i server1.obj
 0001:000b5e22       ?setenvmap@model@@UAEXMMPAUTexture@@@Z 004b6e22 f i rendermodel.obj
 0001:000b5e22       ?aifind@clientmode@game@@UAEXPAUfpsent@@AAUaistate@ai@@AAU?$vector@Uinterest@ai@@@@@Z 004b6e22 f i client1.obj
 0001:000b5e22       ?drawhud@clientmode@game@@UAEXPAUfpsent@@HH@Z 004b6e22 f i client1.obj
 0001:000b5e22       ?initclient@servmode@server@@UAEXPAUclientinfo@2@AAUpacketbuf@@_N@Z 004b6e22 f i server1.obj
 0001:000b5e25       ?aicheck@clientmode@game@@UAE_NPAUfpsent@@AAUaistate@ai@@@Z 004b6e25 f i client1.obj
 0001:000b5e25       ?extinfoteam@servmode@server@@UAE_NPBDAAU?$databuf@E@@@Z 004b6e25 f i server1.obj
 0001:000b5e25       ?seek@stream@@UAE_NJH@Z    004b6e25 f i stream.obj
 0001:000b5e25       ?aidefend@clientmode@game@@UAE_NPAUfpsent@@AAUaistate@ai@@@Z 004b6e25 f i client1.obj
 0001:000b5e25       ?aicheck@captureclientmode@game@@UAE_NPAUfpsent@@AAUaistate@ai@@@Z 004b6e25 f i client1.obj
 0001:000b5e25       ?aipursue@clientmode@game@@UAE_NPAUfpsent@@AAUaistate@ai@@@Z 004b6e25 f i client1.obj
 0001:000b5e2a       ??1clientmode@game@@UAE@XZ 004b6e2a f i client1.obj
 0001:000b5e31       ?entmodel@entities@@YAPBDABUentity@@@Z 004b6e31 f   entities.obj
 0001:000b5e5d       ?preloadentities@entities@@YAXXZ 004b6e5d f   entities.obj
 0001:000b5ee4       ?renderentities@entities@@YAXXZ 004b6ee4 f   entities.obj
 0001:000b5fe4       ?setgun@entities@@YAXH@Z   004b6fe4 f   entities.obj
 0001:000b6022       ?pickupeffects@entities@@YAXHPAUfpsent@@@Z 004b7022 f   entities.obj
 0001:000b61b9       ?teleporteffects@entities@@YAXPAUfpsent@@HH_N@Z 004b71b9 f   entities.obj
 0001:000b62bb       ?jumppadeffects@entities@@YAXPAUfpsent@@H_N@Z 004b72bb f   entities.obj
 0001:000b638a       ?teleport@entities@@YAXHPAUfpsent@@@Z 004b738a f   entities.obj
 0001:000b64f7       ?trypickup@entities@@YAXHPAUfpsent@@@Z 004b74f7 f   entities.obj
 0001:000b66f8       ?checkitems@entities@@YAXPAUfpsent@@@Z 004b76f8 f   entities.obj
 0001:000b6780       ?checkquad@entities@@YAXHPAUfpsent@@@Z 004b7780 f   entities.obj
 0001:000b67d6       ?putitems@entities@@YAXAAUpacketbuf@@@Z 004b77d6 f   entities.obj
 0001:000b6849       ?resetspawns@entities@@YAXXZ 004b7849 f   entities.obj
 0001:000b686a       ?spawnitems@entities@@YAX_N@Z 004b786a f   entities.obj
 0001:000b68fc       ?setspawn@entities@@YAXH_N@Z 004b78fc f   entities.obj
 0001:000b6916       ?newentity@entities@@YAPAUextentity@@XZ 004b7916 f   entities.obj
 0001:000b69ca       ?resettriggers@entities@@YAXXZ 004b79ca f   entities.obj
 0001:000b6a0c       ?unlocktriggers@entities@@YAXHHH@Z 004b7a0c f   entities.obj
 0001:000b6aae       ?run@?$_icmd_trigger@$0BNM@@entities@@SAXPAH0@Z 004b7aae f   entities.obj
 0001:000b6ad0       ?doleveltrigger@entities@@YAXHH@Z 004b7ad0 f   entities.obj
 0001:000b6b1c       ?checktriggers@entities@@YAXXZ 004b7b1c f   entities.obj
 0001:000b6e45       ?animatemapmodel@entities@@YAXABUextentity@@AAH1@Z 004b7e45 f   entities.obj
 0001:000b6e89       ?fixentity@entities@@YAXAAUextentity@@@Z 004b7e89 f   entities.obj
 0001:000b6ed0       ?entradius@entities@@YAXAAUextentity@@_N@Z 004b7ed0 f   entities.obj
 0001:000b7031       ?entname@entities@@YAPBDH@Z 004b8031 f   entities.obj
 0001:000b7048       ?editent@entities@@YAXH_N@Z 004b8048 f   entities.obj
 0001:000b70d9       ?pickup@fpsstate@@QAEXH@Z  004b80d9 f i entities.obj
 0001:000b715d       ?run@?$_icmd__Graphox_sr@$0BA@@game@@SAXPAD@Z 004b815d f   fps.obj
 0001:000b7193       ?run@?$_icmd__Graphox_get_sr@$0BB@@game@@SAXXZ 004b8193 f   fps.obj
 0001:000b719f       ?run@?$_icmd__Graphox_np@$0BL@@game@@SAXPAD@Z 004b819f f   fps.obj
 0001:000b71d5       ?run@?$_icmd__Graphox_get_np@$0BM@@game@@SAXXZ 004b81d5 f   fps.obj
 0001:000b71e1       ?taunt@game@@YAXXZ         004b81e1 f   fps.obj
 0001:000b7221       ?run@?$_icmd_getfollow@$0PN@@game@@SAXXZ 004b8221 f   fps.obj
 0001:000b723d       ?follow@game@@YAXPAD@Z     004b823d f   fps.obj
 0001:000b72b3       ?nextfollow@game@@YAXH@Z   004b82b3 f   fps.obj
 0001:000b7342       ?run@?$_icmd_nextfollow@$0BCA@@game@@SAXPAH@Z 004b8342 f   fps.obj
 0001:000b7359       ?resetgamestate@game@@YAXXZ 004b8359 f   fps.obj
 0001:000b7399       ?spawnstate@game@@YAPAUfpsent@@PAU2@@Z 004b8399 f   fps.obj
 0001:000b73b5       ?respawnself@game@@YAXXZ   004b83b5 f   fps.obj
 0001:000b7455       ?stopfollowing@game@@YAXXZ 004b8455 f   fps.obj
 0001:000b7478       ?followingplayer@game@@YAPAUfpsent@@XZ 004b8478 f   fps.obj
 0001:000b749f       ?hudplayer@game@@YAPAUfpsent@@XZ 004b849f f   fps.obj
 0001:000b74b7       ?predictplayer@game@@YAXPAUfpsent@@_N@Z 004b84b7 f   fps.obj
 0001:000b7596       ?otherplayers@game@@YAXH@Z 004b8596 f   fps.obj
 0001:000b769e       ?var_slowmosp@game@@YAXXZ  004b869e f   fps.obj
 0001:000b76da       ?checkslowmo@game@@YAXXZ   004b86da f   fps.obj
 0001:000b7768       ?updateworld@game@@YAXXZ   004b8768 f   fps.obj
 0001:000b790e       ?spawnplayer@game@@YAXPAUfpsent@@@Z 004b890e f   fps.obj
 0001:000b7969       ?respawn@game@@YAXXZ       004b8969 f   fps.obj
 0001:000b7a73       ?allowmove@game@@YA_NPAUphysent@@@Z 004b8a73 f   fps.obj
 0001:000b7a9d       ?damaged@game@@YAXHPAUfpsent@@0_N@Z 004b8a9d f   fps.obj
 0001:000b7bf2       ?deathstate@game@@YAXPAUfpsent@@_N@Z 004b8bf2 f   fps.obj
 0001:000b7cde       ?statsacc@game@@YAXXZ      004b8cde f   fps.obj
 0001:000b7d85       ?killed@game@@YAXPAUfpsent@@0@Z 004b8d85 f   fps.obj
 0001:000b82b2       ?timeupdate@game@@YAXH@Z   004b92b2 f   fps.obj
 0001:000b83ed       ?run@?$_icmd_getclientfrags@$0DCP@@game@@SAXPAH@Z 004b93ed f   fps.obj
 0001:000b840f       ?run@?$_icmd_getfrags@$0DDA@@game@@SAXXZ 004b940f f   fps.obj
 0001:000b8421       ?run@?$_icmd_getclientflags@$0DDH@@game@@SAXPAH@Z 004b9421 f   fps.obj
 0001:000b8443       ?run@?$_icmd_getflags@$0DDI@@game@@SAXXZ 004b9443 f   fps.obj
 0001:000b8455       ?run@?$_icmd_getclientdeaths@$0DDP@@game@@SAXPAH@Z 004b9455 f   fps.obj
 0001:000b8477       ?run@?$_icmd_getdeaths@$0DEA@@game@@SAXXZ 004b9477 f   fps.obj
 0001:000b8489       ?run@?$_icmd_getaccuracy@$0DEC@@game@@SAXXZ 004b9489 f   fps.obj
 0001:000b84b0       ?run@?$_icmd_gettotaldamage@$0DED@@game@@SAXXZ 004b94b0 f   fps.obj
 0001:000b84c2       ?run@?$_icmd_gettotalshots@$0DEE@@game@@SAXXZ 004b94c2 f   fps.obj
 0001:000b84d4       ?newclient@game@@YAPAUfpsent@@H@Z 004b94d4 f   fps.obj
 0001:000b85a9       ?getclient@game@@YAPAUfpsent@@H@Z 004b95a9 f   fps.obj
 0001:000b85ce       ?clientdisconnected@game@@YAXH_N@Z 004b95ce f   fps.obj
 0001:000b86d7       ?clearclients@game@@YAX_N@Z 004b96d7 f   fps.obj
 0001:000b8706       ?initclient@game@@YAXXZ    004b9706 f   fps.obj
 0001:000b875e       ?startgame@game@@YAXXZ     004b975e f   fps.obj
 0001:000b8984       ?startmap@game@@YAXPBD@Z   004b9984 f   fps.obj
 0001:000b8b58       ?getmapinfo@game@@YAPBDXZ  004b9b58 f   fps.obj
 0001:000b8b7b       ?physicstrigger@game@@YAXPAUphysent@@_NHHH@Z 004b9b7b f   fps.obj
 0001:000b8c2e       ?msgsound@game@@YAXHPAUphysent@@@Z 004b9c2e f   fps.obj
 0001:000b8c9d       ?iterdynents@game@@YAPAUdynent@@H@Z 004b9c9d f   fps.obj
 0001:000b8cda       ?duplicatename@game@@YA_NPAUfpsent@@PBD@Z 004b9cda f   fps.obj
 0001:000b8d24       ?colorname@game@@YAPBDPAUfpsent@@PBD1@Z 004b9d24 f   fps.obj
 0001:000b8db5       ?suicide@game@@YAXPAUphysent@@@Z 004b9db5 f   fps.obj
 0001:000b8e59       ?run@?$_icmd_kill@$0EBP@@game@@SAXXZ 004b9e59 f   fps.obj
 0001:000b8e67       ?drawicon@game@@YAXHMMM@Z  004b9e67 f   fps.obj
 0001:000b8f9a       ?abovegameplayhud@game@@YAMHH@Z 004b9f9a f   fps.obj
 0001:000b8fb2       ?run@?$_icmd_ammohudup@$0EEK@@game@@SAXPAD00@Z 004b9fb2 f   fps.obj
 0001:000b9021       ?run@?$_icmd_ammohuddown@$0EFD@@game@@SAXPAD00@Z 004ba021 f   fps.obj
 0001:000b9090       ?run@?$_icmd_ammohudcycle@$0EGA@@game@@SAXPAD000000@Z 004ba090 f   fps.obj
 0001:000b9168       ?drawammohud@game@@YAXPAUfpsent@@@Z 004ba168 f   fps.obj
 0001:000b92ed       ?drawhudicons@game@@YAXPAUfpsent@@@Z 004ba2ed f   fps.obj
 0001:000b943f       ?gameplayhud@game@@YAXHH@Z 004ba43f f   fps.obj
 0001:000b95ef       ?selectcrosshair@game@@YAHAAM00AAH1@Z 004ba5ef f   fps.obj
 0001:000b9877       ?serverinfostartcolumn@game@@YA_NPAUg3d_gui@@H@Z 004ba877 f   fps.obj
 0001:000b98e6       ?serverinfoentry@game@@YA_NPAUg3d_gui@@HPBDH11HABU?$vector@H@@H@Z 004ba8e6 f   fps.obj
 0001:000b9b0a       ?buttonf@g3d_gui@@QAAHPBDH0ZZ 004bab0a f i fps.obj
 0001:000b9b48       ?dodamage@fpsstate@@QAEHH@Z 004bab48 f i fps.obj
 0001:000b9b73       ?spawnstate@fpsstate@@QAEXH@Z 004bab73 f i fps.obj
 0001:000b9ce9       ?help@game@@YAXPBDH0@Z     004bace9 f   help.obj
 0001:000b9e01       ?run@?$_icmd_help@$0CD@@game@@SAXPAD@Z 004bae01 f   help.obj
 0001:000b9e14       ?run@?$_icmd_commands@$0CE@@game@@SAXPAD@Z 004bae14 f   help.obj
 0001:000b9e27       ??0monster@game@@QAE@HHHHHH@Z 004bae27 f i monster.obj
 0001:000b9fbf       ?normalize_yaw@monster@game@@QAEXM@Z 004bafbf f i monster.obj
 0001:000ba01c       ?transition@monster@game@@QAEXHHHH@Z 004bb01c f i monster.obj
 0001:000ba076       ?monsteraction@monster@game@@QAEXH@Z 004bb076 f i monster.obj
 0001:000ba571       ?monsterpain@monster@game@@QAEXHPAUfpsent@@@Z 004bb571 f i monster.obj
 0001:000ba6dd       ?run@?$_icmd_nummonsters@$0BBK@@game@@SAXPAH0@Z 004bb6dd f   monster.obj
 0001:000ba737       ?spawnmonster@game@@YAXXZ  004bb737 f   monster.obj
 0001:000ba7cb       ?clearmonsters@game@@YAXXZ 004bb7cb f   monster.obj
 0001:000ba9dd       ?endsp@game@@YAX_N@Z       004bb9dd f   monster.obj
 0001:000baa10       ?run@?$_icmd_endsp@$0BFJ@@game@@SAXXZ 004bba10 f   monster.obj
 0001:000baa19       ?monsterkilled@game@@YAXXZ 004bba19 f   monster.obj
 0001:000baa59       ?updatemonsters@game@@YAXH@Z 004bba59 f   monster.obj
 0001:000bab8e       ?rendermonsters@game@@YAXXZ 004bbb8e f   monster.obj
 0001:000baccd       ?spsummary@game@@YAXH@Z    004bbccd f   monster.obj
 0001:000bae4f       ?add@?$vector@PAUmonster@game@@@@QAEAAPAUmonster@game@@ABQAU23@@Z 004bbe4f f i monster.obj
 0001:000bae95       ?growbuf@?$vector@PAUmonster@game@@@@QAEXH@Z 004bbe95 f i monster.obj
 0001:000baef9       ?maymove@physent@@QBE_NXZ  004bbef9 f i monster.obj
 0001:000baf5a       ??0movable@game@@QAE@ABUentity@@@Z 004bbf5a f i movable.obj
 0001:000bb122       ?explode@movable@game@@QAEXPAUdynent@@@Z 004bc122 f i movable.obj
 0001:000bb144       ?clearmovables@game@@YAXXZ 004bc144 f   movable.obj
 0001:000bb264       ?triggerplatform@game@@YAXHH@Z 004bc264 f   movable.obj
 0001:000bb377       ?run@?$_icmd_platform@$0HK@@game@@SAXPAH0@Z 004bc377 f   movable.obj
 0001:000bb38a       ?updatemovables@game@@YAXH@Z 004bc38a f   movable.obj
 0001:000bb57c       ?rendermovables@game@@YAXXZ 004bc57c f   movable.obj
 0001:000bb5f3       ?hitmovable@game@@YAXHPAUmovable@1@PAUfpsent@@ABUvec@@H@Z 004bc5f3 f   movable.obj
 0001:000bb699       ?deletecontents@?$vector@PAUmovable@game@@@@QAEXXZ 004bc699 f i movable.obj
 0001:000bb6fa       ?growbuf@?$vector@PAUmovable@game@@@@QAEXH@Z 004bc6fa f i movable.obj
 0001:000bb75e       ?var_playermodel@game@@YAXXZ 004bc75e f   render.obj
 0001:000bb763       ?saveragdoll@game@@YAXPAUfpsent@@@Z 004bc763 f   render.obj
 0001:000bb84d       ?moveragdolls@game@@YAXXZ  004bc84d f   render.obj
 0001:000bb8bd       ?getplayermodelinfo@game@@YAPBUplayermodelinfo@1@H@Z 004bc8bd f   render.obj
 0001:000bb8ce       ?getplayermodelinfo@game@@YAABUplayermodelinfo@1@PAUfpsent@@@Z 004bc8ce f   render.obj
 0001:000bb90e       ?changedplayermodel@game@@YAXXZ 004bc90e f   render.obj
 0001:000bb9e4       ?preloadplayermodel@game@@YAXXZ 004bc9e4 f   render.obj
 0001:000bbaa1       ?renderplayer@game@@YAXPAUfpsent@@ABUplayermodelinfo@1@HM_N@Z 004bcaa1 f   render.obj
 0001:000bbe2b       ?rendergame@game@@YAX_N@Z  004bce2b f   render.obj
 0001:000bc1a8       ?swayhudgun@game@@YAXH@Z   004bd1a8 f   render.obj
 0001:000bc397       ?drawhudmodel@game@@YAXPAUfpsent@@HMH@Z 004bd397 f   render.obj
 0001:000bc64e       ?drawhudgun@game@@YAXXZ    004bd64e f   render.obj
 0001:000bc713       ?hudgunorigin@game@@YA?AUvec@@HABU2@0PAUfpsent@@@Z 004bd713 f   render.obj
 0001:000bc901       ?preloadweapons@game@@YAXXZ 004bd901 f   render.obj
 0001:000bc9d7       ?preload@game@@YAXXZ       004bd9d7 f   render.obj
 0001:000bcb23       ?getbestplayers@game@@YAXAAU?$vector@PAUfpsent@@@@@Z 004bdb23 f   scoreboard.obj
 0001:000bcba7       ?sortteams@game@@YAXAAU?$vector@Uteamscore@@@@@Z 004bdba7 f   scoreboard.obj
 0001:000bcc96       ?getbestteams@game@@YAXAAU?$vector@PBD@@@Z 004bdc96 f   scoreboard.obj
 0001:000bd040       ?renderscoreboard@game@@YAXAAUg3d_gui@@_N@Z 004be040 f   scoreboard.obj
 0001:000bdd70       ?show@scoreboardgui@game@@QAEX_N@Z 004bed70 f i scoreboard.obj
 0001:000bddab       ?gui@scoreboardgui@game@@UAEXAAUg3d_gui@@_N@Z 004bedab f i scoreboard.obj
 0001:000bddda       ?var_scoreboard@game@@YAXXZ 004bedda f   scoreboard.obj
 0001:000bddec       ?showscores@game@@YAX_N@Z  004bedec f   scoreboard.obj
 0001:000bde02       ?run@?$_icmd_showscores@$0BLL@@game@@SAXPAH@Z 004bee02 f   scoreboard.obj
 0001:000bde11       ?textf@g3d_gui@@QAAHPBDH0ZZ 004bee11 f i scoreboard.obj
 0001:000bde4f       ?titlef@g3d_gui@@QAAHPBDH0ZZ 004bee4f f i scoreboard.obj
 0001:000bde8d       ?compare@teamscore@@SAHPBU1@0@Z 004bee8d f i scoreboard.obj
 0001:000bdeb9       ??1gameevent@server@@UAE@XZ 004beeb9 f i server1.obj
 0001:000bdec0       ??_Ggameevent@server@@UAEPAXI@Z 004beec0 f i server1.obj
 0001:000bdec0       ??_Egameevent@server@@UAEPAXI@Z 004beec0 f i  CIL library: CIL module
 0001:000bdedd       ?isalive@gamestate@server@@QAE_NH@Z 004beedd f i server1.obj
 0001:000bdeff       ?respawn@gamestate@server@@QAEXXZ 004beeff f i server1.obj
 0001:000bdf36       ?save@savedscore@server@@QAEXAAUgamestate@2@@Z 004bef36 f i server1.obj
 0001:000bdfa0       ?restore@savedscore@server@@QAEXAAUgamestate@2@@Z 004befa0 f i server1.obj
 0001:000be019       ??0clientinfo@server@@QAE@XZ 004bf019 f i server1.obj
 0001:000be10f       ??1clientinfo@server@@QAE@XZ 004bf10f f i server1.obj
 0001:000be196       ?addevent@clientinfo@server@@QAEXPAUgameevent@2@@Z 004bf196 f i server1.obj
 0001:000be1df       ?calcpushrange@clientinfo@server@@QAEHXZ 004bf1df f i server1.obj
 0001:000be221       ?scheduleexceeded@clientinfo@server@@QAEXXZ 004bf221 f i server1.obj
 0001:000be255       ?setexceeded@clientinfo@server@@QAEXXZ 004bf255 f i server1.obj
 0001:000be297       ?setpushed@clientinfo@server@@QAEXXZ 004bf297 f i server1.obj
 0001:000be2d8       ?mapchange@clientinfo@server@@QAEXXZ 004bf2d8 f i server1.obj
 0001:000be384       ?cleanclipboard@clientinfo@server@@QAEX_N@Z 004bf384 f i server1.obj
 0001:000be3ba       ?geteventmillis@clientinfo@server@@QAEHHH@Z 004bf3ba f i server1.obj
 0001:000be403       ?adduser@server@@YAXPBD0@Z 004bf403 f   server1.obj
 0001:000be4b3       ?run@?$_icmd_user@$0BJL@@server@@SAXPAD0@Z 004bf4b3 f   server1.obj
 0001:000be4b8       ?var_publicserver@server@@YAXXZ 004bf4b8 f   server1.obj
 0001:000be4e4       ?newclientinfo@server@@YAPAXXZ 004bf4e4 f   server1.obj
 0001:000be51f       ?deleteclientinfo@server@@YAXPAX@Z 004bf51f f   server1.obj
 0001:000be531       ?getinfo@server@@YAPAUclientinfo@1@H@Z 004bf531 f   server1.obj
 0001:000be558       ?msgsizelookup@server@@YAHH@Z 004bf558 f   server1.obj
 0001:000be5a0       ?modename@server@@YAPBDHPBD@Z 004bf5a0 f   server1.obj
 0001:000be5b7       ?mastermodename@server@@YAPBDHPBD@Z 004bf5b7 f   server1.obj
 0001:000be5d1       ?privname@server@@YAPBDH@Z 004bf5d1 f   server1.obj
 0001:000be5e9       ?sendservmsg@server@@YAXPBD@Z 004bf5e9 f   server1.obj
 0001:000be601       ?resetitems@server@@YAXXZ  004bf601 f   server1.obj
 0001:000be612       ?serveroption@server@@YA_NPBD@Z 004bf612 f   server1.obj
 0001:000be695       ?numclients@server@@YAHH_N00@Z 004bf695 f   server1.obj
 0001:000be6f6       ?duplicatename@server@@YA_NPAUclientinfo@1@PAD@Z 004bf6f6 f   server1.obj
 0001:000be73b       ?colorname@server@@YAPBDPAUclientinfo@1@PAD@Z 004bf73b f   server1.obj
 0001:000be7ba       ??1servmode@server@@UAE@XZ 004bf7ba f i server1.obj
 0001:000be7c1       ?canspawn@servmode@server@@UAE_NPAUclientinfo@2@_N@Z 004bf7c1 f i server1.obj
 0001:000be7c6       ?fragvalue@servmode@server@@UAEHPAUclientinfo@2@0@Z 004bf7c6 f i server1.obj
 0001:000be811       ?canchangeteam@servmode@server@@UAE_NPAUclientinfo@2@PBD1@Z 004bf811 f i server1.obj
 0001:000be816       ?startrender@textrenderer@@UAEXXZ 004bf816 f i renderparticles.obj
 0001:000be816       ?intermission@servmode@server@@UAEXXZ 004bf816 f i server1.obj
 0001:000be816       ?update@servmode@server@@UAEXXZ 004bf816 f i server1.obj
 0001:000be816       ?preloadshaders@model@@UAEXXZ 004bf816 f i rendermodel.obj
 0001:000be816       ?cleanup@model@@UAEXXZ     004bf816 f i rendermodel.obj
 0001:000be816       ?cleanup@partrenderer@@UAEXXZ 004bf816 f i renderparticles.obj
 0001:000be816       ?setup@clientmode@game@@UAEXXZ 004bf816 f i client1.obj
 0001:000be816       ?update@partrenderer@@UAEXXZ 004bf816 f i renderparticles.obj
 0001:000be816       ?gameover@clientmode@game@@UAEXXZ 004bf816 f i client1.obj
 0001:000be816       ?startrender@model@@UAEXXZ 004bf816 f i rendermodel.obj
 0001:000be816       ??3@YAXPAX0@Z              004bf816 f i lightmap.obj
 0001:000be816       ?endrender@textrenderer@@UAEXXZ 004bf816 f i renderparticles.obj
 0001:000be816       ?poplist@g3d_gui@@UAEXXZ   004bf816 f i 3dgui.obj
 0001:000be816       ?rendergame@clientmode@game@@UAEXXZ 004bf816 f i client1.obj
 0001:000be816       ?endrender@model@@UAEXXZ   004bf816 f i rendermodel.obj
 0001:000be816       ?preload@clientmode@game@@UAEXXZ 004bf816 f i client1.obj
 0001:000be816       ?doclear@rendertarget@@UAEXXZ 004bf816 f i glare.obj
 0001:000be816       ?cleanup@meshgroup@animmodel@@UAEXXZ 004bf816 f i rendermodel.obj
 0001:000be817       ??_Eservmode@server@@UAEPAXI@Z 004bf817 f i  CIL library: CIL module
 0001:000be817       ??_Gservmode@server@@UAEPAXI@Z 004bf817 f i server1.obj
 0001:000be834       ?enter@baseinfo@captureservmode@server@@QAE_NPBD@Z 004bf834 f i server1.obj
 0001:000be8a8       ?leave@baseinfo@captureservmode@server@@QAE_NPBD@Z 004bf8a8 f i server1.obj
 0001:000be8fd       ?occupy@baseinfo@captureservmode@server@@QAEHPBDH@Z 004bf8fd f i server1.obj
 0001:000be9d7       ?getteamscore@captureservmode@server@@UAEHPBD@Z 004bf9d7 f i server1.obj
 0001:000be9d7       ?getteamscore@captureclientmode@game@@UAEHPBD@Z 004bf9d7 f i client1.obj
 0001:000bea18       ?findscore@captureservmode@server@@QAEAAUscore@12@PBD@Z 004bfa18 f i server1.obj
 0001:000beae9       ?addbase@captureservmode@server@@QAEXHABUvec@@@Z 004bfae9 f i server1.obj
 0001:000bec48       ?reset@captureservmode@server@@UAEX_N@Z 004bfc48 f i server1.obj
 0001:000bec6e       ?stealbase@captureservmode@server@@QAEXHPBD@Z 004bfc6e f i server1.obj
 0001:000becf6       ?replenishammo@captureservmode@server@@QAEXPAUclientinfo@2@@Z 004bfcf6 f i server1.obj
 0001:000bee10       ?movebases@captureservmode@server@@QAEXPBDABUvec@@_N12@Z 004bfe10 f i server1.obj
 0001:000bef01       ?leavebases@captureservmode@server@@QAEXPBDABUvec@@@Z 004bff01 f i server1.obj
 0001:000bef2d       ?enterbases@captureservmode@server@@QAEXPBDABUvec@@@Z 004bff2d f i server1.obj
 0001:000bef59       ?regenowners@captureservmode@server@@QAEXAAUbaseinfo@12@H@Z 004bff59 f i server1.obj
 0001:000bf0a7       ?update@captureservmode@server@@UAEXXZ 004c00a7 f i server1.obj
 0001:000bf25e       ?sendbaseinfo@captureservmode@server@@QAEXH@Z 004c025e f i server1.obj
 0001:000bf2b2       ?initclient@captureservmode@server@@UAEXPAUclientinfo@2@AAUpacketbuf@@_N@Z 004c02b2 f i server1.obj
 0001:000bf390       ?endcheck@captureservmode@server@@QAEXXZ 004c0390 f i server1.obj
 0001:000bf40d       ?entergame@captureservmode@server@@UAEXPAUclientinfo@2@@Z 004c040d f i server1.obj
 0001:000bf441       ?spawned@captureservmode@server@@UAEXPAUclientinfo@2@@Z 004c0441 f i server1.obj
 0001:000bf46d       ?leavegame@captureservmode@server@@UAEXPAUclientinfo@2@_N@Z 004c046d f i server1.obj
 0001:000bf4a1       ?died@captureservmode@server@@UAEXPAUclientinfo@2@0@Z 004c04a1 f i server1.obj
 0001:000bf4cd       ?moved@captureservmode@server@@UAEXPAUclientinfo@2@ABUvec@@_N12@Z 004c04cd f i server1.obj
 0001:000bf4f8       ?changeteam@captureservmode@server@@UAEXPAUclientinfo@2@PBD1@Z 004c04f8 f i server1.obj
 0001:000bf52e       ?parsebases@captureservmode@server@@QAEXAAU?$databuf@E@@_N@Z 004c052e f i server1.obj
 0001:000bf65c       ?extinfoteam@captureservmode@server@@UAE_NPBDAAU?$databuf@E@@@Z 004c065c f i server1.obj
 0001:000bf6e1       ??_Ectfservmode@server@@UAEPAXI@Z 004c06e1 f i  CIL library: CIL module
 0001:000bf6e1       ??_Gctfservmode@server@@UAEPAXI@Z 004c06e1 f i server1.obj
 0001:000bf6e1       ??_Ecaptureservmode@server@@UAEPAXI@Z 004c06e1 f i  CIL library: CIL module
 0001:000bf6e1       ??_Gcaptureservmode@server@@UAEPAXI@Z 004c06e1 f i server1.obj
 0001:000bf6fe       ??1captureservmode@server@@UAE@XZ 004c06fe f i server1.obj
 0001:000bf6fe       ??1ctfservmode@server@@UAE@XZ 004c06fe f i server1.obj
 0001:000bf763       ?reset@flag@ctfservmode@server@@QAEXXZ 004c0763 f i server1.obj
 0001:000bf7a9       ?addflag@ctfservmode@server@@QAE_NHABUvec@@HH@Z 004c07a9 f i server1.obj
 0001:000bf883       ?addholdspawn@ctfservmode@server@@QAE_NABUvec@@@Z 004c0883 f i server1.obj
 0001:000bf8d9       ?getteamscores@ctfservmode@server@@UAEXAAU?$vector@Uteamscore@@@@@Z 004c08d9 f i server1.obj
 0001:000bf8d9       ?getteamscores@ctfclientmode@game@@UAEXAAU?$vector@Uteamscore@@@@@Z 004c08d9 f i client1.obj
 0001:000bf927       ?reset@ctfservmode@server@@UAEX_N@Z 004c0927 f i server1.obj
 0001:000bf953       ?dropflag@ctfservmode@server@@QAEXPAUclientinfo@2@@Z 004c0953 f i server1.obj
 0001:000bfad7       ?died@ctfservmode@server@@UAEXPAUclientinfo@2@0@Z 004c0ad7 f i server1.obj
 0001:000bfad7       ?leavegame@ctfservmode@server@@UAEXPAUclientinfo@2@_N@Z 004c0ad7 f i server1.obj
 0001:000bfb0f       ?canchangeteam@ctfservmode@server@@UAE_NPAUclientinfo@2@PBD1@Z 004c0b0f f i server1.obj
 0001:000bfb48       ?changeteam@ctfservmode@server@@UAEXPAUclientinfo@2@PBD1@Z 004c0b48 f i server1.obj
 0001:000bfb55       ?spawnflag@ctfservmode@server@@QAEXH@Z 004c0b55 f i server1.obj
 0001:000bfb94       ?scoreflag@ctfservmode@server@@QAEXPAUclientinfo@2@HH@Z 004c0b94 f i server1.obj
 0001:000bfcd6       ?takeflag@ctfservmode@server@@QAEXPAUclientinfo@2@HH@Z 004c0cd6 f i server1.obj
 0001:000bff27       ?update@ctfservmode@server@@UAEXXZ 004c0f27 f i server1.obj
 0001:000c0158       ?initclient@ctfservmode@server@@UAEXPAUclientinfo@2@AAUpacketbuf@@_N@Z 004c1158 f i server1.obj
 0001:000c0235       ?parseflags@ctfservmode@server@@QAEXAAU?$databuf@E@@_N@Z 004c1235 f i server1.obj
 0001:000c03da       ?canspawnitem@server@@YA_NH@Z 004c13da f   server1.obj
 0001:000c041d       ?spawntime@server@@YAHH@Z  004c141d f   server1.obj
 0001:000c04b3       ?delayspawn@server@@YA_NH@Z 004c14b3 f   server1.obj
 0001:000c04ed       ?pickup@server@@YA_NHH@Z   004c14ed f   server1.obj
 0001:000c05c1       ?choosebestclient@server@@YAPAUclientinfo@1@AAM@Z 004c15c1 f   server1.obj
 0001:000c0638       ?autoteam@server@@YAXXZ    004c1638 f   server1.obj
 0001:000c07e3       ?chooseworstteam@server@@YAPBDPBDPAUclientinfo@1@@Z 004c17e3 f   server1.obj
 0001:000c091a       ?writedemo@server@@YAXHPAXH@Z 004c191a f   server1.obj
 0001:000c0957       ?enddemorecord@server@@YAXXZ 004c1957 f   server1.obj
 0001:000c0b07       ?setupdemorecord@server@@YAXXZ 004c1b07 f   server1.obj
 0001:000c0c37       ?listdemos@server@@YAXH@Z  004c1c37 f   server1.obj
 0001:000c0cc3       ?cleardemos@server@@YAXH@Z 004c1cc3 f   server1.obj
 0001:000c0d8d       ?senddemo@server@@YAXHH@Z  004c1d8d f   server1.obj
 0001:000c0dd9       ?enddemoplayback@server@@YAXXZ 004c1dd9 f   server1.obj
 0001:000c0e68       ?setupdemoplayback@server@@YAXXZ 004c1e68 f   server1.obj
 0001:000c1017       ?readdemo@server@@YAXXZ    004c2017 f   server1.obj
 0001:000c1105       ?stopdemo@server@@YAXXZ    004c2105 f   server1.obj
 0001:000c1130       ?pausegame@server@@YAX_N@Z 004c2130 f   server1.obj
 0001:000c1159       ?hashpassword@server@@YAXHHPBDPADH@Z 004c2159 f   server1.obj
 0001:000c11f5       ?checkpassword@server@@YA_NPAUclientinfo@1@PBD1@Z 004c21f5 f   server1.obj
 0001:000c122b       ?revokemaster@server@@YAXPAUclientinfo@1@@Z 004c222b f   server1.obj
 0001:000c124e       ?setmaster@server@@YAXPAUclientinfo@1@_NPBD2@Z 004c224e f   server1.obj
 0001:000c1572       ?findscore@server@@YAAAUsavedscore@1@PAUclientinfo@1@_N@Z 004c2572 f   server1.obj
 0001:000c170f       ?checktype@server@@YAHHPAUclientinfo@1@@Z 004c270f f   server1.obj
 0001:000c1792       ?cleanworldstate@server@@YAXPAU_ENetPacket@@@Z 004c2792 f   server1.obj
 0001:000c1807       ??_Gworldstate@server@@QAEPAXI@Z 004c2807 f i server1.obj
 0001:000c1845       ?flushclientposition@server@@YAXAAUclientinfo@1@@Z 004c2845 f   server1.obj
 0001:000c18cd       ?addclientstate@server@@YAXAAUworldstate@1@AAUclientinfo@1@@Z 004c28cd f   server1.obj
 0001:000c196f       ?buildworldstate@server@@YA_NXZ 004c296f f   server1.obj
 0001:000c1d03       ?sendpackets@server@@YA_N_N@Z 004c2d03 f   server1.obj
 0001:000c1d5a       ?spawnstate@server@@YAXPAUclientinfo@1@@Z 004c2d5a f   server1.obj
 0001:000c1d79       ?sendspawn@server@@YAXPAUclientinfo@1@@Z 004c2d79 f   server1.obj
 0001:000c1dcf       ?sendwelcome@server@@YAXPAUclientinfo@1@@Z 004c2dcf f   server1.obj
 0001:000c1e26       ?putinitclient@server@@YAXPAUclientinfo@1@AAUpacketbuf@@@Z 004c2e26 f   server1.obj
 0001:000c1eb5       ?welcomepacket@server@@YAHAAUpacketbuf@@PAUclientinfo@1@@Z 004c2eb5 f   server1.obj
 0001:000c22ba       ?sendresume@server@@YAXPAUclientinfo@1@@Z 004c32ba f   server1.obj
 0001:000c2317       ?sendinitclient@server@@YAXPAUclientinfo@1@@Z 004c3317 f   server1.obj
 0001:000c236d       ?changemap@server@@YAXPBDH@Z 004c336d f   server1.obj
 0001:000c25e3       ?checkvotes@server@@YAX_N@Z 004c35e3 f   server1.obj
 0001:000c285c       ?forcemap@server@@YAXPBDH@Z 004c385c f   server1.obj
 0001:000c28ea       ?vote@server@@YAXPADHH@Z   004c38ea f   server1.obj
 0001:000c2aa7       ?checkintermission@server@@YAXXZ 004c3aa7 f   server1.obj
 0001:000c2af1       ?startintermission@server@@YAXXZ 004c3af1 f   server1.obj
 0001:000c2b08       ?dodamage@server@@YAXPAUclientinfo@1@0HHABUvec@@@Z 004c3b08 f   server1.obj
 0001:000c2d8b       ?suicide@server@@YAXPAUclientinfo@1@@Z 004c3d8b f   server1.obj
 0001:000c2dfe       ?process@suicideevent@server@@UAEXPAUclientinfo@2@@Z 004c3dfe f   server1.obj
 0001:000c2e0c       ?process@explodeevent@server@@UAEXPAUclientinfo@2@@Z 004c3e0c f   server1.obj
 0001:000c2f72       ?process@shotevent@server@@UAEXPAUclientinfo@2@@Z 004c3f72 f   server1.obj
 0001:000c31b6       ?process@pickupevent@server@@UAEXPAUclientinfo@2@@Z 004c41b6 f   server1.obj
 0001:000c31fa       ?flush@gameevent@server@@UAE_NPAUclientinfo@2@H@Z 004c41fa f   server1.obj
 0001:000c3208       ?flush@timedevent@server@@UAE_NPAUclientinfo@2@H@Z 004c4208 f   server1.obj
 0001:000c3232       ?flushevents@server@@YAXPAUclientinfo@1@H@Z 004c4232 f   server1.obj
 0001:000c3293       ?processevents@server@@YAXXZ 004c4293 f   server1.obj
 0001:000c32e1       ?cleartimedevents@server@@YAXPAUclientinfo@1@@Z 004c42e1 f   server1.obj
 0001:000c33ae       ?serverupdate@server@@YAXXZ 004c43ae f   server1.obj
 0001:000c36ad       ?compare@crcinfo@server@@SAHPBU12@0@Z 004c46ad f i server1.obj
 0001:000c36cd       ?checkmaps@server@@YAXH@Z  004c46cd f   server1.obj
 0001:000c39f6       ?sendservinfo@server@@YAXPAUclientinfo@1@@Z 004c49f6 f   server1.obj
 0001:000c3a2a       ?localconnect@server@@YAXH@Z 004c4a2a f   server1.obj
 0001:000c3a9f       ?clientconnect@server@@YAHHI@Z 004c4a9f f   server1.obj
 0001:000c3b30       ?clientdisconnect@server@@YAXH@Z 004c4b30 f   server1.obj
 0001:000c3c0c       ?checkgban@server@@YA_NI@Z 004c4c0c f   server1.obj
 0001:000c3c38       ?addgban@server@@YAXPBD@Z  004c4c38 f   server1.obj
 0001:000c3d5f       ?allowconnect@server@@YAHPAUclientinfo@1@PBD@Z 004c4d5f f   server1.obj
 0001:000c3e68       ?findauth@server@@YAPAUclientinfo@1@I@Z 004c4e68 f   server1.obj
 0001:000c3e98       ?tryauth@server@@YAXPAUclientinfo@1@PBD@Z 004c4e98 f   server1.obj
 0001:000c3eff       ?answerchallenge@server@@YAXPAUclientinfo@1@IPAD@Z 004c4eff f   server1.obj
 0001:000c3f65       ?processmasterinput@server@@YAXPBDH0@Z 004c4f65 f   server1.obj
 0001:000c4081       ?receivefile@server@@YAXHPAEH@Z 004c5081 f   server1.obj
 0001:000c4179       ?sendclipboard@server@@YAXPAUclientinfo@1@@Z 004c5179 f   server1.obj
 0001:000c41f7       ?parsepacket@server@@YAXHHAAUpacketbuf@@@Z 004c51f7 f   server1.obj
 0001:000c677f       ??_Eshotevent@server@@UAEPAXI@Z 004c777f f i  CIL library: CIL module
 0001:000c677f       ??_Gshotevent@server@@UAEPAXI@Z 004c777f f i server1.obj
 0001:000c67c4       ??0timedevent@server@@QAE@XZ 004c77c4 f i server1.obj
 0001:000c67f3       ??1timedevent@server@@UAE@XZ 004c77f3 f i server1.obj
 0001:000c6818       ??_Gexplodeevent@server@@UAEPAXI@Z 004c7818 f i server1.obj
 0001:000c6818       ??_Eexplodeevent@server@@UAEPAXI@Z 004c7818 f i  CIL library: CIL module
 0001:000c685d       ??_Epickupevent@server@@UAEPAXI@Z 004c785d f i  CIL library: CIL module
 0001:000c685d       ??_Gpickupevent@server@@UAEPAXI@Z 004c785d f i server1.obj
 0001:000c685d       ??_Esuicideevent@server@@UAEPAXI@Z 004c785d f i  CIL library: CIL module
 0001:000c685d       ??_Gsuicideevent@server@@UAEPAXI@Z 004c785d f i server1.obj
 0001:000c6896       ??_Gtimedevent@server@@UAEPAXI@Z 004c7896 f i server1.obj
 0001:000c6896       ??_Etimedevent@server@@UAEPAXI@Z 004c7896 f i  CIL library: CIL module
 0001:000c68b3       ?extinfoplayer@server@@YAXAAU?$databuf@E@@PAUclientinfo@1@@Z 004c78b3 f   server1.obj
 0001:000c69a2       ?extinfoteams@server@@YAXAAU?$databuf@E@@@Z 004c79a2 f   server1.obj
 0001:000c6bda       ?extserverinforeply@server@@YAXAAU?$databuf@E@@0@Z 004c7bda f   server1.obj
 0001:000c6cfd       ?serverinforeply@server@@YAXAAU?$databuf@E@@0@Z 004c7cfd f   server1.obj
 0001:000c6de1       ?calcteams@aiman@server@@YAXAAU?$vector@Uteamscore@@@@@Z 004c7de1 f   server1.obj
 0001:000c6ed8       ?balanceteams@aiman@server@@YAXXZ 004c7ed8 f   server1.obj
 0001:000c70a9       ?chooseteam@aiman@server@@YAPBDXZ 004c80a9 f   server1.obj
 0001:000c713a       ?findaiclient@aiman@server@@YAPAUclientinfo@2@PAU32@@Z 004c813a f   server1.obj
 0001:000c7183       ?addai@aiman@server@@YA_NHH@Z 004c8183 f   server1.obj
 0001:000c738e       ?deleteai@aiman@server@@YAXPAUclientinfo@2@@Z 004c838e f   server1.obj
 0001:000c7436       ?reinitai@aiman@server@@YAXPAUclientinfo@2@@Z 004c8436 f   server1.obj
 0001:000c74e8       ?shiftai@aiman@server@@YAXPAUclientinfo@2@0@Z 004c84e8 f   server1.obj
 0001:000c7540       ?removeai@aiman@server@@YAXPAUclientinfo@2@@Z 004c8540 f   server1.obj
 0001:000c7569       ?reassignai@aiman@server@@YA_NXZ 004c8569 f   server1.obj
 0001:000c75f5       ?checksetup@aiman@server@@YAXXZ 004c85f5 f   server1.obj
 0001:000c7642       ?clearai@aiman@server@@YAXXZ 004c8642 f   server1.obj
 0001:000c7665       ?reqadd@aiman@server@@YAXPAUclientinfo@2@H@Z 004c8665 f   server1.obj
 0001:000c76b7       ?reqdel@aiman@server@@YAXPAUclientinfo@2@@Z 004c86b7 f   server1.obj
 0001:000c770d       ?setbotlimit@aiman@server@@YAXPAUclientinfo@2@H@Z 004c870d f   server1.obj
 0001:000c777c       ?setbotbalance@aiman@server@@YAXPAUclientinfo@2@_N@Z 004c877c f   server1.obj
 0001:000c77e8       ?changemap@aiman@server@@YAXXZ 004c87e8 f   server1.obj
 0001:000c782f       ?add@?$vector@Uhitinfo@server@@@@QAEAAUhitinfo@server@@XZ 004c882f f i server1.obj
 0001:000c786d       ?remove@?$projectilestate@$07@server@@QAE_NH@Z 004c886d f i server1.obj
 0001:000c7899       ?deletecontents@?$vector@PAUgameevent@server@@@@QAEXXZ 004c8899 f i server1.obj
 0001:000c78b9       ??0?$vector@Ulightmaptask@@@@QAE@XZ 004c88b9 f i lightmap.obj
 0001:000c78b9       ??0?$vector@Uanimspec@animmodel@@@@QAE@XZ 004c88b9 f i rendermodel.obj
 0001:000c78b9       ??0?$vector@G@@QAE@XZ      004c88b9 f i octaedit.obj
 0001:000c78b9       ??0?$vector@Uvec@@@@QAE@XZ 004c88b9 f i worldio.obj
 0001:000c78b9       ??0?$vector@Ucubeface@@@@QAE@XZ 004c88b9 f i octa.obj
 0001:000c78b9       ??0?$vector@PAUclientinfo@server@@@@QAE@XZ 004c88b9 f i server1.obj
 0001:000c78b9       ??0?$vector@PAUShader@@@@QAE@XZ 004c88b9 f i shader.obj
 0001:000c78b9       ??0?$vector@Umergedface@@@@QAE@XZ 004c88b9 f i octarender.obj
 0001:000c78b9       ??0?$vector@Utri@BIH@@@@QAE@XZ 004c88b9 f i rendermodel.obj
 0001:000c78b9       ??0?$vector@PAUvtxarray@@@@QAE@XZ 004c88b9 f i octarender.obj
 0001:000c78b9       ??0?$vector@E@@QAE@XZ      004c88b9 f i octaedit.obj
 0001:000c78c6       ?removeobj@?$vector@PAUmesh@animmodel@@@@QAEXABQAUmesh@animmodel@@@Z 004c88c6 f i rendermodel.obj
 0001:000c78c6       ?removeobj@?$vector@PAUclientinfo@server@@@@QAEXABQAUclientinfo@server@@@Z 004c88c6 f i server1.obj
 0001:000c78c6       ?removeobj@?$vector@PAUvtxarray@@@@QAEXABQAUvtxarray@@@Z 004c88c6 f i octarender.obj
 0001:000c7909       ?add@?$vector@I@@QAEAAIABI@Z 004c8909 f i server1.obj
 0001:000c794f       ?removeobj@?$vector@I@@QAEXABI@Z 004c894f f i server1.obj
 0001:000c7998       ?remove@?$vector@Udemofile@server@@@@QAE?AUdemofile@server@@H@Z 004c8998 f i server1.obj
 0001:000c79f4       ?add@?$vector@Userver_entity@server@@@@QAEAAUserver_entity@server@@ABU23@@Z 004c89f4 f i server1.obj
 0001:000c7a3c       ?add@?$vector@Ubaseinfo@captureservmode@server@@@@QAEAAUbaseinfo@captureservmode@server@@XZ 004c8a3c f i server1.obj
 0001:000c7ac2       ?growbuf@?$vector@Umd5joint@@@@QAEXH@Z 004c8ac2 f i rendermodel.obj
 0001:000c7ac2       ?growbuf@?$vector@Uhitinfo@server@@@@QAEXH@Z 004c8ac2 f i server1.obj
 0001:000c7b18       ?growbuf@?$vector@PAUclientinfo@server@@@@QAEXH@Z 004c8b18 f i server1.obj
 0001:000c7b18       ?growbuf@?$vector@PBD@@QAEXH@Z 004c8b18 f i serverbrowser.obj
 0001:000c7b18       ?growbuf@?$vector@PAUmaterialsurface@@@@QAEXH@Z 004c8b18 f i pvs.obj
 0001:000c7b18       ?growbuf@?$vector@PAUextentity@@@@QAEXH@Z 004c8b18 f i cubeloader.obj
 0001:000c7b18       ?growbuf@?$vector@PBUextentity@@@@QAEXH@Z 004c8b18 f i lightmap.obj
 0001:000c7b18       ?growbuf@?$vector@PAD@@QAEXH@Z 004c8b18 f i command.obj
 0001:000c7b18       ?growbuf@?$vector@PAUphysent@@@@QAEXH@Z 004c8b18 f i physics.obj
 0001:000c7b18       ?growbuf@?$vector@PAUgameevent@server@@@@QAEXH@Z 004c8b18 f i server1.obj
 0001:000c7b18       ?growbuf@?$vector@PAUplatforment@@@@QAEXH@Z 004c8b18 f i physics.obj
 0001:000c7b18       ?growbuf@?$vector@PAUvtxarray@@@@QAEXH@Z 004c8b18 f i octarender.obj
 0001:000c7b18       ?growbuf@?$vector@PAUident@@@@QAEXH@Z 004c8b18 f i command.obj
 0001:000c7b18       ?growbuf@?$vector@PAUmesh@animmodel@@@@QAEXH@Z 004c8b18 f i rendermodel.obj
 0001:000c7b18       ?growbuf@?$vector@PAUoctaentities@@@@QAEXH@Z 004c8b18 f i octarender.obj
 0001:000c7b18       ?growbuf@?$vector@PAUShader@@@@QAEXH@Z 004c8b18 f i shader.obj
 0001:000c7b18       ?growbuf@?$vector@PAUfpsent@@@@QAEXH@Z 004c8b18 f i fps.obj
 0001:000c7b18       ?growbuf@?$vector@PAUskelmeshgroup@skelmodel@@@@QAEXH@Z 004c8b18 f i rendermodel.obj
 0001:000c7b18       ?growbuf@?$vector@H@@QAEXH@Z 004c8b18 f i lightmap.obj
 0001:000c7b18       ?growbuf@?$vector@PAUpart@animmodel@@@@QAEXH@Z 004c8b18 f i rendermodel.obj
 0001:000c7b70       ?growbuf@?$vector@I@@QAEXH@Z 004c8b70 f i server1.obj
 0001:000c7bd4       ?growbuf@?$vector@Uban@server@@@@QAEXH@Z 004c8bd4 f i server1.obj
 0001:000c7c38       ?growbuf@?$vector@PAUuser@server@@@@QAEXH@Z 004c8c38 f i server1.obj
 0001:000c7c9c       ?growbuf@?$vector@Udemofile@server@@@@QAEXH@Z 004c8c9c f i server1.obj
 0001:000c7d04       ?growbuf@?$vector@Userver_entity@server@@@@QAEXH@Z 004c8d04 f i server1.obj
 0001:000c7d66       ?growbuf@?$vector@Ubaseinfo@captureservmode@server@@@@QAEXH@Z 004c8d66 f i server1.obj
 0001:000c7dc2       ??$sendstate@Upacketbuf@@@server@@YAXAAUgamestate@0@AAUpacketbuf@@@Z 004c8dc2 f i server1.obj
 0001:000c7e0f       ??$sendstate@U?$vector@E@@@server@@YAXAAUgamestate@0@AAU?$vector@E@@@Z 004c8e0f f i server1.obj
 0001:000c7e5c       ?addammo@fpsstate@@QAEXHHH@Z 004c8e5c f i server1.obj
 0001:000c7e89       ?dotime@game@@YAXXZ        004c8e89 f   stats.obj
 0001:000c7efc       ?run@?$_icmd_stats@$0HA@@@SAXPAH@Z 004c8efc f   stats.obj
 0001:000c7f10       ?getweight@ai@@YAHABUvec@@@Z 004c8f10 f   waypoint.obj
 0001:000c841e       ?clearwpcache@ai@@YAXXZ    004c941e f   waypoint.obj
 0001:000c8476       ?buildwpcache@ai@@YAXXZ    004c9476 f   waypoint.obj
 0001:000c856a       ?closestwaypoint@ai@@YAHABUvec@@M_NPAUfpsent@@@Z 004c956a f   waypoint.obj
 0001:000c886c       ?findwaypointswithin@ai@@YAXABUvec@@MMAAU?$vector@H@@@Z 004c986c f   waypoint.obj
 0001:000c8a88       ?avoidnear@avoidset@ai@@QAEXPAXMABUvec@@M@Z 004c9a88 f   waypoint.obj
 0001:000c8c4b       ?remap@avoidset@ai@@QAEHPAUfpsent@@HAAUvec@@_N@Z 004c9c4b f   waypoint.obj
 0001:000c8dd8       ?route@ai@@YA_NPAUfpsent@@HHAAU?$vector@H@@ABUavoidset@1@_N@Z 004c9dd8 f   waypoint.obj
 0001:000c92b8       ?addwaypoint@ai@@YAHABUvec@@H@Z 004ca2b8 f   waypoint.obj
 0001:000c92fd       ?linkwaypoint@ai@@YAXAAUwaypoint@1@H@Z 004ca2fd f   waypoint.obj
 0001:000c9363       ?inferwaypoints@ai@@YAXPAUfpsent@@ABUvec@@1M@Z 004ca363 f   waypoint.obj
 0001:000c94a1       ?navigate@ai@@YAXPAUfpsent@@@Z 004ca4a1 f   waypoint.obj
 0001:000c964a       ?run@?$_icmd_clearwaypoints@$0CCJ@@ai@@SAXXZ 004ca64a f   waypoint.obj
 0001:000c9656       ?seedwaypoints@ai@@YAXXZ   004ca656 f   waypoint.obj
 0001:000c96ce       ?remapwaypoints@ai@@YAXXZ  004ca6ce f   waypoint.obj
 0001:000c97c5       ?getwaypointfile@ai@@YA_NPBDPAD@Z 004ca7c5 f   waypoint.obj
 0001:000c982b       ?loadwaypoints@ai@@YAX_NPBD@Z 004ca82b f   waypoint.obj
 0001:000c99d4       ?run@?$_icmd_loadwaypoints@$0CJL@@ai@@SAXPAD@Z 004ca9d4 f   waypoint.obj
 0001:000c99e1       ?savewaypoints@ai@@YAX_NPBD@Z 004ca9e1 f   waypoint.obj
 0001:000c9b12       ?run@?$_icmd_savewaypoints@$0CLI@@ai@@SAXPAD@Z 004cab12 f   waypoint.obj
 0001:000c9b20       ?delselwaypoints@ai@@YAXXZ 004cab20 f   waypoint.obj
 0001:000c9c58       ?add@?$vector@Uwaypoint@ai@@@@QAEAAUwaypoint@ai@@ABU23@@Z 004cac58 f i waypoint.obj
 0001:000c9ca2       ?add@?$vector@PAUwpcachenode@ai@@@@QAEAAPAUwpcachenode@ai@@ABQAU23@@Z 004caca2 f i waypoint.obj
 0001:000c9ce8       ?add@?$vector@PAUwaypoint@ai@@@@QAEAAPAUwaypoint@ai@@ABQAU23@@Z 004cace8 f i waypoint.obj
 0001:000c9d2e       ?upheap@?$vector@PAUwaypoint@ai@@@@QAEHH@Z 004cad2e f i waypoint.obj
 0001:000c9d95       ?growbuf@?$vector@Uwaypoint@ai@@@@QAEXH@Z 004cad95 f i waypoint.obj
 0001:000c9df7       ?growbuf@?$vector@PAUwpcachenode@ai@@@@QAEXH@Z 004cadf7 f i waypoint.obj
 0001:000c9e5b       ?growbuf@?$vector@PAUwaypoint@ai@@@@QAEXH@Z 004cae5b f i waypoint.obj
 0001:000c9ebf       ?downheap@?$vector@PAUwaypoint@ai@@@@QAEHH@Z 004caebf f i waypoint.obj
 0001:000c9f95       ??0waypoint@ai@@QAE@ABUvec@@H@Z 004caf95 f i waypoint.obj
 0001:000c9fbb       ?add@avoidset@ai@@QAEXPAXMH@Z 004cafbb f i waypoint.obj
 0001:000ca001       ?run@?$_icmd_getweapon@$0BE@@game@@SAXXZ 004cb001 f   weapon.obj
 0001:000ca013       ?gunselect@game@@YAXHPAUfpsent@@@Z 004cb013 f   weapon.obj
 0001:000ca048       ?nextweapon@game@@YAXH_N@Z 004cb048 f   weapon.obj
 0001:000ca0bd       ?run@?$_icmd_nextweapon@$0CN@@game@@SAXPAH0@Z 004cb0bd f   weapon.obj
 0001:000ca0d9       ?getweapon@game@@YAHPBD@Z  004cb0d9 f   weapon.obj
 0001:000ca150       ?run@?$_icmd_setweapon@$0DO@@game@@SAXPADPAH@Z 004cb150 f   weapon.obj
 0001:000ca1a9       ?cycleweapon@game@@YAXHPAH_N@Z 004cb1a9 f   weapon.obj
 0001:000ca22f       ?run@?$_icmd_cycleweapon@$0FM@@game@@SAXPAD000000@Z 004cb22f f   weapon.obj
 0001:000ca2c3       ?weaponswitch@game@@YAXPAUfpsent@@@Z 004cb2c3 f   weapon.obj
 0001:000ca33a       ?run@?$_icmd_weapon@$0IA@@game@@SAXPAD000000@Z 004cb33a f   weapon.obj
 0001:000ca4b5       ?offsetray@game@@YAXABUvec@@0HMAAU2@@Z 004cb4b5 f   weapon.obj
 0001:000ca5c1       ?createrays@game@@YAXABUvec@@0@Z 004cb5c1 f   weapon.obj
 0001:000ca5e8       ??0bouncer@game@@QAE@XZ    004cb5e8 f i weapon.obj
 0001:000ca639       ?newbouncer@game@@YAXABUvec@@0_NHPAUfpsent@@HHHPAUentitylight@@@Z 004cb639 f   weapon.obj
 0001:000ca8a0       ?bounced@game@@YAXPAUphysent@@ABUvec@@@Z 004cb8a0 f   weapon.obj
 0001:000ca95e       ?updatebouncers@game@@YAXH@Z 004cb95e f   weapon.obj
 0001:000cac12       ?clearbouncers@game@@YAXXZ 004cbc12 f   weapon.obj
 0001:000cac38       ?newprojectile@game@@YAXABUvec@@0M_NHPAUfpsent@@H@Z 004cbc38 f   weapon.obj
 0001:000cad1a       ?damageeffect@game@@YAXHPAUfpsent@@_N@Z 004cbd1a f   weapon.obj
 0001:000cadcf       ?spawnbouncer@game@@YAXABUvec@@0PAUfpsent@@HPAUentitylight@@@Z 004cbdcf f   weapon.obj
 0001:000caea4       ?gibeffect@game@@YAXHABUvec@@PAUfpsent@@@Z 004cbea4 f   weapon.obj
 0001:000caefb       ?hit@game@@YAXHPAUdynent@@PAUfpsent@@ABUvec@@HMH@Z 004cbefb f   weapon.obj
 0001:000cb102       ?hitpush@game@@YAXHPAUdynent@@PAUfpsent@@AAUvec@@2HH@Z 004cc102 f   weapon.obj
 0001:000cb15e       ?projdist@game@@YAMPAUdynent@@AAUvec@@ABU3@@Z 004cc15e f   weapon.obj
 0001:000cb1b7       ?explode@game@@YAX_NPAUfpsent@@ABUvec@@PAUdynent@@HH@Z 004cc1b7 f   weapon.obj
 0001:000cb52a       ?projsplash@game@@YAXAAUprojectile@1@AAUvec@@PAUdynent@@H@Z 004cc52a f   weapon.obj
 0001:000cb5ed       ?explodeeffects@game@@YAXHPAUfpsent@@_NH@Z 004cc5ed f   weapon.obj
 0001:000cb7ff       ?updateprojectiles@game@@YAXH@Z 004cc7ff f   weapon.obj
 0001:000cbc02       ?shoteffects@game@@YAXHABUvec@@0PAUfpsent@@_NHH@Z 004ccc02 f   weapon.obj
 0001:000cc406       ?particletrack@game@@YAXPAUphysent@@AAUvec@@1@Z 004cd406 f   weapon.obj
 0001:000cc4dc       ?intersect@game@@YA_NPAUdynent@@ABUvec@@1AAM@Z 004cd4dc f   weapon.obj
 0001:000cc523       ?intersectclosest@game@@YAPAUdynent@@ABUvec@@0PAUfpsent@@AAM@Z 004cd523 f   weapon.obj
 0001:000cc5b0       ?shorten@game@@YAXAAUvec@@0M@Z 004cd5b0 f   weapon.obj
 0001:000cc603       ?raydamage@game@@YAXAAUvec@@0PAUfpsent@@@Z 004cd603 f   weapon.obj
 0001:000cc833       ?shoot@game@@YAXPAUfpsent@@ABUvec@@@Z 004cd833 f   weapon.obj
 0001:000ccbd3       ?adddynlights@game@@YAXXZ  004cdbd3 f   weapon.obj
 0001:000ccd89       ?renderbouncers@game@@YAXXZ 004cdd89 f   weapon.obj
 0001:000ccf3a       ?renderprojectiles@game@@YAXXZ 004cdf3a f   weapon.obj
 0001:000cd08d       ?checkattacksound@game@@YAXPAUfpsent@@_N@Z 004ce08d f   weapon.obj
 0001:000cd10c       ?checkidlesound@game@@YAXPAUfpsent@@_N@Z 004ce10c f   weapon.obj
 0001:000cd1dc       ?removeweapons@game@@YAXPAUfpsent@@@Z 004ce1dc f   weapon.obj
 0001:000cd253       ?updateweapons@game@@YAXH@Z 004ce253 f   weapon.obj
 0001:000cd2cf       ?avoidweapons@game@@YAXAAUavoidset@ai@@M@Z 004ce2cf f   weapon.obj
 0001:000cd374       ?add@?$vector@Uhitmsg@game@@@@QAEAAUhitmsg@game@@XZ 004ce374 f i weapon.obj
 0001:000cd3b8       ?remove@?$vector@PAUbouncer@game@@@@QAEPAUbouncer@game@@H@Z 004ce3b8 f i weapon.obj
 0001:000cd3e9       ?add@?$vector@Uprojectile@game@@@@QAEAAUprojectile@game@@XZ 004ce3e9 f i weapon.obj
 0001:000cd45d       ?remove@?$vector@Uprojectile@game@@@@QAE?AUprojectile@game@@H@Z 004ce45d f i weapon.obj
 0001:000cd4ad       ?growbuf@?$vector@Uhitmsg@game@@@@QAEXH@Z 004ce4ad f i weapon.obj
 0001:000cd50f       ?growbuf@?$vector@PAUbouncer@game@@@@QAEXH@Z 004ce50f f i weapon.obj
 0001:000cd573       ?growbuf@?$vector@Uprojectile@game@@@@QAEXH@Z 004ce573 f i weapon.obj
 0001:000cd5d5       ?stopidlesound@fpsent@@QAEXXZ 004ce5d5 f i weapon.obj
 0001:000cd5fe       ?run@?$_icmd__Graphox_ignore@$03@GraphOX@@SAXPADPAH@Z 004ce5fe f   commands.obj
 0001:000cd630       ?run@?$_icmd__Graphox_unignore@$04@GraphOX@@SAXPADPAH@Z 004ce630 f   commands.obj
 0001:000cd662       ?run@?$_icmd__Graphox_isignored@$05@GraphOX@@SAXPAD@Z 004ce662 f   commands.obj
 0001:000cd683       ?run@?$_icmd__Graphox_getclientping@$06@GraphOX@@SAXPAH@Z 004ce683 f   commands.obj
 0001:000cd683       ?run@?$_icmd__Graphox_getclientpj@$08@GraphOX@@SAXPAH@Z 004ce683 f   commands.obj
 0001:000cd6a5       ?run@?$_icmd__Graphox_getping@$07@GraphOX@@SAXXZ 004ce6a5 f   commands.obj
 0001:000cd6b7       ?run@?$_icmd_execdir@$0BK@@GraphOX@@SAXPAD@Z 004ce6b7 f   commands.obj
 0001:000cd7a4       ?isignored@GraphOX@@YA_NH@Z 004ce7a4 f   graphox.obj
 0001:000cd7bd       ?ignore@GraphOX@@YAXHH@Z   004ce7bd f   graphox.obj
 0001:000cd845       ?unignore@GraphOX@@YAXHH@Z 004ce845 f   graphox.obj
 0001:000cd8bb       ?error@GraphOX@@YAXPBDZZ   004ce8bb f   messages.obj
 0001:000cd8f4       ?info@GraphOX@@YAXPBDZZ    004ce8f4 f   messages.obj
 0001:000cd92d       ?Auto@GraphOX@@YAXPBDZZ    004ce92d f   messages.obj
 0001:000cd97e       ?grahud@GraphOX@@YAXHH@Z   004ce97e f   grahud.obj
 0001:000ce548       _enet_peer_throttle        004cf548 f   enet:peer.o
 0001:000ce5c0       _enet_peer_queue_acknowledgement 004cf5c0 f   enet:peer.o
 0001:000ce67c       _enet_peer_dispatch_incoming_unreliable_commands 004cf67c f   enet:peer.o
 0001:000ce6fc       _enet_peer_setup_outgoing_command 004cf6fc f   enet:peer.o
 0001:000ce830       _enet_peer_receive         004cf830 f   enet:peer.o
 0001:000ce898       _enet_peer_dispatch_incoming_reliable_commands 004cf898 f   enet:peer.o
 0001:000ce9cc       _enet_peer_queue_incoming_command 004cf9cc f   enet:peer.o
 0001:000ced08       _enet_peer_reset_queues    004cfd08 f   enet:peer.o
 0001:000cf054       _enet_peer_reset           004d0054 f   enet:peer.o
 0001:000cf1b0       _enet_peer_queue_outgoing_command 004d01b0 f   enet:peer.o
 0001:000cf360       _enet_peer_ping            004d0360 f   enet:peer.o
 0001:000cf39c       _enet_peer_disconnect      004d039c f   enet:peer.o
 0001:000cf444       _enet_peer_disconnect_now  004d0444 f   enet:peer.o
 0001:000cf604       _enet_peer_send            004d0604 f   enet:peer.o
 0001:000cf8e8       _enet_peer_throttle_configure 004d08e8 f   enet:peer.o
 0001:000cfac4       _enet_peer_disconnect_later 004d0ac4 f   enet:peer.o
 0001:000cfbcc       _enet_socketset_select     004d0bcc f   enet:win32.o
 0001:000cfc20       _enet_socket_wait          004d0c20 f   enet:win32.o
 0001:000cfd34       _enet_socket_receive       004d0d34 f   enet:win32.o
 0001:000cfde8       _enet_socket_send          004d0de8 f   enet:win32.o
 0001:000cfe80       _enet_socket_destroy       004d0e80 f   enet:win32.o
 0001:000cfe90       _enet_socket_accept        004d0e90 f   enet:win32.o
 0001:000cfef0       _enet_socket_connect       004d0ef0 f   enet:win32.o
 0001:000cff48       _enet_socket_set_option    004d0f48 f   enet:win32.o
 0001:000d001c       _enet_socket_create        004d101c f   enet:win32.o
 0001:000d0038       _enet_socket_listen        004d1038 f   enet:win32.o
 0001:000d0064       _enet_socket_bind          004d1064 f   enet:win32.o
 0001:000d00d4       _enet_address_get_host_ip  004d10d4 f   enet:win32.o
 0001:000d0110       _enet_address_set_host     004d1110 f   enet:win32.o
 0001:000d0158       _enet_time_set             004d1158 f   enet:win32.o
 0001:000d0170       _enet_time_get             004d1170 f   enet:win32.o
 0001:000d0184       _enet_deinitialize         004d1184 f   enet:win32.o
 0001:000d0198       _enet_initialize           004d1198 f   enet:win32.o
 0001:000d01e8       _enet_address_get_host     004d11e8 f   enet:win32.o
 0001:000d0254       _enet_host_compress        004d1254 f   enet:host.o
 0001:000d02a4       _enet_host_channel_limit   004d12a4 f   enet:host.o
 0001:000d02d0       _enet_host_bandwidth_limit 004d12d0 f   enet:host.o
 0001:000d02ec       _enet_host_bandwidth_throttle 004d12ec f   enet:host.o
 0001:000d06d4       _enet_host_broadcast       004d16d4 f   enet:host.o
 0001:000d0764       _enet_host_connect         004d1764 f   enet:host.o
 0001:000d09a8       _enet_host_destroy         004d19a8 f   enet:host.o
 0001:000d0a4c       _enet_host_create          004d1a4c f   enet:host.o
 0001:000d0dc8       _enet_protocol_command_size 004d1dc8 f   enet:protocol.o
 0001:000d1228       _enet_host_check_events    004d2228 f   enet:protocol.o
 0001:000d1db0       _enet_host_flush           004d2db0 f   enet:protocol.o
 0001:000d1dd0       _enet_host_service         004d2dd0 f   enet:protocol.o
 0001:000d3684       _enet_crc32                004d4684 f   enet:packet.o
 0001:000d3858       _enet_packet_resize        004d4858 f   enet:packet.o
 0001:000d38c8       _enet_packet_destroy       004d48c8 f   enet:packet.o
 0001:000d3904       _enet_packet_create        004d4904 f   enet:packet.o
 0001:000d398c       _enet_list_clear           004d498c f   enet:list.o
 0001:000d3998       _enet_list_insert          004d4998 f   enet:list.o
 0001:000d39b0       _enet_list_remove          004d49b0 f   enet:list.o
 0001:000d39c4       _enet_list_move            004d49c4 f   enet:list.o
 0001:000d39f0       _enet_list_size            004d49f0 f   enet:list.o
 0001:000d3a08       _enet_malloc               004d4a08 f   enet:callbacks.o
 0001:000d3a30       _enet_free                 004d4a30 f   enet:callbacks.o
 0001:000d3a38       _enet_initialize_with_callbacks 004d4a38 f   enet:callbacks.o
 0001:000d3a80       _SDL_Init                  004d4a80 f   SDL:SDL.dll
 0001:000d3a86       _SDL_SetModuleHandle       004d4a86 f   SDL:SDL.dll
 0001:000d3a8c       _SDL_strlcpy               004d4a8c f   SDL:SDL.dll
 0001:000d3a92       _SDL_GetError              004d4a92 f   SDL:SDL.dll
 0001:000d3a98       _SDL_Quit                  004d4a98 f   SDL:SDL.dll
 0001:000d3a9e       _SDL_GetTicks              004d4a9e f   SDL:SDL.dll
 0001:000d3aa4       _SDL_mutexP                004d4aa4 f   SDL:SDL.dll
 0001:000d3aaa       _SDL_mutexV                004d4aaa f   SDL:SDL.dll
 0001:000d3ab0       _SDL_CondSignal            004d4ab0 f   SDL:SDL.dll
 0001:000d3ab6       _SDL_CondWait              004d4ab6 f   SDL:SDL.dll
 0001:000d3abc       _SDL_CondBroadcast         004d4abc f   SDL:SDL.dll
 0001:000d3ac2       _SDL_CondWaitTimeout       004d4ac2 f   SDL:SDL.dll
 0001:000d3ac8       _SDL_DestroyCond           004d4ac8 f   SDL:SDL.dll
 0001:000d3ace       _SDL_CreateCond            004d4ace f   SDL:SDL.dll
 0001:000d3ad4       _SDL_CreateThread          004d4ad4 f   SDL:SDL.dll
 0001:000d3ada       _SDL_DestroyMutex          004d4ada f   SDL:SDL.dll
 0001:000d3ae0       _SDL_CreateMutex           004d4ae0 f   SDL:SDL.dll
 0001:000d3ae6       _SDL_WaitThread            004d4ae6 f   SDL:SDL.dll
 0001:000d3aec       _SDL_AddTimer              004d4aec f   SDL:SDL.dll
 0001:000d3af2       _SDL_RemoveTimer           004d4af2 f   SDL:SDL.dll
 0001:000d3af8       _SDL_Delay                 004d4af8 f   SDL:SDL.dll
 0001:000d3afe       _SDL_GetThreadID           004d4afe f   SDL:SDL.dll
 0001:000d3b04       _SDL_ThreadID              004d4b04 f   SDL:SDL.dll
 0001:000d3b0a       _SDL_KillThread            004d4b0a f   SDL:SDL.dll
 0001:000d3b10       _SDL_EnableUNICODE         004d4b10 f   SDL:SDL.dll
 0001:000d3b16       _SDL_GL_GetProcAddress     004d4b16 f   SDL:SDL.dll
 0001:000d3b1c       _SDL_CreateRGBSurfaceFrom  004d4b1c f   SDL:SDL.dll
 0001:000d3b22       _SDL_CreateRGBSurface      004d4b22 f   SDL:SDL.dll
 0001:000d3b28       _SDL_UpperBlit             004d4b28 f   SDL:SDL.dll
 0001:000d3b2e       _SDL_FreeSurface           004d4b2e f   SDL:SDL.dll
 0001:000d3b34       _SDL_SetAlpha              004d4b34 f   SDL:SDL.dll
 0001:000d3b3a       _SDL_FreeRW                004d4b3a f   SDL:SDL.dll
 0001:000d3b40       _SDL_SaveBMP_RW            004d4b40 f   SDL:SDL.dll
 0001:000d3b46       _SDL_GetModState           004d4b46 f   SDL:SDL.dll
 0001:000d3b4c       _SDL_ShowCursor            004d4b4c f   SDL:SDL.dll
 0001:000d3b52       _SDL_WM_GrabInput          004d4b52 f   SDL:SDL.dll
 0001:000d3b58       _SDL_SetGamma              004d4b58 f   SDL:SDL.dll
 0001:000d3b5e       _SDL_WasInit               004d4b5e f   SDL:SDL.dll
 0001:000d3b64       _SDL_EnableKeyRepeat       004d4b64 f   SDL:SDL.dll
 0001:000d3b6a       _SDL_ListModes             004d4b6a f   SDL:SDL.dll
 0001:000d3b70       _SDL_VideoModeOK           004d4b70 f   SDL:SDL.dll
 0001:000d3b76       _SDL_GL_SetAttribute       004d4b76 f   SDL:SDL.dll
 0001:000d3b7c       _SDL_SetVideoMode          004d4b7c f   SDL:SDL.dll
 0001:000d3b82       _SDL_PollEvent             004d4b82 f   SDL:SDL.dll
 0001:000d3b88       _SDL_GL_SwapBuffers        004d4b88 f   SDL:SDL.dll
 0001:000d3b8e       _SDL_GetVideoInfo          004d4b8e f   SDL:SDL.dll
 0001:000d3b94       _SDL_WM_SetCaption         004d4b94 f   SDL:SDL.dll
 0001:000d3b9a       _SDL_LockAudio             004d4b9a f   SDL:SDL.dll
 0001:000d3ba0       _SDL_UnlockAudio           004d4ba0 f   SDL:SDL.dll
 0001:000d3ba6       _SDL_RWFromFile            004d4ba6 f   SDL:SDL.dll
 0001:000d3bac       _SDL_AllocRW               004d4bac f   SDL:SDL.dll
 0001:000d3bb2       _IMG_Load_RW               004d4bb2 f   SDL_image:SDL_image.dll
 0001:000d3bb8       _IMG_Load                  004d4bb8 f   SDL_image:SDL_image.dll
 0001:000d3bbe       ___WSAFDIsSet@8            004d4bbe f   ws2_32:WS2_32.dll
 0001:000d3bc4       _ntohl@4                   004d4bc4 f   ws2_32:WS2_32.dll
 0001:000d3bca       _htonl@4                   004d4bca f   ws2_32:WS2_32.dll
 0001:000d3bd0       _htons@4                   004d4bd0 f   ws2_32:WS2_32.dll
 0001:000d3bd6       _ntohs@4                   004d4bd6 f   ws2_32:WS2_32.dll
 0001:000d3bdc       _WSAStartup@8              004d4bdc f   ws2_32:WS2_32.dll
 0001:000d3be2       _WSACleanup@0              004d4be2 f   ws2_32:WS2_32.dll
 0001:000d3be8       _gethostbyname@4           004d4be8 f   ws2_32:WS2_32.dll
 0001:000d3bee       _inet_addr@4               004d4bee f   ws2_32:WS2_32.dll
 0001:000d3bf4       _inet_ntoa@4               004d4bf4 f   ws2_32:WS2_32.dll
 0001:000d3bfa       _gethostbyaddr@12          004d4bfa f   ws2_32:WS2_32.dll
 0001:000d3c00       _bind@12                   004d4c00 f   ws2_32:WS2_32.dll
 0001:000d3c06       _listen@8                  004d4c06 f   ws2_32:WS2_32.dll
 0001:000d3c0c       _socket@12                 004d4c0c f   ws2_32:WS2_32.dll
 0001:000d3c12       _ioctlsocket@12            004d4c12 f   ws2_32:WS2_32.dll
 0001:000d3c18       _setsockopt@20             004d4c18 f   ws2_32:WS2_32.dll
 0001:000d3c1e       _connect@12                004d4c1e f   ws2_32:WS2_32.dll
 0001:000d3c24       _accept@12                 004d4c24 f   ws2_32:WS2_32.dll
 0001:000d3c2a       _closesocket@4             004d4c2a f   ws2_32:WS2_32.dll
 0001:000d3c30       _WSASendTo@36              004d4c30 f   ws2_32:WS2_32.dll
 0001:000d3c36       _WSARecvFrom@36            004d4c36 f   ws2_32:WS2_32.dll
 0001:000d3c3c       _WSAGetLastError@0         004d4c3c f   ws2_32:WS2_32.dll
 0001:000d3c42       _select@20                 004d4c42 f   ws2_32:WS2_32.dll
 0001:000d3c48       _Mix_QuerySpec             004d4c48 f   SDL_mixer:SDL_mixer.dll
 0001:000d3c4e       _Mix_SetPostMix            004d4c4e f   SDL_mixer:SDL_mixer.dll
 0001:000d3c54       _Mix_FadingChannel         004d4c54 f   SDL_mixer:SDL_mixer.dll
 0001:000d3c5a       _Mix_Volume                004d4c5a f   SDL_mixer:SDL_mixer.dll
 0001:000d3c60       _Mix_SetPanning            004d4c60 f   SDL_mixer:SDL_mixer.dll
 0001:000d3c66       _Mix_HaltChannel           004d4c66 f   SDL_mixer:SDL_mixer.dll
 0001:000d3c6c       _Mix_VolumeMusic           004d4c6c f   SDL_mixer:SDL_mixer.dll
 0001:000d3c72       _Mix_HaltMusic             004d4c72 f   SDL_mixer:SDL_mixer.dll
 0001:000d3c78       _Mix_FreeMusic             004d4c78 f   SDL_mixer:SDL_mixer.dll
 0001:000d3c7e       _Mix_OpenAudio             004d4c7e f   SDL_mixer:SDL_mixer.dll
 0001:000d3c84       _Mix_AllocateChannels      004d4c84 f   SDL_mixer:SDL_mixer.dll
 0001:000d3c8a       _Mix_ChannelFinished       004d4c8a f   SDL_mixer:SDL_mixer.dll
 0001:000d3c90       _Mix_LoadMUS_RW            004d4c90 f   SDL_mixer:SDL_mixer.dll
 0001:000d3c96       _Mix_LoadMUS               004d4c96 f   SDL_mixer:SDL_mixer.dll
 0001:000d3c9c       _Mix_PlayMusic             004d4c9c f   SDL_mixer:SDL_mixer.dll
 0001:000d3ca2       _Mix_CloseAudio            004d4ca2 f   SDL_mixer:SDL_mixer.dll
 0001:000d3ca8       _Mix_PlayingMusic          004d4ca8 f   SDL_mixer:SDL_mixer.dll
 0001:000d3cae       _Mix_PausedMusic           004d4cae f   SDL_mixer:SDL_mixer.dll
 0001:000d3cb4       _Mix_ResumeMusic           004d4cb4 f   SDL_mixer:SDL_mixer.dll
 0001:000d3cba       _Mix_LoadWAV_RW            004d4cba f   SDL_mixer:SDL_mixer.dll
 0001:000d3cc0       _Mix_FadeInChannelTimed    004d4cc0 f   SDL_mixer:SDL_mixer.dll
 0001:000d3cc6       _Mix_PlayChannelTimed      004d4cc6 f   SDL_mixer:SDL_mixer.dll
 0001:000d3ccc       _Mix_FadeOutChannel        004d4ccc f   SDL_mixer:SDL_mixer.dll
 0001:000d3cd2       _Mix_Linked_Version        004d4cd2 f   SDL_mixer:SDL_mixer.dll
 0001:000d3cd8       _Mix_FreeChunk             004d4cd8 f   SDL_mixer:SDL_mixer.dll
 0001:000d3cde       _timeBeginPeriod@4         004d4cde f   winmm:WINMM.dll
 0001:000d3ce4       _timeEndPeriod@4           004d4ce4 f   winmm:WINMM.dll
 0001:000d3cea       _timeGetTime@0             004d4cea f   winmm:WINMM.dll
 0001:000d3cf0       ??0_LocaleUpdate@@QAE@PAUlocaleinfo_struct@@@Z 004d4cf0 f i LIBCMT:_ctype.obj
 0001:000d3d77       __isalpha_l                004d4d77 f i LIBCMT:_ctype.obj
 0001:000d3dcd       _isalpha                   004d4dcd f i LIBCMT:_ctype.obj
 0001:000d3dfd       __isdigit_l                004d4dfd f i LIBCMT:_ctype.obj
 0001:000d3e4e       _isdigit                   004d4e4e f i LIBCMT:_ctype.obj
 0001:000d3e7c       __isxdigit_l               004d4e7c f i LIBCMT:_ctype.obj
 0001:000d3ed2       _isxdigit                  004d4ed2 f i LIBCMT:_ctype.obj
 0001:000d3f02       __isspace_l                004d4f02 f i LIBCMT:_ctype.obj
 0001:000d3f53       _isspace                   004d4f53 f i LIBCMT:_ctype.obj
 0001:000d3f81       __isalnum_l                004d4f81 f i LIBCMT:_ctype.obj
 0001:000d3fd7       _isalnum                   004d4fd7 f i LIBCMT:_ctype.obj
 0001:000d4007       __isprint_l                004d5007 f i LIBCMT:_ctype.obj
 0001:000d405d       _isprint                   004d505d f i LIBCMT:_ctype.obj
 0001:000d4090       _strlen                    004d5090 f   LIBCMT:strlen.obj
 0001:000d411b       ___iob_func                004d511b f   LIBCMT:_file.obj
 0001:000d4121       ___initstdio               004d5121 f   LIBCMT:_file.obj
 0001:000d41d2       ___endstdio                004d51d2 f   LIBCMT:_file.obj
 0001:000d41f2       __lock_file                004d51f2 f   LIBCMT:_file.obj
 0001:000d4233       __lock_file2               004d5233 f   LIBCMT:_file.obj
 0001:000d4265       __unlock_file              004d5265 f   LIBCMT:_file.obj
 0001:000d42a1       __unlock_file2             004d52a1 f   LIBCMT:_file.obj
 0001:000d42d0       _atol                      004d52d0 f   LIBCMT:atox.obj
 0001:000d42e6       _atoi                      004d52e6 f   LIBCMT:atox.obj
 0001:000d42f1       _fgetc                     004d52f1 f   LIBCMT:fgetc.obj
 0001:000d43f5       _remove                    004d53f5 f   LIBCMT:unlink.obj
 0001:000d44df       ___onexitinit              004d54df f   LIBCMT:onexit.obj
 0001:000d4510       __onexit                   004d5510 f   LIBCMT:onexit.obj
 0001:000d454c       _atexit                    004d554c f   LIBCMT:onexit.obj
 0001:000d4563       __fsopen                   004d5563 f   LIBCMT:fopen.obj
 0001:000d4627       _fopen                     004d5627 f   LIBCMT:fopen.obj
 0001:000d463e       _fprintf                   004d563e f   LIBCMT:fprintf.obj
 0001:000d4760       _strrchr                   004d5760 f   LIBCMT:strrchr.obj
 0001:000d478d       __fclose_nolock            004d578d f   LIBCMT:fclose.obj
 0001:000d4804       _fclose                    004d5804 f   LIBCMT:fclose.obj
 0001:000d4880       __crt_waiting_on_module_handle 004d5880 f   LIBCMT:crt0dat.obj
 0001:000d48b0       __amsg_exit                004d58b0 f   LIBCMT:crt0dat.obj
 0001:000d48d9       ___crtCorExitProcess       004d58d9 f   LIBCMT:crt0dat.obj
 0001:000d4904       ___crtExitProcess          004d5904 f   LIBCMT:crt0dat.obj
 0001:000d491c       __lockexit                 004d591c f   LIBCMT:crt0dat.obj
 0001:000d4925       __unlockexit               004d5925 f   LIBCMT:crt0dat.obj
 0001:000d494b       __initterm_e               004d594b f   LIBCMT:crt0dat.obj
 0001:000d496f       __cinit                    004d596f f   LIBCMT:crt0dat.obj
 0001:000d4b20       _exit                      004d5b20 f   LIBCMT:crt0dat.obj
 0001:000d4b36       __exit                     004d5b36 f   LIBCMT:crt0dat.obj
 0001:000d4b4c       __cexit                    004d5b4c f   LIBCMT:crt0dat.obj
 0001:000d4b5b       __c_exit                   004d5b5b f   LIBCMT:crt0dat.obj
 0001:000d4b6a       __init_pointers            004d5b6a f   LIBCMT:crt0dat.obj
 0001:000d4bb8       ??3@YAXPAX@Z               004d5bb8 f   LIBCMT:delete.obj
 0001:000d4bc3       ??0bad_alloc@std@@QAE@XZ   004d5bc3 f i LIBCMT:new.obj
 0001:000d4bde       ??1bad_alloc@std@@UAE@XZ   004d5bde f i LIBCMT:new.obj
 0001:000d4be9       ??_Ebad_alloc@std@@UAEPAXI@Z 004d5be9 f i LIBCMT:new.obj
 0001:000d4be9       ??_Gbad_alloc@std@@UAEPAXI@Z 004d5be9 f i LIBCMT:new.obj
 0001:000d4c10       ??0bad_alloc@std@@QAE@ABV01@@Z 004d5c10 f i LIBCMT:new.obj
 0001:000d4c2d       ??2@YAPAXI@Z               004d5c2d f   LIBCMT:new.obj
 0001:000d4ca0       _floor                     004d5ca0 f   LIBCMT:_floor_pentium4_.obj
 0001:000d4ce0       __floor_pentium4           004d5ce0 f   LIBCMT:_floor_pentium4_.obj
 0001:000d4dd0       _memset                    004d5dd0 f   LIBCMT:memset.obj
 0001:000d4e50       _memcpy                    004d5e50 f   LIBCMT:memcpy.obj
 0001:000d51c0       _strncpy                   004d61c0 f   LIBCMT:strncpy.obj
 0001:000d52f0       _strcmp                    004d62f0 f   LIBCMT:strcmp.obj
 0001:000d5378       __vsnprintf_l              004d6378 f   LIBCMT:vsnprint.obj
 0001:000d542b       __vsnprintf                004d642b f   LIBCMT:vsnprint.obj
 0001:000d5448       _strncmp                   004d6448 f   LIBCMT:strncmp.obj
 0001:000d5508       ??_L@YGXPAXIHP6EX0@Z1@Z    004d6508 f   LIBCMT:ehvecctr.obj
 0001:000d556d       ?__ArrayUnwind@@YGXPAXIHP6EX0@Z@Z 004d656d f   LIBCMT:ehvecdtr.obj
 0001:000d55cb       ??_M@YGXPAXIHP6EX0@Z@Z     004d65cb f   LIBCMT:ehvecdtr.obj
 0001:000d562e       _memcmp                    004d662e f   LIBCMT:memcmp.obj
 0001:000d6cb0       __CIsqrt                   004d7cb0 f   LIBCMT:_sqrt_.obj
 0001:000d6cc4       _sqrt                      004d7cc4     LIBCMT:_sqrt_.obj
 0001:000d6d70       _cos                       004d7d70 f   LIBCMT:_cos_.obj
 0001:000d6db0       __CIcos                    004d7db0 f   LIBCMT:_cos_.obj
 0001:000d6deb       __CIcos_default            004d7deb f   LIBCMT:_cos_.obj
 0001:000d6dff       __cos_default              004d7dff     LIBCMT:_cos_.obj
 0001:000d6ea0       _sin                       004d7ea0 f   LIBCMT:_sin_.obj
 0001:000d6ee0       __CIsin                    004d7ee0 f   LIBCMT:_sin_.obj
 0001:000d6f1b       __CIsin_default            004d7f1b f   LIBCMT:_sin_.obj
 0001:000d6f2f       __sin_default              004d7f2f     LIBCMT:_sin_.obj
 0001:000d6fd0       _ceil                      004d7fd0 f   LIBCMT:_ceil_pentium4_.obj
 0001:000d7010       __ceil_pentium4            004d8010 f   LIBCMT:_ceil_pentium4_.obj
 0001:000d70ed       _fabs                      004d80ed f   LIBCMT:_fabs_.obj
 0001:000d71a7       _abs                       004d81a7 f   LIBCMT:abs.obj
 0001:000d71c0       _memmove                   004d81c0 f   LIBCMT:memmove.obj
 0001:000d75f0       _qsort                     004d85f0 f   LIBCMT:qsort.obj
 0001:000d783d       __purecall                 004d883d f   LIBCMT:purevirt.obj
 0001:000d7867       ??1type_info@@UAE@XZ       004d8867 f   LIBCMT:typinfo.obj
 0001:000d7877       ??_Gtype_info@@UAEPAXI@Z   004d8877 f i LIBCMT:typinfo.obj
 0001:000d7877       ??_Etype_info@@UAEPAXI@Z   004d8877 f i LIBCMT:typinfo.obj
 0001:000d7898       ??8type_info@@QBE_NABV0@@Z 004d8898 f   LIBCMT:typinfo.obj
 0001:000d78c0       _atan2                     004d88c0 f   LIBCMT:_87ctriga_.obj
 0001:000d78ca       __CIatan2                  004d88ca f   LIBCMT:_87ctriga_.obj
 0001:000d78d4       _printf                    004d88d4 f   LIBCMT:printf.obj
 0001:000d7983       __get_printf_count_output  004d8983 f   LIBCMT:printf.obj
 0001:000d79a0       _asin                      004d89a0 f   LIBCMT:_asin_.obj
 0001:000d79e0       __CIasin                   004d89e0 f   LIBCMT:_asin_.obj
 0001:000d7a1b       __CIasin_default           004d8a1b f   LIBCMT:_asin_.obj
 0001:000d7a2f       __asin_default             004d8a2f     LIBCMT:_asin_.obj
 0001:000d7af0       _pow                       004d8af0 f   LIBCMT:_pow_.obj
 0001:000d7b30       __CIpow                    004d8b30 f   LIBCMT:_pow_.obj
 0001:000d7b6b       __CIpow_default            004d8b6b f   LIBCMT:_pow_.obj
 0001:000d7b84       __pow_default              004d8b84     LIBCMT:_pow_.obj
 0001:000d7d80       _fmod                      004d8d80 f   LIBCMT:_87fmod_.obj
 0001:000d7d8a       __CIfmod                   004d8d8a f   LIBCMT:_87fmod_.obj
 0001:000d7db2       _rename                    004d8db2 f   LIBCMT:rename.obj
 0001:000d7df0       _strstr                    004d8df0 f   LIBCMT:strstr.obj
 0001:000d7e80       _strpbrk                   004d8e80 f   LIBCMT:strpbrk.obj
 0001:000d7ec0       _puts                      004d8ec0 f   LIBCMT:puts.obj
 0001:000d8020       _memchr                    004d9020 f   LIBCMT:memchr.obj
 0001:000d80d0       _tan                       004d90d0 f   LIBCMT:_tan_.obj
 0001:000d8110       __CItan                    004d9110 f   LIBCMT:_tan_.obj
 0001:000d814b       __CItan_default            004d914b f   LIBCMT:_tan_.obj
 0001:000d815f       __tan_default              004d915f     LIBCMT:_tan_.obj
 0001:000d8200       _log                       004d9200 f   LIBCMT:_log_.obj
 0001:000d8240       __CIlog                    004d9240 f   LIBCMT:_log_.obj
 0001:000d827b       __CIlog_default            004d927b f   LIBCMT:_log_.obj
 0001:000d828f       __log_default              004d928f     LIBCMT:_log_.obj
 0001:000d8350       __time64                   004d9350 f   LIBCMT:time64.obj
 0001:000d83a1       __localtime64_s            004d93a1 f   LIBCMT:loctim64.obj
 0001:000d8659       __localtime64              004d9659 f   LIBCMT:loctim64.obj
 0001:000d8680       __freea                    004d9680 f i LIBCMT:strftime.obj
 0001:000d8f84       __Strftime_l               004d9f84 f   LIBCMT:strftime.obj
 0001:000d9128       _strftime                  004da128 f   LIBCMT:strftime.obj
 0001:000d9147       __tolower_l                004da147 f   LIBCMT:tolower.obj
 0001:000d925c       _tolower                   004da25c f   LIBCMT:tolower.obj
 0001:000d9290       _acos                      004da290 f   LIBCMT:_acos_.obj
 0001:000d92d0       __CIacos                   004da2d0 f   LIBCMT:_acos_.obj
 0001:000d930b       __CIacos_default           004da30b f   LIBCMT:_acos_.obj
 0001:000d931f       __acos_default             004da31f     LIBCMT:_acos_.obj
 0001:000d93f0       _strchr                    004da3f0 f   LIBCMT:strchr.obj
 0001:000d93f6       ___from_strstr_to_strchr   004da3f6     LIBCMT:strchr.obj
 0001:000d9518       _sscanf                    004da518 f   LIBCMT:sscanf.obj
 0001:000d953a       __strtod_l                 004da53a f   LIBCMT:strtod.obj
 0001:000d9659       _strtod                    004da659 f   LIBCMT:strtod.obj
 0001:000d9670       ___ascii_stricmp           004da670 f   LIBCMT:stricmp.obj
 0001:000d96a9       __stricmp_l                004da6a9 f   LIBCMT:stricmp.obj
 0001:000d977e       __stricmp                  004da77e f   LIBCMT:stricmp.obj
 0001:000d99ff       _strtol                    004da9ff f   LIBCMT:strtol.obj
 0001:000d9a30       _strcpy                    004daa30 f   LIBCMT:strcat.obj
 0001:000d9a40       _strcat                    004daa40 f   LIBCMT:strcat.obj
 0001:000d9b30       _strspn                    004dab30 f   LIBCMT:strspn.obj
 0001:000d9b76       __fputchar                 004dab76 f   LIBCMT:fputchar.obj
 0001:000d9b90       _putchar                   004dab90 f   LIBCMT:fputchar.obj
 0001:000d9b9b       __fwrite_nolock            004dab9b f   LIBCMT:fwrite.obj
 0001:000d9cfd       _fwrite                    004dacfd f   LIBCMT:fwrite.obj
 0001:000d9d80       _strcspn                   004dad80 f   LIBCMT:strcspn.obj
 0001:000d9dd0       _exp                       004dadd0 f   LIBCMT:_87ctran_.obj
 0001:000d9e0c       __CIexp                    004dae0c f   LIBCMT:_87ctran_.obj
 0001:000d9e47       __exp_default              004dae47 f   LIBCMT:_87ctran_.obj
 0001:000d9e51       __CIexp_default            004dae51 f   LIBCMT:_87ctran_.obj
 0001:000d9e5b       __atof_l                   004dae5b f   LIBCMT:atof.obj
 0001:000d9f06       _atof                      004daf06 f   LIBCMT:atof.obj
 0001:000d9f19       _sprintf                   004daf19 f   LIBCMT:sprintf.obj
 0001:000d9fa0       _atan                      004dafa0 f   LIBCMT:_atan_.obj
 0001:000d9fe0       __CIatan                   004dafe0 f   LIBCMT:_atan_.obj
 0001:000da01b       __CIatan_default           004db01b f   LIBCMT:_atan_.obj
 0001:000da02f       __atan_default             004db02f     LIBCMT:_atan_.obj
 0001:000da0c0       _log10                     004db0c0 f   LIBCMT:_log10_.obj
 0001:000da100       __CIlog10                  004db100 f   LIBCMT:_log10_.obj
 0001:000da13b       __CIlog10_default          004db13b f   LIBCMT:_log10_.obj
 0001:000da14f       __log10_default            004db14f     LIBCMT:_log10_.obj
 0001:000da210       _wcsncpy                   004db210 f   LIBCMT:wcsncpy.obj
 0001:000da25a       __toupper_l                004db25a f   LIBCMT:toupper.obj
 0001:000da370       _toupper                   004db370 f   LIBCMT:toupper.obj
 0001:000da39c       _feof                      004db39c f   LIBCMT:feoferr.obj
 0001:000da3d0       __ftell_nolock             004db3d0 f   LIBCMT:ftell.obj
 0001:000da56d       _ftell                     004db56d f   LIBCMT:ftell.obj
 0001:000da5db       __fseek_nolock             004db5db f   LIBCMT:fseek.obj
 0001:000da665       _fseek                     004db665 f   LIBCMT:fseek.obj
 0001:000da6ea       __fread_nolock_s           004db6ea f   LIBCMT:fread.obj
 0001:000da8f4       _fread_s                   004db8f4 f   LIBCMT:fread.obj
 0001:000da98a       _fread                     004db98a f   LIBCMT:fread.obj
 0001:000da9a7       _fputc                     004db9a7 f   LIBCMT:fputc.obj
 0001:000da9a7       _putc                      004db9a7 f   LIBCMT:fputc.obj
 0001:000daab3       _fgets                     004dbab3 f   LIBCMT:fgets.obj
 0001:000dabfb       _fputs                     004dbbfb f   LIBCMT:fputs.obj
 0001:000dad0a       _vfprintf_helper           004dbd0a f   LIBCMT:vfprintf.obj
 0001:000dae25       _vfprintf                  004dbe25 f   LIBCMT:vfprintf.obj
 0001:000dae44       __ctime64                  004dbe44 f   LIBCMT:ctime64.obj
 0001:000db022       _mainCRTStartup            004dc022 f   LIBCMT:crt0.obj
 0001:000db02c       __get_sys_err_msg          004dc02c f i LIBCMT:perror.obj
 0001:000db054       _perror                    004dc054 f   LIBCMT:perror.obj
 0001:000db0e2       _V6_HeapAlloc              004dc0e2 f   LIBCMT:malloc.obj
 0001:000db131       _malloc                    004dc131 f   LIBCMT:malloc.obj
 0001:000db1fb       _free                      004dc1fb f   LIBCMT:free.obj
 0001:000db289       _abort                     004dc289 f   LIBCMT:abort.obj
 0001:000db3a0       __set_abort_behavior       004dc3a0 f   LIBCMT:abort.obj
 0001:000db5e7       ___updatetmbcinfo          004dc5e7 f   LIBCMT:mbctype.obj
 0001:000db707       __setmbcp_nolock           004dc707 f   LIBCMT:mbctype.obj
 0001:000db8ec       __setmbcp                  004dc8ec f   LIBCMT:mbctype.obj
 0001:000dba86       ___initmbctable            004dca86 f   LIBCMT:mbctype.obj
 0001:000dbaa4       ___freetlocinfo            004dcaa4 f   LIBCMT:setlocal.obj
 0001:000dbbed       ___addlocaleref            004dcbed f   LIBCMT:setlocal.obj
 0001:000dbc7c       ___removelocaleref         004dcc7c f   LIBCMT:setlocal.obj
 0001:000dbd53       ___updatetlocinfo          004dcd53 f   LIBCMT:setlocal.obj
 0001:000dbdc9       __encode_pointer           004dcdc9 f   LIBCMT:tidtable.obj
 0001:000dbe3b       __encoded_null             004dce3b f   LIBCMT:tidtable.obj
 0001:000dbe44       __decode_pointer           004dce44 f   LIBCMT:tidtable.obj
 0001:000dbeb6       ___crtTlsAlloc@4           004dceb6 f   LIBCMT:tidtable.obj
 0001:000dbebf       ___set_flsgetvalue         004dcebf f   LIBCMT:tidtable.obj
 0001:000dbef3       __mtterm                   004dcef3 f   LIBCMT:tidtable.obj
 0001:000dbf30       __initptd                  004dcf30 f   LIBCMT:tidtable.obj
 0001:000dc017       __getptd_noexit            004dd017 f   LIBCMT:tidtable.obj
 0001:000dc090       __getptd                   004dd090 f   LIBCMT:tidtable.obj
 0001:000dc0aa       __freefls@4                004dd0aa f   LIBCMT:tidtable.obj
 0001:000dc1d9       __mtinit                   004dd1d9 f   LIBCMT:tidtable.obj
 0001:000dc366       __isctype_l                004dd366 f   LIBCMT:isctype.obj
 0001:000dc41e       __ioinit                   004dd41e f   LIBCMT:ioinit.obj
 0001:000dc672       __malloc_crt               004dd672 f   LIBCMT:crtheap.obj
 0001:000dc6b7       __calloc_crt               004dd6b7 f   LIBCMT:crtheap.obj
 0001:000dc703       __realloc_crt              004dd703 f   LIBCMT:crtheap.obj
 0001:000dc751       __recalloc_crt             004dd751 f   LIBCMT:crtheap.obj
 0001:000dc7a3       __fcloseall                004dd7a3 f   LIBCMT:closeall.obj
 0001:000dc842       __flush                    004dd842 f   LIBCMT:fflush.obj
 0001:000dc8aa       __fflush_nolock            004dd8aa f   LIBCMT:fflush.obj
 0001:000dc9cc       __flushall                 004dd9cc f   LIBCMT:fflush.obj
 0001:000dc9d5       __mtinitlocks              004dd9d5 f   LIBCMT:mlock.obj
 0001:000dca20       __mtdeletelocks            004dda20 f   LIBCMT:mlock.obj
 0001:000dca77       __unlock                   004dda77 f   LIBCMT:mlock.obj
 0001:000dca8e       __mtinitlocknum            004dda8e f   LIBCMT:mlock.obj
 0001:000dcb51       __lock                     004ddb51 f   LIBCMT:mlock.obj
 0001:000dcb84       __filbuf                   004ddb84 f   LIBCMT:_filbuf.obj
 0001:000dccaf       __fileno                   004ddcaf f   LIBCMT:fileno.obj
 0001:000dcce1       __initp_misc_invarg        004ddce1 f   LIBCMT:invarg.obj
 0001:000dccf0       __invoke_watson            004ddcf0 f   LIBCMT:invarg.obj
 0001:000dce18       __invalid_parameter        004dde18 f   LIBCMT:invarg.obj
 0001:000dce3e       __get_errno_from_oserr     004dde3e f   LIBCMT:dosmap.obj
 0001:000dce80       __errno                    004dde80 f   LIBCMT:dosmap.obj
 0001:000dce93       ___doserrno                004dde93 f   LIBCMT:dosmap.obj
 0001:000dcea6       __dosmaperr                004ddea6 f   LIBCMT:dosmap.obj
 0001:000dcecc       __SEH_prolog4              004ddecc f   LIBCMT:sehprolg4.obj
 0001:000dcf11       __SEH_epilog4              004ddf11 f   LIBCMT:sehprolg4.obj
 0001:000dcf30       __except_handler4          004ddf30 f   LIBCMT:chandler4.obj
 0001:000dd0bc       __msize                    004de0bc f   LIBCMT:msize.obj
 0001:000dd15f       __openfile                 004de15f f   LIBCMT:_open.obj
 0001:000dd428       __getstream                004de428 f   LIBCMT:stream.obj
 0001:000dd560       __local_unwind4            004de560 f   LIBCMT:exsup4.obj
 0001:000dd636       __seh_longjmp_unwind4@4    004de636 f   LIBCMT:exsup4.obj
 0001:000dd652       @_EH4_CallFilterFunc@8     004de652 f   LIBCMT:exsup4.obj
 0001:000dd669       @_EH4_TransferToHandler@8  004de669 f   LIBCMT:exsup4.obj
 0001:000dd682       @_EH4_GlobalUnwind@4       004de682 f   LIBCMT:exsup4.obj
 0001:000dd69c       @_EH4_LocalUnwind@16       004de69c f   LIBCMT:exsup4.obj
 0001:000dd6b3       __freebuf                  004de6b3 f   LIBCMT:_freebuf.obj
 0001:000dd6e4       __stbuf                    004de6e4 f   LIBCMT:_sftbuf.obj
 0001:000dd780       __ftbuf                    004de780 f   LIBCMT:_sftbuf.obj
 0001:000dd85a       __output_l                 004de85a f   LIBCMT:output.obj
 0001:000de3f2       __close_nolock             004df3f2 f   LIBCMT:close.obj
 0001:000de48e       __close                    004df48e f   LIBCMT:close.obj
 0001:000de55b       __NMSG_WRITE               004df55b f   LIBCMT:crt0msg.obj
 0001:000de706       __FF_MSGBANNER             004df706 f   LIBCMT:crt0msg.obj
 0001:000de73f       __RTC_Initialize           004df73f f   LIBCMT:_initsect_.obj
 0001:000de765       __RTC_Terminate            004df765 f   LIBCMT:_initsect_.obj
 0001:000de78b       __initp_misc_cfltcvt_tab   004df78b f   LIBCMT:cmiscdat.obj
 0001:000de7b0       __ValidateImageBase        004df7b0 f   LIBCMT:pesect.obj
 0001:000de7f0       __FindPESection            004df7f0 f   LIBCMT:pesect.obj
 0001:000de840       __IsNonwritableInCurrentImage 004df840 f   LIBCMT:pesect.obj
 0001:000de8fd       ?terminate@@YAXXZ          004df8fd f   LIBCMT:hooks.obj
 0001:000de936       ?unexpected@@YAXXZ         004df936 f   LIBCMT:hooks.obj
 0001:000de949       ?_inconsistency@@YAXXZ     004df949 f   LIBCMT:hooks.obj
 0001:000de981       __initp_eh_hooks           004df981 f   LIBCMT:hooks.obj
 0001:000de992       __XcptFilter               004df992 f   LIBCMT:winxfltr.obj
 0001:000deaf2       __initp_misc_winsig        004dfaf2 f   LIBCMT:winsig.obj
 0001:000deb47       ___get_sigabrt             004dfb47 f   LIBCMT:winsig.obj
 0001:000deb54       _raise                     004dfb54 f   LIBCMT:winsig.obj
 0001:000ded04       __initp_misc_rand_s        004dfd04 f   LIBCMT:rand_s.obj
 0001:000ded13       __initp_misc_purevirt      004dfd13 f   LIBCMT:inithelp.obj
 0001:000ded22       __initp_misc_initcrit      004dfd22 f   LIBCMT:initcrit.obj
 0001:000ded31       ___crtInitCritSecAndSpinCount 004dfd31 f   LIBCMT:initcrit.obj
 0001:000ded91       __initp_heap_handler       004dfd91 f   LIBCMT:handler.obj
 0001:000deda0       __callnewh                 004dfda0 f   LIBCMT:handler.obj
 0001:000dedc8       ??0exception@std@@QAE@ABQBD@Z 004dfdc8 f   LIBCMT:stdexcpt.obj
 0001:000dee1b       ??0exception@std@@QAE@ABQBDH@Z 004dfe1b f   LIBCMT:stdexcpt.obj
 0001:000dee38       ??0exception@std@@QAE@ABV01@@Z 004dfe38 f   LIBCMT:stdexcpt.obj
 0001:000dee95       ??1exception@std@@UAE@XZ   004dfe95 f   LIBCMT:stdexcpt.obj
 0001:000deeab       ?what@exception@std@@UBEPBDXZ 004dfeab f   LIBCMT:stdexcpt.obj
 0001:000deeb8       ??0bad_cast@std@@QAE@PBD@Z 004dfeb8 f   LIBCMT:stdexcpt.obj
 0001:000deed6       ??0bad_cast@std@@QAE@ABV01@@Z 004dfed6 f   LIBCMT:stdexcpt.obj
 0001:000deef3       ??1bad_cast@std@@UAE@XZ    004dfef3 f   LIBCMT:stdexcpt.obj
 0001:000deefe       ??0bad_typeid@std@@QAE@PBD@Z 004dfefe f   LIBCMT:stdexcpt.obj
 0001:000def1c       ??0bad_typeid@std@@QAE@ABV01@@Z 004dff1c f   LIBCMT:stdexcpt.obj
 0001:000def39       ??0__non_rtti_object@std@@QAE@PBD@Z 004dff39 f   LIBCMT:stdexcpt.obj
 0001:000def56       ??0__non_rtti_object@std@@QAE@ABV01@@Z 004dff56 f   LIBCMT:stdexcpt.obj
 0001:000def73       ??1__non_rtti_object@std@@UAE@XZ 004dff73 f   LIBCMT:stdexcpt.obj
 0001:000def7e       ??_Gexception@std@@UAEPAXI@Z 004dff7e f i LIBCMT:stdexcpt.obj
 0001:000def7e       ??_Eexception@std@@UAEPAXI@Z 004dff7e f i LIBCMT:stdexcpt.obj
 0001:000def9f       ??_Ebad_cast@std@@UAEPAXI@Z 004dff9f f i LIBCMT:stdexcpt.obj
 0001:000def9f       ??_Gbad_cast@std@@UAEPAXI@Z 004dff9f f i LIBCMT:stdexcpt.obj
 0001:000defc6       ??_Gbad_typeid@std@@UAEPAXI@Z 004dffc6 f i LIBCMT:stdexcpt.obj
 0001:000defc6       ??_Ebad_typeid@std@@UAEPAXI@Z 004dffc6 f i LIBCMT:stdexcpt.obj
 0001:000defc6       ??_G__non_rtti_object@std@@UAEPAXI@Z 004dffc6 f i LIBCMT:stdexcpt.obj
 0001:000defc6       ??_E__non_rtti_object@std@@UAEPAXI@Z 004dffc6 f i LIBCMT:stdexcpt.obj
 0001:000defed       __CxxThrowException@8      004dffed f   LIBCMT:throw.obj
 0001:000df039       ___libm_error_support      004e0039 f   LIBCMT:_libm_error_.obj
 0001:000df2e9       __sse2_mathfcns_init       004e02e9 f   LIBCMT:_mathfcns_.obj
 0001:000df2fd       __floor_default            004e02fd f   LIBCMT:_floor_.obj
 0001:000df429       __VEC_memzero              004e0429 f   LIBCMT:p4_memset.obj
 0001:000df53f       __VEC_memcpy               004e053f f   LIBCMT:p4_memcpy.obj
 0001:000df622       __flsbuf                   004e0622 f   LIBCMT:_flsbuf.obj
 0001:000df790       __trandisp1                004e0790 f   LIBCMT:_87disp_.obj
 0001:000df7f7       __trandisp2                004e07f7 f   LIBCMT:_87disp_.obj
 0001:000df883       __rttospopde               004e0883     LIBCMT:_87disp_.obj
 0001:000df888       __rttospop                 004e0888     LIBCMT:_87disp_.obj
 0001:000df88a       __rtnospop                 004e088a     LIBCMT:_87disp_.obj
 0001:000df88c       __rttosnpop                004e088c     LIBCMT:_87disp_.obj
 0001:000df88d       __rtnospopde               004e088d     LIBCMT:_87disp_.obj
 0001:000df894       __rtzeropop                004e0894     LIBCMT:_87disp_.obj
 0001:000df896       __rtzeronpop               004e0896     LIBCMT:_87disp_.obj
 0001:000df89b       __rtonepop                 004e089b     LIBCMT:_87disp_.obj
 0001:000df89d       __rtonenpop                004e089d     LIBCMT:_87disp_.obj
 0001:000df8a2       __tosnan1                  004e08a2     LIBCMT:_87disp_.obj
 0001:000df8cd       __nosnan2                  004e08cd     LIBCMT:_87disp_.obj
 0001:000df8cf       __tosnan2                  004e08cf     LIBCMT:_87disp_.obj
 0001:000df8f7       __nan2                     004e08f7     LIBCMT:_87disp_.obj
 0001:000df936       __rtindfpop                004e0936     LIBCMT:_87disp_.obj
 0001:000df938       __rtindfnpop               004e0938     LIBCMT:_87disp_.obj
 0001:000df949       __rttosnpopde              004e0949     LIBCMT:_87disp_.obj
 0001:000df953       __rtchsifneg               004e0953     LIBCMT:_87disp_.obj
 0001:000df95a       __fpclear                  004e095a f   LIBCMT:_fpinit_.obj
 0001:000df95a       __initp_misc_winxfltr      004e095a f   LIBCMT:winxfltr.obj
 0001:000df95b       __cfltcvt_init             004e095b f   LIBCMT:_fpinit_.obj
 0001:000df9bb       __fpmath                   004e09bb f   LIBCMT:_fpinit_.obj
 0001:000df9e0       __startTwoArgErrorHandling 004e09e0 f   LIBCMT:_genexcep_.obj
 0001:000df9f7       __startOneArgErrorHandling 004e09f7 f   LIBCMT:_genexcep_.obj
 0001:000dfa40       __twoToTOS                 004e0a40 f   LIBCMT:_common_.obj
 0001:000dfa55       __load_CW                  004e0a55 f   LIBCMT:_common_.obj
 0001:000dfa6c       __convertTOStoQNaN         004e0a6c f   LIBCMT:_common_.obj
 0001:000dfa85       __fload_withFB             004e0a85 f   LIBCMT:_common_.obj
 0001:000dfac8       __checkTOS_withFB          004e0ac8 f   LIBCMT:_common_.obj
 0001:000dfade       __fast_exit                004e0ade f   LIBCMT:_common_.obj
 0001:000dfaeb       __math_exit                004e0aeb f   LIBCMT:_common_.obj
 0001:000dfb15       __check_overflow_exit      004e0b15 f   LIBCMT:_common_.obj
 0001:000dfb29       __check_range_exit         004e0b29 f   LIBCMT:_common_.obj
 0001:000dfbd0       __CIcos_pentium4           004e0bd0 f   LIBCMT:_cos_pentium4_.obj
 0001:000dfbe8       __cos_pentium4             004e0be8     LIBCMT:_cos_pentium4_.obj
 0001:000dfd80       __CIsin_pentium4           004e0d80 f   LIBCMT:_sin_pentium4_.obj
 0001:000dfd98       __sin_pentium4             004e0d98     LIBCMT:_sin_pentium4_.obj
 0001:000dff48       __ceil_default             004e0f48 f   LIBCMT:_ceil_.obj
 0001:000e001d       __raise_exc_ex             004e101d f   LIBCMT:_fpexcept_.obj
 0001:000e02f9       __raise_exc                004e12f9 f   LIBCMT:_fpexcept_.obj
 0001:000e031c       __handle_exc               004e131c f   LIBCMT:_fpexcept_.obj
 0001:000e04fe       __set_errno_from_matherr   004e14fe f   LIBCMT:_fpexcept_.obj
 0001:000e052b       __errcode                  004e152b f   LIBCMT:_fpexcept_.obj
 0001:000e055f       __umatherr                 004e155f f   LIBCMT:_fpexcept_.obj
 0001:000e05ff       __handle_qnan1             004e15ff f   LIBCMT:_fpexcept_.obj
 0001:000e0654       __except1                  004e1654 f   LIBCMT:_fpexcept_.obj
 0001:000e071d       __set_exp                  004e171d f   LIBCMT:_util_.obj
 0001:000e0749       __sptype                   004e1749 f   LIBCMT:_util_.obj
 0001:000e07a9       __decomp                   004e17a9 f   LIBCMT:_util_.obj
 0001:000e0862       __statfp                   004e1862 f   LIBCMT:_fpctrl_.obj
 0001:000e0872       __clrfp                    004e1872 f   LIBCMT:_fpctrl_.obj
 0001:000e0883       __ctrlfp                   004e1883 f   LIBCMT:_fpctrl_.obj
 0001:000e08ac       __set_statfp               004e18ac f   LIBCMT:_fpctrl_.obj
 0001:000e0904       ___set_fpsr_sse2           004e1904 f   LIBCMT:_fpctrl_.obj
 0001:000e0976       ?_Type_info_dtor@type_info@@CAXPAV1@@Z 004e1976 f   LIBCMT:typname.obj
 0001:000e0a0c       __fFATN2                   004e1a0c     LIBCMT:_87triga_.obj
 0001:000e0a5c       __rtpiby2                  004e1a5c     LIBCMT:_87triga_.obj
 0001:000e0aa0       __cintrindisp2             004e1aa0 f   LIBCMT:_87cdisp_.obj
 0001:000e0ade       __cintrindisp1             004e1ade f   LIBCMT:_87cdisp_.obj
 0001:000e0b1b       __ctrandisp2               004e1b1b f   LIBCMT:_87cdisp_.obj
 0001:000e0cb1       __ctrandisp1               004e1cb1 f   LIBCMT:_87cdisp_.obj
 0001:000e0ce4       __fload                    004e1ce4 f   LIBCMT:_87cdisp_.obj
 0001:000e0d20       __CIasin_pentium4          004e1d20 f   LIBCMT:_asin_pentium4_.obj
 0001:000e0d38       __asin_pentium4            004e1d38     LIBCMT:_asin_pentium4_.obj
 0001:000e12a0       __CIpow_pentium4           004e22a0 f   LIBCMT:_pow_pentium4_.obj
 0001:000e12b9       __pow_pentium4             004e22b9     LIBCMT:_pow_pentium4_.obj
 0001:000e1e11       __fFEXP                    004e2e11     LIBCMT:_87tran_.obj
 0001:000e1e78       __rtinfpopse               004e2e78     LIBCMT:_87tran_.obj
 0001:000e1e7a       __rtinfnpopse              004e2e7a     LIBCMT:_87tran_.obj
 0001:000e1e8a       __fFLN                     004e2e8a     LIBCMT:_87tran_.obj
 0001:000e1f3f       __rtinfpop                 004e2f3f     LIBCMT:_87tran_.obj
 0001:000e1f41       __rtinfnpop                004e2f41     LIBCMT:_87tran_.obj
 0001:000e1f5e       __ffexpm1                  004e2f5e     LIBCMT:_87tran_.obj
 0001:000e2007       __d_inttype                004e3007 f   LIBCMT:_powhlp_.obj
 0001:000e206d       __powhlp                   004e306d f   LIBCMT:_powhlp_.obj
 0001:000e21b0       _fdiv_main_routine         004e31b0 f   LIBCMT:_adj_fdiv_.obj
 0001:000e22c7       __adj_fdiv_r               004e32c7 f   LIBCMT:_adj_fdiv_.obj
 0001:000e2766       __fdivp_sti_st             004e3766 f   LIBCMT:_adj_fdiv_.obj
 0001:000e2779       __fdivrp_sti_st            004e3779 f   LIBCMT:_adj_fdiv_.obj
 0001:000e278c       __adj_fdiv_m32             004e378c f   LIBCMT:_adj_fdiv_.obj
 0001:000e27d8       __adj_fdiv_m64             004e37d8 f   LIBCMT:_adj_fdiv_.obj
 0001:000e2824       __adj_fdiv_m16i            004e3824 f   LIBCMT:_adj_fdiv_.obj
 0001:000e2858       __adj_fdiv_m32i            004e3858 f   LIBCMT:_adj_fdiv_.obj
 0001:000e288c       __adj_fdivr_m32            004e388c f   LIBCMT:_adj_fdiv_.obj
 0001:000e28d8       __adj_fdivr_m64            004e38d8 f   LIBCMT:_adj_fdiv_.obj
 0001:000e2924       __adj_fdivr_m16i           004e3924 f   LIBCMT:_adj_fdiv_.obj
 0001:000e2958       __adj_fdivr_m32i           004e3958 f   LIBCMT:_adj_fdiv_.obj
 0001:000e298c       __safe_fdiv                004e398c f   LIBCMT:_adj_fdiv_.obj
 0001:000e29a1       __safe_fdivr               004e39a1 f   LIBCMT:_adj_fdiv_.obj
 0001:000e29b6       __fprem_common             004e39b6 f   LIBCMT:_adj_fdiv_.obj
 0001:000e2bbc       __adj_fprem                004e3bbc f   LIBCMT:_adj_fdiv_.obj
 0001:000e2c6e       __fprem1_common            004e3c6e f   LIBCMT:_adj_fdiv_.obj
 0001:000e2e74       __adj_fprem1               004e3e74 f   LIBCMT:_adj_fdiv_.obj
 0001:000e2f29       __safe_fprem               004e3f29 f   LIBCMT:_adj_fdiv_.obj
 0001:000e2f2f       __safe_fprem1              004e3f2f f   LIBCMT:_adj_fdiv_.obj
 0001:000e2f35       __adj_fpatan               004e3f35 f   LIBCMT:_adj_fdiv_.obj
 0001:000e2f38       __adj_fptan                004e3f38 f   LIBCMT:_adj_fdiv_.obj
 0001:000e2f40       __CItan_pentium4           004e3f40 f   LIBCMT:_tan_pentium4_.obj
 0001:000e2f58       __tan_pentium4             004e3f58     LIBCMT:_tan_pentium4_.obj
 0001:000e31a0       __CIlog_pentium4           004e41a0 f   LIBCMT:_log_pentium4_.obj
 0001:000e31b8       __log_pentium4             004e41b8     LIBCMT:_log_pentium4_.obj
 0001:000e3410       __aulldiv                  004e4410 f   LIBCMT:ulldiv.obj
 0001:000e3478       __set_daylight             004e4478 f i LIBCMT:tzset.obj
 0001:000e3489       __set_dstbias              004e4489 f i LIBCMT:tzset.obj
 0001:000e349a       __set_timezone             004e449a f i LIBCMT:tzset.obj
 0001:000e3bc0       ___tzset                   004e4bc0 f   LIBCMT:tzset.obj
 0001:000e3c0f       __isindst                  004e4c0f f   LIBCMT:tzset.obj
 0001:000e3c50       __gmtime64_s               004e4c50 f   LIBCMT:gmtime64.obj
 0001:000e3e93       __get_daylight             004e4e93 f   LIBCMT:timeset.obj
 0001:000e3ecc       __get_dstbias              004e4ecc f   LIBCMT:timeset.obj
 0001:000e3f05       __get_timezone             004e4f05 f   LIBCMT:timeset.obj
 0001:000e3f3e       ___daylight                004e4f3e f   LIBCMT:timeset.obj
 0001:000e3f44       ___dstbias                 004e4f44 f   LIBCMT:timeset.obj
 0001:000e3f4a       ___timezone                004e4f4a f   LIBCMT:timeset.obj
 0001:000e3f50       ___tzname                  004e4f50 f   LIBCMT:timeset.obj
 0001:000e3f60       __alldiv                   004e4f60 f   LIBCMT:lldiv.obj
 0001:000e4010       __allrem                   004e5010 f   LIBCMT:llrem.obj
 0001:000e40c2       ___getgmtimebuf            004e50c2 f   LIBCMT:gmtime.obj
 0001:000e40f9       _strcpy_s                  004e50f9 f   LIBCMT:strcpy_s.obj
 0001:000e4161       __isleadbyte_l             004e5161 f i LIBCMT:_wctype.obj
 0001:000e4199       _isleadbyte                004e5199 f i LIBCMT:_wctype.obj
 0001:000e41ac       @__security_check_cookie@4 004e51ac f   LIBCMT:secchk.obj
 0001:000e41c0       __alloca_probe_16          004e51c0 f   LIBCMT:alloca16.obj
 0001:000e41d6       __alloca_probe_8           004e51d6     LIBCMT:alloca16.obj
 0001:000e4591       ___crtLCMapStringA         004e5591 f   LIBCMT:a_map.obj
 0001:000e45e0       __CIacos_pentium4          004e55e0 f   LIBCMT:_acos_pentium4_.obj
 0001:000e45f8       __acos_pentium4            004e55f8     LIBCMT:_acos_pentium4_.obj
 0001:000e4bfe       __input_l                  004e5bfe f   LIBCMT:input.obj
 0001:000e5bc0       __fltin2                   004e6bc0 f   LIBCMT:_cfin_.obj
 0001:000e5c67       __write_nolock             004e6c67 f   LIBCMT:write.obj
 0001:000e639a       __write                    004e739a f   LIBCMT:write.obj
 0001:000e6480       __CIexp_pentium4           004e7480 f   LIBCMT:_exp_pentium4_.obj
 0001:000e6498       __exp_pentium4             004e7498     LIBCMT:_exp_pentium4_.obj
 0001:000e6740       ___strgtold12_l            004e7740 f   LIBCMT:_strgtold_.obj
 0001:000e6e40       __CIatan_pentium4          004e7e40 f   LIBCMT:_atan_pentium4_.obj
 0001:000e6e58       __atan_pentium4            004e7e58     LIBCMT:_atan_pentium4_.obj
 0001:000e7130       __CIlog10_pentium4         004e8130 f   LIBCMT:_log10_pentium4_.obj
 0001:000e7148       __log10_pentium4           004e8148     LIBCMT:_log10_pentium4_.obj
 0001:000e73c0       __lseek_nolock             004e83c0 f   LIBCMT:lseek.obj
 0001:000e7435       __lseek                    004e8435 f   LIBCMT:lseek.obj
 0001:000e7511       __read_nolock              004e8511 f   LIBCMT:read.obj
 0001:000e7ad3       __read                     004e8ad3 f   LIBCMT:read.obj
 0001:000e7bd0       _memcpy_s                  004e8bd0 f   LIBCMT:memcpy_s.obj
 0001:000e7c4d       _asctime_s                 004e8c4d f   LIBCMT:asctime.obj
 0001:000e7e1b       _asctime                   004e8e1b f   LIBCMT:asctime.obj
 0001:000e7e67       ?__CxxUnhandledExceptionFilter@@YGJPAU_EXCEPTION_POINTERS@@@Z 004e8e67 f   LIBCMT:unhandld.obj
 0001:000e7ea9       ___CxxSetUnhandledExceptionFilter 004e8ea9 f   LIBCMT:unhandld.obj
 0001:000e7eb7       __setenvp                  004e8eb7 f   LIBCMT:stdenvp.obj
 0001:000e812f       __setargv                  004e912f f   LIBCMT:stdargv.obj
 0001:000e81ea       ___crtGetEnvironmentStringsA 004e91ea f   LIBCMT:a_env.obj
 0001:000e8321       __heap_init                004e9321 f   LIBCMT:heapinit.obj
 0001:000e8351       ___security_init_cookie    004e9351 f   LIBCMT:gs_support.obj
 0001:000e83e7       __time32                   004e93e7 f   LIBCMT:time.obj
 0001:000e83e7       _time                      004e93e7 f   LIBCMT:time.obj
 0001:000e8435       ___sys_nerr                004e9435 f   LIBCMT:syserr.obj
 0001:000e843b       ___sys_errlist             004e943b f   LIBCMT:syserr.obj
 0001:000e8441       __set_osfhnd               004e9441 f   LIBCMT:osfinfo.obj
 0001:000e84c2       __free_osfhnd              004e94c2 f   LIBCMT:osfinfo.obj
 0001:000e8548       __get_osfhandle            004e9548 f   LIBCMT:osfinfo.obj
 0001:000e85bf       ___lock_fhandle            004e95bf f   LIBCMT:osfinfo.obj
 0001:000e865f       __unlock_fhandle           004e965f f   LIBCMT:osfinfo.obj
 0001:000e8686       __alloc_osfhnd             004e9686 f   LIBCMT:osfinfo.obj
 0001:000e8820       ___sbh_find_block          004e9820 f   LIBCMT:sbheap.obj
 0001:000e8850       ___sbh_free_block          004e9850 f   LIBCMT:sbheap.obj
 0001:000e8b66       ___sbh_alloc_new_region    004e9b66 f   LIBCMT:sbheap.obj
 0001:000e8c16       ___sbh_alloc_new_group     004e9c16 f   LIBCMT:sbheap.obj
 0001:000e8d1e       ___sbh_resize_block        004e9d1e f   LIBCMT:sbheap.obj
 0001:000e8fff       ___sbh_alloc_block         004e9fff f   LIBCMT:sbheap.obj
 0001:000e949e       ___crtGetStringTypeA       004ea49e f   LIBCMT:a_str.obj
 0001:000e94e0       ___free_lc_time            004ea4e0 f   LIBCMT:inittime.obj
 0001:000e9675       ___free_lconv_num          004ea675 f   LIBCMT:initnum.obj
 0001:000e96ba       ___free_lconv_mon          004ea6ba f   LIBCMT:initmon.obj
 0001:000e9748       ____lc_codepage_func       004ea748 f   LIBCMT:initctyp.obj
 0001:000e976e       _strcat_s                  004ea76e f   LIBCMT:strcat_s.obj
 0001:000e97e2       _strncpy_s                 004ea7e2 f   LIBCMT:strncpy_s.obj
 0001:000e9897       __calloc_impl              004ea897 f   LIBCMT:calloc_impl.obj
 0001:000e99b5       _realloc                   004ea9b5 f   LIBCMT:realloc.obj
 0001:000e9bd0       __recalloc                 004eabd0 f   LIBCMT:recalloc.obj
 0001:000e9c4b       __commit                   004eac4b f   LIBCMT:commit.obj
 0001:000e9d30       __allmul                   004ead30 f   LIBCMT:llmul.obj
 0001:000e9d70       __aulldvrm                 004ead70 f   LIBCMT:ulldvrm.obj
 0001:000e9e05       __getbuf                   004eae05 f   LIBCMT:_getbuf.obj
 0001:000e9e4e       __crt_debugger_hook        004eae4e f   LIBCMT:dbghook.obj
 0001:000ea575       __sopen_helper             004eb575 f   LIBCMT:open.obj
 0001:000ea641       __sopen_s                  004eb641 f   LIBCMT:open.obj
 0001:000ea661       __mbsnbicmp_l              004eb661 f   LIBCMT:mbsnbicm.obj
 0001:000ea88c       __mbsnbicmp                004eb88c f   LIBCMT:mbsnbicm.obj
 0001:000ea8a6       __mbsnbcmp_l               004eb8a6 f   LIBCMT:mbsnbcmp.obj
 0001:000eaa10       __mbsnbcmp                 004eba10 f   LIBCMT:mbsnbcmp.obj
 0001:000eaa2c       __global_unwind2           004eba2c f   LIBCMT:exsup.obj
 0001:000eaa91       __local_unwind2            004eba91 f   LIBCMT:exsup.obj
 0001:000eab15       __abnormal_termination     004ebb15 f   LIBCMT:exsup.obj
 0001:000eab38       __NLG_Notify1              004ebb38 f   LIBCMT:exsup.obj
 0001:000eab41       __NLG_Notify               004ebb41 f   LIBCMT:exsup.obj
 0001:000eab58       __NLG_Dispatch             004ebb58     LIBCMT:exsup.obj
 0001:000eab58       __NLG_Dispatch2            004ebb58     LIBCMT:exsup.obj
 0001:000eab60       __NLG_Call                 004ebb60 f   LIBCMT:exsup.obj
 0001:000eab62       __NLG_Return2              004ebb62     LIBCMT:exsup.obj
 0001:000eab63       __isatty                   004ebb63 f   LIBCMT:isatty.obj
 0001:000eabc7       __wctomb_s_l               004ebbc7 f   LIBCMT:wctomb.obj
 0001:000ead33       _wctomb_s                  004ebd33 f   LIBCMT:wctomb.obj
 0001:000ead50       ___crtMessageBoxA          004ebd50 f   LIBCMT:crtmbox.obj
 0001:000eaeb9       __set_error_mode           004ebeb9 f   LIBCMT:errmode.obj
 0001:000eaf04       __fptrap                   004ebf04 f   LIBCMT:crt0fp.obj
 0001:000eaf0d       __matherr                  004ebf0d f   LIBCMT:_matherr_.obj
 0001:000eaf60       __get_sse2_info            004ebf60 f   LIBCMT:cpu_disp.obj
 0001:000eafc2       ___sse2_available_init     004ebfc2 f   LIBCMT:cpu_disp.obj
 0001:000eafcf       __frnd                     004ebfcf f   LIBCMT:_frnd_.obj
 0001:000eafe3       __lseeki64_nolock          004ebfe3 f   LIBCMT:lseeki64.obj
 0001:000eb068       __lseeki64                 004ec068 f   LIBCMT:lseeki64.obj
 0001:000eb181       __forcdecpt_l              004ec181 f   LIBCMT:cvt.obj
 0001:000eb1f4       __cropzeros_l              004ec1f4 f   LIBCMT:cvt.obj
 0001:000eb276       __positive                 004ec276 f   LIBCMT:cvt.obj
 0001:000eb292       __fassign_l                004ec292 f   LIBCMT:cvt.obj
 0001:000eb2d4       __fassign                  004ec2d4 f   LIBCMT:cvt.obj
 0001:000eb30d       __forcdecpt                004ec30d f   LIBCMT:cvt.obj
 0001:000eb320       __cropzeros                004ec320 f   LIBCMT:cvt.obj
 0001:000eb4a2       __cftoe_l                  004ec4a2 f   LIBCMT:cvt.obj
 0001:000eb572       __cftoe                    004ec572 f   LIBCMT:cvt.obj
 0001:000eb592       __cftoa_l                  004ec592 f   LIBCMT:cvt.obj
 0001:000eb9fc       __cftof_l                  004ec9fc f   LIBCMT:cvt.obj
 0001:000ebab7       __cftog_l                  004ecab7 f   LIBCMT:cvt.obj
 0001:000ebbb1       __cfltcvt_l                004ecbb1 f   LIBCMT:cvt.obj
 0001:000ebc39       __cfltcvt                  004ecc39 f   LIBCMT:cvt.obj
 0001:000ebc5c       __setdefaultprecision      004ecc5c f   LIBCMT:fp8.obj
 0001:000ebc87       __ms_p5_test_fdiv          004ecc87 f   LIBCMT:_testfdiv_.obj
 0001:000ebcc5       __ms_p5_mp_test_fdiv       004eccc5 f   LIBCMT:_testfdiv_.obj
 0001:000ebcee       __87except                 004eccee f   LIBCMT:_87except_.obj
 0001:000ebe2d       __fpclass                  004ece2d f   LIBCMT:_ieeemisc_.obj
 0001:000ebec1       __getenv_helper_nolock     004ecec1 f   LIBCMT:getenv.obj
 0001:000ebf48       ___report_gsfailure        004ecf48 f   LIBCMT:gs_report.obj
 0001:000ec050       __alloca_probe             004ed050     LIBCMT:chkstk.obj
 0001:000ec050       __chkstk                   004ed050 f   LIBCMT:chkstk.obj
 0001:000ec07b       ___ansicp                  004ed07b f   LIBCMT:convrtcp.obj
 0001:000ec0c4       ___convertcp               004ed0c4 f   LIBCMT:convrtcp.obj
 0001:000ec278       __ungetc_nolock            004ed278 f   LIBCMT:ungetc.obj
 0001:000ec369       __mbtowc_l                 004ed369 f   LIBCMT:mbtowc.obj
 0001:000ec480       _mbtowc                    004ed480 f   LIBCMT:mbtowc.obj
 0001:000ec49a       __ld12tod                  004ed49a f   LIBCMT:_intrncvt_.obj
 0001:000ec9de       __ld12tof                  004ed9de f   LIBCMT:_intrncvt_.obj
 0001:000ecf22       __putwch_nolock            004edf22 f   LIBCMT:putwch.obj
 0001:000ecfe7       ___mtold12                 004edfe7 f   LIBCMT:_mantold_.obj
 0001:000ed208       __ismbblead                004ee208 f   LIBCMT:ismbbyte.obj
 0001:000ed220       __strnicmp_l               004ee220 f   LIBCMT:strnicmp.obj
 0001:000ed312       __strnicmp                 004ee312 f   LIBCMT:strnicmp.obj
 0001:000ed370       __chsize_nolock            004ee370 f   LIBCMT:chsize.obj
 0001:000ed526       __setmode_nolock           004ee526 f   LIBCMT:setmode.obj
 0001:000ed5e2       __get_fmode                004ee5e2 f   LIBCMT:setmode.obj
 0001:000ed61b       __atodbl_l                 004ee61b f   LIBCMT:atodbl.obj
 0001:000ed6c3       __atoflt_l                 004ee6c3 f   LIBCMT:atodbl.obj
 0001:000ed76b       __fptostr                  004ee76b f   LIBCMT:_fptostr.obj
 0001:000ed82a       ___dtold                   004ee82a f   LIBCMT:_cfout_.obj
 0001:000ed8e7       __fltout2                  004ee8e7 f   LIBCMT:_cfout_.obj
 0001:000ed980       __alldvrm                  004ee980 f   LIBCMT:lldvrm.obj
 0001:000eda60       __aullshr                  004eea60 f   LIBCMT:ullshr.obj
 0001:000eda7f       __controlfp_s              004eea7f f   LIBCMT:_contrlfp_.obj
 0001:000edaeb       __mbsnbicoll_l             004eeaeb f   LIBCMT:mbsnbico.obj
 0001:000edbd9       __mbsnbicoll               004eebd9 f   LIBCMT:mbsnbico.obj
 0001:000edbf3       ___wtomb_environ           004eebf3 f   LIBCMT:wtombenv.obj
 0001:000edc8a       ___initconout              004eec8a f   LIBCMT:initcon.obj
 0001:000edca9       ___termcon                 004eeca9 f   LIBCMT:initcon.obj
 0001:000edce0       ___ascii_strnicmp          004eece0 f   LIBCMT:_strnicm.obj
 0001:000edd41       _$I10_OUTPUT               004eed41 f   LIBCMT:_x10fout_.obj
 0001:000ee793       __control87                004ef793 f i LIBCMT:_ieee87_.obj
 0001:000eee30       ___crtCompareStringA       004efe30 f   LIBCMT:a_cmp.obj
 0001:000eee72       __strnicoll_l              004efe72 f   LIBCMT:strnicol.obj
 0001:000ef018       ___crtsetenv               004f0018 f   LIBCMT:setenv.obj
 0001:000ef263       __strdup                   004f0263 f   LIBCMT:strdup.obj
 0001:000ef2b8       __mbschr_l                 004f02b8 f   LIBCMT:mbschr.obj
 0001:000ef374       __mbschr                   004f0374 f   LIBCMT:mbschr.obj
 0001:000ef38c       _RtlUnwind@16              004f038c f   kernel32:KERNEL32.dll
 0001:000ef3a0       __ftol2_sse                004f03a0 f   LIBCMT:ftol2.obj
 0001:000ef3a9       __ftol2_pentium4           004f03a9 f   LIBCMT:ftol2.obj
 0001:000ef3bc       __ftol2_sse_excpt          004f03bc f   LIBCMT:ftol2.obj
 0001:000ef3d6       __ftol2                    004f03d6 f   LIBCMT:ftol2.obj
 0001:000ef44b       ?_JumpToContinuation@@YGXPAXPAUEHRegistrationNode@@@Z 004f044b f   LIBCMT:_trnsctrl_.obj
 0001:000ef47d       ?_CallMemberFunction2@@YGXPAX00H@Z 004f047d f   LIBCMT:_trnsctrl_.obj
 0001:000ef47d       ?_CallMemberFunction1@@YGXPAX00@Z 004f047d f   LIBCMT:_trnsctrl_.obj
 0001:000ef47d       ?_CallMemberFunction0@@YGXPAX0@Z 004f047d f   LIBCMT:_trnsctrl_.obj
 0001:000ef484       ?_UnwindNestedFrames@@YGXPAUEHRegistrationNode@@PAUEHExceptionRecord@@@Z 004f0484 f   LIBCMT:_trnsctrl_.obj
 0001:000ef4d8       ___CxxFrameHandler3        004f04d8 f   LIBCMT:_trnsctrl_.obj
 0001:000ef541       ?_CallSETranslator@@YAHPAUEHExceptionRecord@@PAUEHRegistrationNode@@PAX2PBU_s_FuncInfo@@H1@Z 004f0541 f   LIBCMT:_trnsctrl_.obj
 0001:000ef6b7       ?_GetRangeOfTrysToCheck@@YAPBU_s_TryBlockMapEntry@@PBU_s_FuncInfo@@HHPAI1@Z 004f06b7 f   LIBCMT:_trnsctrl_.obj
 0001:000ef72c       __CreateFrameInfo          004f072c f   LIBCMT:_trnsctrl_.obj
 0001:000ef758       __IsExceptionObjectToBeDestroyed 004f0758 f   LIBCMT:_trnsctrl_.obj
 0001:000ef77f       __FindAndUnlinkFrame       004f077f f   LIBCMT:_trnsctrl_.obj
 0001:000ef7d1       ?_CallCatchBlock2@@YAPAXPAUEHRegistrationNode@@PBU_s_FuncInfo@@PAXHK@Z 004f07d1 f   LIBCMT:_trnsctrl_.obj
 0001:000ef834       __EH_prolog                004f0834 f   LIBCMT:ehprolog.obj
 0001:000ef860       __allshl                   004f0860 f   LIBCMT:llshl.obj
 0001:000efb8e       ___RTDynamicCast           004f0b8e f   LIBCMT:rtti.obj
 0001:000efc64       __SEH_prolog               004f0c64 f   LIBCMT:sehprolg.obj
 0001:000efc9f       __SEH_epilog               004f0c9f f   LIBCMT:sehprolg.obj
 0001:000efcb8       __except_handler3          004f0cb8 f   LIBCMT:exsup3.obj
 0001:000efdb6       __seh_longjmp_unwind@4     004f0db6 f   LIBCMT:exsup3.obj
 0001:000efdd1       ??0bad_exception@std@@QAE@PBD@Z 004f0dd1 f i LIBCMT:frame.obj
 0001:000efdef       ??1bad_exception@std@@UAE@XZ 004f0def f i LIBCMT:frame.obj
 0001:000efdfa       ??_Ebad_exception@std@@UAEPAXI@Z 004f0dfa f i LIBCMT:frame.obj
 0001:000efdfa       ??_Gbad_exception@std@@UAEPAXI@Z 004f0dfa f i LIBCMT:frame.obj
 0001:000efe21       ___TypeMatch               004f0e21 f   LIBCMT:frame.obj
 0001:000efe80       ___FrameUnwindFilter       004f0e80 f   LIBCMT:frame.obj
 0001:000efec9       ___FrameUnwindToState      004f0ec9 f   LIBCMT:frame.obj
 0001:000effef       ___DestructExceptionObject 004f0fef f   LIBCMT:frame.obj
 0001:000f0044       ___AdjustPointer           004f1044 f   LIBCMT:frame.obj
 0001:000f02cd       ___BuildCatchObjectHelper  004f12cd f   LIBCMT:frame.obj
 0001:000f044c       ___BuildCatchObject        004f144c f   LIBCMT:frame.obj
 0001:000f0987       ??0bad_exception@std@@QAE@ABV01@@Z 004f1987 f i LIBCMT:frame.obj
 0001:000f09a4       ___InternalCxxFrameHandler 004f19a4 f   LIBCMT:frame.obj
 0001:000f0a90       __CallSettingFrame@12      004f1a90 f   LIBCMT:lowhelpr.obj
 0001:000f0ab7       __NLG_Return               004f1ab7     LIBCMT:lowhelpr.obj
 0001:000f0adc       _CallDestructExceptionObject 004f1adc f   LIBCMT:calldtor.obj
 0001:000f0be0       __ValidateEH3RN            004f1be0 f   LIBCMT:eh3valid.obj
 0001:000f0f29       __EH_prolog3_catch         004f1f29 f   LIBCMT:ehprolg3.obj
 0001:000f0f5f       ?_ValidateRead@@YAHPBXI@Z  004f1f5f f   LIBCMT:validate.obj
 0001:000f0f5f       ?_ValidateExecute@@YAHP6GHXZ@Z 004f1f5f f   LIBCMT:validate.obj
 0001:000f0f5f       ?_ValidateWrite@@YAHPAXI@Z 004f1f5f f   LIBCMT:validate.obj
 0001:0010029c       ??__Fmeshgroups@?1??sharemeshes@animmodel@@QAAPAUmeshgroup@1@PADZZ@YAXXZ 0050129c f i rendermodel.obj
 0001:001002bc       ??__Fskeletons@?4??shareskeleton@skelmeshgroup@skelmodel@@QAEXPAD@Z@YAXXZ 005012bc f i rendermodel.obj
 0001:001009e9       ??__Ftargets@?N@??aidefend@captureclientmode@game@@UAE_NPAUfpsent@@AAUaistate@ai@@@Z@YAXXZ 005019e9 f i client1.obj
 0001:001009f3       ??__Ftargets@?3??aifind@captureclientmode@game@@UAEXPAUfpsent@@AAUaistate@ai@@AAU?$vector@Uinterest@ai@@@@@Z@YAXXZ 005019f3 f i client1.obj
 0001:001009fd       ??__Ftargets@?BA@??aidefend@ctfclientmode@game@@UAE_NPAUfpsent@@AAUaistate@ai@@@Z@YAXXZ 005019fd f i client1.obj
 0001:00100a07       ??__Ftargets@?6??aifind@ctfclientmode@game@@UAEXPAUfpsent@@AAUaistate@ai@@AAU?$vector@Uinterest@ai@@@@@Z@YAXXZ 00501a07 f i client1.obj
 0001:00100a11       ??__Ftakenflags@?1??aicheck@ctfclientmode@game@@UAE_NPAUfpsent@@AAUaistate@ai@@@Z@YAXXZ 00501a11 f i client1.obj
 0001:00100a1b       ??__Finterests@?4??aihomerun@ctfclientmode@game@@QAE_NPAUfpsent@@AAUaistate@ai@@@Z@YAXXZ 00501a1b f i client1.obj
 0002:00000000       __imp__VirtualQuery@12     00502000     kernel32:KERNEL32.dll
 0002:00000004       __imp__SetEnvironmentVariableA@8 00502004     kernel32:KERNEL32.dll
 0002:00000008       __imp__CompareStringW@24   00502008     kernel32:KERNEL32.dll
 0002:0000000c       __imp__CompareStringA@24   0050200c     kernel32:KERNEL32.dll
 0002:00000010       __imp__GetProcessHeap@0    00502010     kernel32:KERNEL32.dll
 0002:00000014       __imp__SetEndOfFile@4      00502014     kernel32:KERNEL32.dll
 0002:00000018       __imp__WriteConsoleW@20    00502018     kernel32:KERNEL32.dll
 0002:0000001c       __imp__GetConsoleOutputCP@0 0050201c     kernel32:KERNEL32.dll
 0002:00000020       __imp__WriteConsoleA@20    00502020     kernel32:KERNEL32.dll
 0002:00000024       __imp__CreateFileA@28      00502024     kernel32:KERNEL32.dll
 0002:00000028       __imp__FlushFileBuffers@4  00502028     kernel32:KERNEL32.dll
 0002:0000002c       __imp__GetCurrentProcessId@0 0050202c     kernel32:KERNEL32.dll
 0002:00000030       __imp__GetTickCount@0      00502030     kernel32:KERNEL32.dll
 0002:00000034       __imp__QueryPerformanceCounter@4 00502034     kernel32:KERNEL32.dll
 0002:00000038       __imp__VirtualFree@12      00502038     kernel32:KERNEL32.dll
 0002:0000003c       __imp__HeapCreate@12       0050203c     kernel32:KERNEL32.dll
 0002:00000040       __imp__GetEnvironmentStringsW@0 00502040     kernel32:KERNEL32.dll
 0002:00000044       __imp__FreeEnvironmentStringsW@4 00502044     kernel32:KERNEL32.dll
 0002:00000048       __imp__GetEnvironmentStrings@0 00502048     kernel32:KERNEL32.dll
 0002:0000004c       __imp__FreeEnvironmentStringsA@4 0050204c     kernel32:KERNEL32.dll
 0002:00000050       __imp__ReadFile@20         00502050     kernel32:KERNEL32.dll
 0002:00000054       __imp__SetFilePointer@16   00502054     kernel32:KERNEL32.dll
 0002:00000058       __imp__GetConsoleMode@8    00502058     kernel32:KERNEL32.dll
 0002:0000005c       __imp__GetConsoleCP@0      0050205c     kernel32:KERNEL32.dll
 0002:00000060       __imp__LCMapStringW@24     00502060     kernel32:KERNEL32.dll
 0002:00000064       __imp__MultiByteToWideChar@24 00502064     kernel32:KERNEL32.dll
 0002:00000068       __imp__LCMapStringA@24     00502068     kernel32:KERNEL32.dll
 0002:0000006c       __imp__GetTimeZoneInformation@4 0050206c     kernel32:KERNEL32.dll
 0002:00000070       __imp__WideCharToMultiByte@32 00502070     kernel32:KERNEL32.dll
 0002:00000074       __imp__RaiseException@16   00502074     kernel32:KERNEL32.dll
 0002:00000078       __imp__InitializeCriticalSectionAndSpinCount@8 00502078     kernel32:KERNEL32.dll
 0002:0000007c       __imp__WriteFile@20        0050207c     kernel32:KERNEL32.dll
 0002:00000080       __imp__RtlUnwind@16        00502080     kernel32:KERNEL32.dll
 0002:00000084       __imp__HeapSize@12         00502084     kernel32:KERNEL32.dll
 0002:00000088       __imp__IsDebuggerPresent@0 00502088     kernel32:KERNEL32.dll
 0002:0000008c       __imp__TerminateProcess@8  0050208c     kernel32:KERNEL32.dll
 0002:00000090       __imp__DeleteCriticalSection@4 00502090     kernel32:KERNEL32.dll
 0002:00000094       __imp__GetStartupInfoA@4   00502094     kernel32:KERNEL32.dll
 0002:00000098       __imp__GetFileType@4       00502098     kernel32:KERNEL32.dll
 0002:0000009c       __imp__GetStdHandle@4      0050209c     kernel32:KERNEL32.dll
 0002:000000a0       __imp__SetHandleCount@4    005020a0     kernel32:KERNEL32.dll
 0002:000000a4       __imp__GetCurrentThreadId@0 005020a4     kernel32:KERNEL32.dll
 0002:000000a8       __imp__SetLastError@4      005020a8     kernel32:KERNEL32.dll
 0002:000000ac       __imp__TlsFree@4           005020ac     kernel32:KERNEL32.dll
 0002:000000b0       __imp__TlsSetValue@8       005020b0     kernel32:KERNEL32.dll
 0002:000000b4       __imp__TlsAlloc@0          005020b4     kernel32:KERNEL32.dll
 0002:000000b8       __imp__TlsGetValue@4       005020b8     kernel32:KERNEL32.dll
 0002:000000bc       __imp__IsValidCodePage@4   005020bc     kernel32:KERNEL32.dll
 0002:000000c0       __imp__GetOEMCP@0          005020c0     kernel32:KERNEL32.dll
 0002:000000c4       __imp__GetACP@0            005020c4     kernel32:KERNEL32.dll
 0002:000000c8       __imp__InterlockedDecrement@4 005020c8     kernel32:KERNEL32.dll
 0002:000000cc       __imp__InterlockedIncrement@4 005020cc     kernel32:KERNEL32.dll
 0002:000000d0       __imp__GetCPInfo@8         005020d0     kernel32:KERNEL32.dll
 0002:000000d4       __imp__SetUnhandledExceptionFilter@4 005020d4     kernel32:KERNEL32.dll
 0002:000000d8       __imp__UnhandledExceptionFilter@4 005020d8     kernel32:KERNEL32.dll
 0002:000000dc       __imp__HeapFree@12         005020dc     kernel32:KERNEL32.dll
 0002:000000e0       __imp__HeapAlloc@12        005020e0     kernel32:KERNEL32.dll
 0002:000000e4       __imp__GetDateFormatA@24   005020e4     kernel32:KERNEL32.dll
 0002:000000e8       __imp__GetTimeFormatA@24   005020e8     kernel32:KERNEL32.dll
 0002:000000ec       __imp__GetSystemTimeAsFileTime@4 005020ec     kernel32:KERNEL32.dll
 0002:000000f0       __imp__MoveFileA@8         005020f0     kernel32:KERNEL32.dll
 0002:000000f4       __imp__ExitProcess@4       005020f4     kernel32:KERNEL32.dll
 0002:000000f8       __imp__GetProcAddress@8    005020f8     kernel32:KERNEL32.dll
 0002:000000fc       __imp__Sleep@4             005020fc     kernel32:KERNEL32.dll
 0002:00000100       __imp__GetModuleHandleW@4  00502100     kernel32:KERNEL32.dll
 0002:00000104       __imp__DeleteFileA@4       00502104     kernel32:KERNEL32.dll
 0002:00000108       __imp__GetLastError@0      00502108     kernel32:KERNEL32.dll
 0002:0000010c       __imp__LeaveCriticalSection@4 0050210c     kernel32:KERNEL32.dll
 0002:00000110       __imp__EnterCriticalSection@4 00502110     kernel32:KERNEL32.dll
 0002:00000114       __imp__FindNextFileA@8     00502114     kernel32:KERNEL32.dll
 0002:00000118       __imp__FindFirstFileA@8    00502118     kernel32:KERNEL32.dll
 0002:0000011c       __imp__CreateDirectoryA@8  0050211c     kernel32:KERNEL32.dll
 0002:00000120       __imp__GetFileAttributesA@4 00502120     kernel32:KERNEL32.dll
 0002:00000124       __imp__CloseHandle@4       00502124     kernel32:KERNEL32.dll
 0002:00000128       __imp__UnmapViewOfFile@4   00502128     kernel32:KERNEL32.dll
 0002:0000012c       __imp__MapViewOfFile@20    0050212c     kernel32:KERNEL32.dll
 0002:00000130       __imp__OpenFileMappingA@12 00502130     kernel32:KERNEL32.dll
 0002:00000134       __imp__GetCurrentThread@0  00502134     kernel32:KERNEL32.dll
 0002:00000138       __imp__GlobalUnlock@4      00502138     kernel32:KERNEL32.dll
 0002:0000013c       __imp__GlobalLock@4        0050213c     kernel32:KERNEL32.dll
 0002:00000140       __imp__GetCurrentProcess@0 00502140     kernel32:KERNEL32.dll
 0002:00000144       __imp__SetPriorityClass@8  00502144     kernel32:KERNEL32.dll
 0002:00000148       __imp__GetModuleHandleA@4  00502148     kernel32:KERNEL32.dll
 0002:0000014c       __imp__GetModuleFileNameA@12 0050214c     kernel32:KERNEL32.dll
 0002:00000150       __imp__LoadLibraryA@4      00502150     kernel32:KERNEL32.dll
 0002:00000154       __imp__GetCommandLineA@0   00502154     kernel32:KERNEL32.dll
 0002:00000158       __imp__VirtualAlloc@16     00502158     kernel32:KERNEL32.dll
 0002:0000015c       __imp__HeapReAlloc@16      0050215c     kernel32:KERNEL32.dll
 0002:00000160       __imp__GetStringTypeA@20   00502160     kernel32:KERNEL32.dll
 0002:00000164       __imp__GetStringTypeW@16   00502164     kernel32:KERNEL32.dll
 0002:00000168       __imp__GetLocaleInfoA@16   00502168     kernel32:KERNEL32.dll
 0002:0000016c       __imp__SetStdHandle@8      0050216c     kernel32:KERNEL32.dll
 0002:00000170       \177KERNEL32_NULL_THUNK_DATA 00502170     kernel32:KERNEL32.dll
 0002:00000174       __imp__glColor3f@12        00502174     opengl32:OPENGL32.dll
 0002:00000178       __imp__glFrustum@48        00502178     opengl32:OPENGL32.dll
 0002:0000017c       __imp__glLoadMatrixf@4     0050217c     opengl32:OPENGL32.dll
 0002:00000180       __imp__glNormalPointer@12  00502180     opengl32:OPENGL32.dll
 0002:00000184       __imp__glCullFace@4        00502184     opengl32:OPENGL32.dll
 0002:00000188       __imp__glFrontFace@4       00502188     opengl32:OPENGL32.dll
 0002:0000018c       __imp__glPolygonOffset@8   0050218c     opengl32:OPENGL32.dll
 0002:00000190       __imp__glIsEnabled@4       00502190     opengl32:OPENGL32.dll
 0002:00000194       __imp__glFogf@8            00502194     opengl32:OPENGL32.dll
 0002:00000198       __imp__glClear@4           00502198     opengl32:OPENGL32.dll
 0002:0000019c       __imp__glColorMask@16      0050219c     opengl32:OPENGL32.dll
 0002:000001a0       __imp__glCopyTexImage2D@32 005021a0     opengl32:OPENGL32.dll
 0002:000001a4       __imp__glMaterialfv@12     005021a4     opengl32:OPENGL32.dll
 0002:000001a8       __imp__glLightfv@12        005021a8     opengl32:OPENGL32.dll
 0002:000001ac       __imp__glAlphaFunc@8       005021ac     opengl32:OPENGL32.dll
 0002:000001b0       __imp__glTexGeni@12        005021b0     opengl32:OPENGL32.dll
 0002:000001b4       __imp__glLightModelfv@8    005021b4     opengl32:OPENGL32.dll
 0002:000001b8       __imp__glFlush@0           005021b8     opengl32:OPENGL32.dll
 0002:000001bc       __imp__glDepthRange@16     005021bc     opengl32:OPENGL32.dll
 0002:000001c0       __imp__glTexGenfv@12       005021c0     opengl32:OPENGL32.dll
 0002:000001c4       __imp__glColor4fv@4        005021c4     opengl32:OPENGL32.dll
 0002:000001c8       __imp__glTexEnvi@12        005021c8     opengl32:OPENGL32.dll
 0002:000001cc       __imp__glTexEnvfv@12       005021cc     opengl32:OPENGL32.dll
 0002:000001d0       __imp__glTexCoord4f@16     005021d0     opengl32:OPENGL32.dll
 0002:000001d4       __imp__glHint@8            005021d4     opengl32:OPENGL32.dll
 0002:000001d8       __imp__glTexImage1D@32     005021d8     opengl32:OPENGL32.dll
 0002:000001dc       __imp__glTexSubImage1D@28  005021dc     opengl32:OPENGL32.dll
 0002:000001e0       __imp__glTexImage2D@36     005021e0     opengl32:OPENGL32.dll
 0002:000001e4       __imp__glTexCoord3f@12     005021e4     opengl32:OPENGL32.dll
 0002:000001e8       __imp__glReadPixels@28     005021e8     opengl32:OPENGL32.dll
 0002:000001ec       __imp__glGetTexLevelParameteriv@16 005021ec     opengl32:OPENGL32.dll
 0002:000001f0       __imp__glFogi@8            005021f0     opengl32:OPENGL32.dll
 0002:000001f4       __imp__glShadeModel@4      005021f4     opengl32:OPENGL32.dll
 0002:000001f8       __imp__glClearDepth@8      005021f8     opengl32:OPENGL32.dll
 0002:000001fc       __imp__glClearColor@16     005021fc     opengl32:OPENGL32.dll
 0002:00000200       __imp__glGetIntegerv@8     00502200     opengl32:OPENGL32.dll
 0002:00000204       __imp__glGetString@4       00502204     opengl32:OPENGL32.dll
 0002:00000208       __imp__glColor3ubv@4       00502208     opengl32:OPENGL32.dll
 0002:0000020c       __imp__glColor4ubv@4       0050220c     opengl32:OPENGL32.dll
 0002:00000210       __imp__glPolygonMode@8     00502210     opengl32:OPENGL32.dll
 0002:00000214       __imp__glVertex3f@12       00502214     opengl32:OPENGL32.dll
 0002:00000218       __imp__glVertex2i@8        00502218     opengl32:OPENGL32.dll
 0002:0000021c       __imp__glViewport@16       0050221c     opengl32:OPENGL32.dll
 0002:00000220       __imp__glCopyTexSubImage2D@32 00502220     opengl32:OPENGL32.dll
 0002:00000224       __imp__glScissor@16        00502224     opengl32:OPENGL32.dll
 0002:00000228       __imp__glTexParameteri@12  00502228     opengl32:OPENGL32.dll
 0002:0000022c       __imp__glReadBuffer@4      0050222c     opengl32:OPENGL32.dll
 0002:00000230       __imp__glDrawBuffer@4      00502230     opengl32:OPENGL32.dll
 0002:00000234       __imp__glDrawArrays@12     00502234     opengl32:OPENGL32.dll
 0002:00000238       __imp__glFogfv@8           00502238     opengl32:OPENGL32.dll
 0002:0000023c       __imp__glGetFloatv@8       0050223c     opengl32:OPENGL32.dll
 0002:00000240       __imp__glDrawElements@16   00502240     opengl32:OPENGL32.dll
 0002:00000244       __imp__glDeleteTextures@8  00502244     opengl32:OPENGL32.dll
 0002:00000248       __imp__glGenTextures@8     00502248     opengl32:OPENGL32.dll
 0002:0000024c       __imp__glBindTexture@8     0050224c     opengl32:OPENGL32.dll
 0002:00000250       __imp__glPixelStorei@8     00502250     opengl32:OPENGL32.dll
 0002:00000254       __imp__glTexSubImage2D@36  00502254     opengl32:OPENGL32.dll
 0002:00000258       __imp__glBegin@4           00502258     opengl32:OPENGL32.dll
 0002:0000025c       __imp__glVertex3fv@4       0050225c     opengl32:OPENGL32.dll
 0002:00000260       __imp__glEnd@0             00502260     opengl32:OPENGL32.dll
 0002:00000264       __imp__glEnable@4          00502264     opengl32:OPENGL32.dll
 0002:00000268       __imp__glBlendFunc@8       00502268     opengl32:OPENGL32.dll
 0002:0000026c       __imp__glColor3ub@12       0050226c     opengl32:OPENGL32.dll
 0002:00000270       __imp__glDisable@4         00502270     opengl32:OPENGL32.dll
 0002:00000274       __imp__glPushMatrix@0      00502274     opengl32:OPENGL32.dll
 0002:00000278       __imp__glScalef@12         00502278     opengl32:OPENGL32.dll
 0002:0000027c       __imp__glColor4f@16        0050227c     opengl32:OPENGL32.dll
 0002:00000280       __imp__glTexCoord2fv@4     00502280     opengl32:OPENGL32.dll
 0002:00000284       __imp__glVertex2f@8        00502284     opengl32:OPENGL32.dll
 0002:00000288       __imp__glPopMatrix@0       00502288     opengl32:OPENGL32.dll
 0002:0000028c       __imp__glMultMatrixf@4     0050228c     opengl32:OPENGL32.dll
 0002:00000290       __imp__glLineWidth@4       00502290     opengl32:OPENGL32.dll
 0002:00000294       __imp__glDepthFunc@4       00502294     opengl32:OPENGL32.dll
 0002:00000298       __imp__glColor4ub@16       00502298     opengl32:OPENGL32.dll
 0002:0000029c       __imp__glColor3fv@4        0050229c     opengl32:OPENGL32.dll
 0002:000002a0       __imp__glTexCoord2f@8      005022a0     opengl32:OPENGL32.dll
 0002:000002a4       __imp__glTranslatef@12     005022a4     opengl32:OPENGL32.dll
 0002:000002a8       __imp__glRotatef@16        005022a8     opengl32:OPENGL32.dll
 0002:000002ac       __imp__glDepthMask@4       005022ac     opengl32:OPENGL32.dll
 0002:000002b0       __imp__glMatrixMode@4      005022b0     opengl32:OPENGL32.dll
 0002:000002b4       __imp__glLoadIdentity@0    005022b4     opengl32:OPENGL32.dll
 0002:000002b8       __imp__glOrtho@48          005022b8     opengl32:OPENGL32.dll
 0002:000002bc       __imp__glEnableClientState@4 005022bc     opengl32:OPENGL32.dll
 0002:000002c0       __imp__glDisableClientState@4 005022c0     opengl32:OPENGL32.dll
 0002:000002c4       __imp__glVertexPointer@16  005022c4     opengl32:OPENGL32.dll
 0002:000002c8       __imp__glTexCoordPointer@16 005022c8     opengl32:OPENGL32.dll
 0002:000002cc       __imp__glColorPointer@16   005022cc     opengl32:OPENGL32.dll
 0002:000002d0       \177OPENGL32_NULL_THUNK_DATA 005022d0     opengl32:OPENGL32.dll
 0002:000002d4       __imp__SDL_Init            005022d4     SDL:SDL.dll
 0002:000002d8       __imp__SDL_RWFromFile      005022d8     SDL:SDL.dll
 0002:000002dc       __imp__SDL_UnlockAudio     005022dc     SDL:SDL.dll
 0002:000002e0       __imp__SDL_LockAudio       005022e0     SDL:SDL.dll
 0002:000002e4       __imp__SDL_WM_SetCaption   005022e4     SDL:SDL.dll
 0002:000002e8       __imp__SDL_GetVideoInfo    005022e8     SDL:SDL.dll
 0002:000002ec       __imp__SDL_GL_SwapBuffers  005022ec     SDL:SDL.dll
 0002:000002f0       __imp__SDL_PollEvent       005022f0     SDL:SDL.dll
 0002:000002f4       __imp__SDL_SetVideoMode    005022f4     SDL:SDL.dll
 0002:000002f8       __imp__SDL_GL_SetAttribute 005022f8     SDL:SDL.dll
 0002:000002fc       __imp__SDL_VideoModeOK     005022fc     SDL:SDL.dll
 0002:00000300       __imp__SDL_ListModes       00502300     SDL:SDL.dll
 0002:00000304       __imp__SDL_EnableKeyRepeat 00502304     SDL:SDL.dll
 0002:00000308       __imp__SDL_AllocRW         00502308     SDL:SDL.dll
 0002:0000030c       __imp__SDL_WasInit         0050230c     SDL:SDL.dll
 0002:00000310       __imp__SDL_SetGamma        00502310     SDL:SDL.dll
 0002:00000314       __imp__SDL_WM_GrabInput    00502314     SDL:SDL.dll
 0002:00000318       __imp__SDL_ShowCursor      00502318     SDL:SDL.dll
 0002:0000031c       __imp__SDL_GetModState     0050231c     SDL:SDL.dll
 0002:00000320       __imp__SDL_SaveBMP_RW      00502320     SDL:SDL.dll
 0002:00000324       __imp__SDL_FreeRW          00502324     SDL:SDL.dll
 0002:00000328       __imp__SDL_SetAlpha        00502328     SDL:SDL.dll
 0002:0000032c       __imp__SDL_FreeSurface     0050232c     SDL:SDL.dll
 0002:00000330       __imp__SDL_UpperBlit       00502330     SDL:SDL.dll
 0002:00000334       __imp__SDL_CreateRGBSurface 00502334     SDL:SDL.dll
 0002:00000338       __imp__SDL_CreateRGBSurfaceFrom 00502338     SDL:SDL.dll
 0002:0000033c       __imp__SDL_GL_GetProcAddress 0050233c     SDL:SDL.dll
 0002:00000340       __imp__SDL_EnableUNICODE   00502340     SDL:SDL.dll
 0002:00000344       __imp__SDL_KillThread      00502344     SDL:SDL.dll
 0002:00000348       __imp__SDL_ThreadID        00502348     SDL:SDL.dll
 0002:0000034c       __imp__SDL_GetThreadID     0050234c     SDL:SDL.dll
 0002:00000350       __imp__SDL_Delay           00502350     SDL:SDL.dll
 0002:00000354       __imp__SDL_RemoveTimer     00502354     SDL:SDL.dll
 0002:00000358       __imp__SDL_AddTimer        00502358     SDL:SDL.dll
 0002:0000035c       __imp__SDL_WaitThread      0050235c     SDL:SDL.dll
 0002:00000360       __imp__SDL_CreateMutex     00502360     SDL:SDL.dll
 0002:00000364       __imp__SDL_DestroyMutex    00502364     SDL:SDL.dll
 0002:00000368       __imp__SDL_CreateThread    00502368     SDL:SDL.dll
 0002:0000036c       __imp__SDL_CreateCond      0050236c     SDL:SDL.dll
 0002:00000370       __imp__SDL_DestroyCond     00502370     SDL:SDL.dll
 0002:00000374       __imp__SDL_CondWaitTimeout 00502374     SDL:SDL.dll
 0002:00000378       __imp__SDL_CondBroadcast   00502378     SDL:SDL.dll
 0002:0000037c       __imp__SDL_CondWait        0050237c     SDL:SDL.dll
 0002:00000380       __imp__SDL_CondSignal      00502380     SDL:SDL.dll
 0002:00000384       __imp__SDL_mutexV          00502384     SDL:SDL.dll
 0002:00000388       __imp__SDL_mutexP          00502388     SDL:SDL.dll
 0002:0000038c       __imp__SDL_GetTicks        0050238c     SDL:SDL.dll
 0002:00000390       __imp__SDL_Quit            00502390     SDL:SDL.dll
 0002:00000394       __imp__SDL_GetError        00502394     SDL:SDL.dll
 0002:00000398       __imp__SDL_strlcpy         00502398     SDL:SDL.dll
 0002:0000039c       __imp__SDL_SetModuleHandle 0050239c     SDL:SDL.dll
 0002:000003a0       \177SDL_NULL_THUNK_DATA    005023a0     SDL:SDL.dll
 0002:000003a4       __imp__IMG_Load_RW         005023a4     SDL_image:SDL_image.dll
 0002:000003a8       __imp__IMG_Load            005023a8     SDL_image:SDL_image.dll
 0002:000003ac       \177SDL_image_NULL_THUNK_DATA 005023ac     SDL_image:SDL_image.dll
 0002:000003b0       __imp__Mix_Volume          005023b0     SDL_mixer:SDL_mixer.dll
 0002:000003b4       __imp__Mix_QuerySpec       005023b4     SDL_mixer:SDL_mixer.dll
 0002:000003b8       __imp__Mix_SetPostMix      005023b8     SDL_mixer:SDL_mixer.dll
 0002:000003bc       __imp__Mix_FadingChannel   005023bc     SDL_mixer:SDL_mixer.dll
 0002:000003c0       __imp__Mix_FadeOutChannel  005023c0     SDL_mixer:SDL_mixer.dll
 0002:000003c4       __imp__Mix_SetPanning      005023c4     SDL_mixer:SDL_mixer.dll
 0002:000003c8       __imp__Mix_HaltChannel     005023c8     SDL_mixer:SDL_mixer.dll
 0002:000003cc       __imp__Mix_FreeChunk       005023cc     SDL_mixer:SDL_mixer.dll
 0002:000003d0       __imp__Mix_Linked_Version  005023d0     SDL_mixer:SDL_mixer.dll
 0002:000003d4       __imp__Mix_PlayChannelTimed 005023d4     SDL_mixer:SDL_mixer.dll
 0002:000003d8       __imp__Mix_FadeInChannelTimed 005023d8     SDL_mixer:SDL_mixer.dll
 0002:000003dc       __imp__Mix_LoadWAV_RW      005023dc     SDL_mixer:SDL_mixer.dll
 0002:000003e0       __imp__Mix_ResumeMusic     005023e0     SDL_mixer:SDL_mixer.dll
 0002:000003e4       __imp__Mix_PausedMusic     005023e4     SDL_mixer:SDL_mixer.dll
 0002:000003e8       __imp__Mix_PlayingMusic    005023e8     SDL_mixer:SDL_mixer.dll
 0002:000003ec       __imp__Mix_CloseAudio      005023ec     SDL_mixer:SDL_mixer.dll
 0002:000003f0       __imp__Mix_PlayMusic       005023f0     SDL_mixer:SDL_mixer.dll
 0002:000003f4       __imp__Mix_LoadMUS         005023f4     SDL_mixer:SDL_mixer.dll
 0002:000003f8       __imp__Mix_LoadMUS_RW      005023f8     SDL_mixer:SDL_mixer.dll
 0002:000003fc       __imp__Mix_ChannelFinished 005023fc     SDL_mixer:SDL_mixer.dll
 0002:00000400       __imp__Mix_AllocateChannels 00502400     SDL_mixer:SDL_mixer.dll
 0002:00000404       __imp__Mix_OpenAudio       00502404     SDL_mixer:SDL_mixer.dll
 0002:00000408       __imp__Mix_FreeMusic       00502408     SDL_mixer:SDL_mixer.dll
 0002:0000040c       __imp__Mix_HaltMusic       0050240c     SDL_mixer:SDL_mixer.dll
 0002:00000410       __imp__Mix_VolumeMusic     00502410     SDL_mixer:SDL_mixer.dll
 0002:00000414       \177SDL_mixer_NULL_THUNK_DATA 00502414     SDL_mixer:SDL_mixer.dll
 0002:00000418       __imp__CloseClipboard@0    00502418     user32:USER32.dll
 0002:0000041c       __imp__MessageBoxA@16      0050241c     user32:USER32.dll
 0002:00000420       __imp__OpenClipboard@4     00502420     user32:USER32.dll
 0002:00000424       __imp__IsClipboardFormatAvailable@4 00502424     user32:USER32.dll
 0002:00000428       __imp__GetClipboardData@4  00502428     user32:USER32.dll
 0002:0000042c       \177USER32_NULL_THUNK_DATA 0050242c     user32:USER32.dll
 0002:00000430       __imp__timeEndPeriod@4     00502430     winmm:WINMM.dll
 0002:00000434       __imp__timeGetTime@0       00502434     winmm:WINMM.dll
 0002:00000438       __imp__timeBeginPeriod@4   00502438     winmm:WINMM.dll
 0002:0000043c       \177WINMM_NULL_THUNK_DATA  0050243c     winmm:WINMM.dll
 0002:00000440       __imp__WSASendTo@36        00502440     ws2_32:WS2_32.dll
 0002:00000444       __imp__closesocket@4       00502444     ws2_32:WS2_32.dll
 0002:00000448       __imp__accept@12           00502448     ws2_32:WS2_32.dll
 0002:0000044c       __imp__connect@12          0050244c     ws2_32:WS2_32.dll
 0002:00000450       __imp__setsockopt@20       00502450     ws2_32:WS2_32.dll
 0002:00000454       __imp__ioctlsocket@12      00502454     ws2_32:WS2_32.dll
 0002:00000458       __imp__socket@12           00502458     ws2_32:WS2_32.dll
 0002:0000045c       __imp__WSARecvFrom@36      0050245c     ws2_32:WS2_32.dll
 0002:00000460       __imp__bind@12             00502460     ws2_32:WS2_32.dll
 0002:00000464       __imp__gethostbyaddr@12    00502464     ws2_32:WS2_32.dll
 0002:00000468       __imp__inet_ntoa@4         00502468     ws2_32:WS2_32.dll
 0002:0000046c       __imp__inet_addr@4         0050246c     ws2_32:WS2_32.dll
 0002:00000470       __imp__gethostbyname@4     00502470     ws2_32:WS2_32.dll
 0002:00000474       __imp__WSACleanup@0        00502474     ws2_32:WS2_32.dll
 0002:00000478       __imp__WSAStartup@8        00502478     ws2_32:WS2_32.dll
 0002:0000047c       __imp__ntohs@4             0050247c     ws2_32:WS2_32.dll
 0002:00000480       __imp__htons@4             00502480     ws2_32:WS2_32.dll
 0002:00000484       __imp__htonl@4             00502484     ws2_32:WS2_32.dll
 0002:00000488       __imp__ntohl@4             00502488     ws2_32:WS2_32.dll
 0002:0000048c       __imp____WSAFDIsSet@8      0050248c     ws2_32:WS2_32.dll
 0002:00000490       __imp__WSAGetLastError@0   00502490     ws2_32:WS2_32.dll
 0002:00000494       __imp__select@20           00502494     ws2_32:WS2_32.dll
 0002:00000498       __imp__listen@8            00502498     ws2_32:WS2_32.dll
 0002:0000049c       \177WS2_32_NULL_THUNK_DATA 0050249c     ws2_32:WS2_32.dll
 0002:000004a0       __imp__SymGetLineFromAddr@16 005024a0     dbghelp:dbghelp.dll
 0002:000004a4       __imp__SymGetSymFromAddr@16 005024a4     dbghelp:dbghelp.dll
 0002:000004a8       __imp__SymFunctionTableAccess@8 005024a8     dbghelp:dbghelp.dll
 0002:000004ac       __imp__SymGetModuleBase@8  005024ac     dbghelp:dbghelp.dll
 0002:000004b0       __imp__StackWalk@36        005024b0     dbghelp:dbghelp.dll
 0002:000004b4       __imp__SymInitialize@12    005024b4     dbghelp:dbghelp.dll
 0002:000004b8       \177dbghelp_NULL_THUNK_DATA 005024b8     dbghelp:dbghelp.dll
 0002:000004bc       __imp__inflate             005024bc     zdll:zlib1.dll
 0002:000004c0       __imp__inflateReset        005024c0     zdll:zlib1.dll
 0002:000004c4       __imp__inflateEnd          005024c4     zdll:zlib1.dll
 0002:000004c8       __imp__deflateInit2_       005024c8     zdll:zlib1.dll
 0002:000004cc       __imp__inflateInit2_       005024cc     zdll:zlib1.dll
 0002:000004d0       __imp__deflateEnd          005024d0     zdll:zlib1.dll
 0002:000004d4       __imp__deflate             005024d4     zdll:zlib1.dll
 0002:000004d8       __imp__deflateInit_        005024d8     zdll:zlib1.dll
 0002:000004dc       __imp__crc32               005024dc     zdll:zlib1.dll
 0002:000004e0       __imp__uncompress          005024e0     zdll:zlib1.dll
 0002:000004e4       __imp__compress2           005024e4     zdll:zlib1.dll
 0002:000004e8       __imp__compressBound       005024e8     zdll:zlib1.dll
 0002:000004ec       \177zlib1_NULL_THUNK_DATA  005024ec     zdll:zlib1.dll
 0002:000004f0       ___xc_a                    005024f0     LIBCMT:crt0init.obj
 0002:00001a38       ___xc_z                    00503a38     LIBCMT:crt0init.obj
 0002:00001a3c       ___xi_a                    00503a3c     LIBCMT:crt0init.obj
 0002:00001a58       ___xi_z                    00503a58     LIBCMT:crt0init.obj
 0002:00001a5c       ___xp_a                    00503a5c     LIBCMT:crt0init.obj
 0002:00001a68       ___xp_z                    00503a68     LIBCMT:crt0init.obj
 0002:00001a6c       ___xt_a                    00503a6c     LIBCMT:crt0init.obj
 0002:00001a70       ___xt_z                    00503a70     LIBCMT:crt0init.obj
 0002:00001b80       ??_C@_0P@MIGLKIOC@CorExitProcess?$AA@ 00503b80     LIBCMT:crt0dat.obj
 0002:00001b90       ??_C@_1BI@BGOHAHKC@?$AAm?$AAs?$AAc?$AAo?$AAr?$AAe?$AAe?$AA?4?$AAd?$AAl?$AAl?$AA?$AA@ 00503b90     LIBCMT:crt0dat.obj
 0002:00001ba8       ??_C@_0P@GHFPNOJB@bad?5allocation?$AA@ 00503ba8     LIBCMT:new.obj
 0002:00001bbc       ??_7bad_alloc@std@@6B@     00503bbc     LIBCMT:new.obj
 0002:00001c6c       ??_7type_info@@6B@         00503c6c     LIBCMT:typinfo.obj
 0002:00001c70       ??_C@_08JCCMCCIL@HH?3mm?3ss?$AA@ 00503c70     LIBCMT:strftime.obj
 0002:00001c7c       ??_C@_0BE@CKGJFCPC@dddd?0?5MMMM?5dd?0?5yyyy?$AA@ 00503c7c     LIBCMT:strftime.obj
 0002:00001c90       ??_C@_08BPBNCDIB@MM?1dd?1yy?$AA@ 00503c90     LIBCMT:strftime.obj
 0002:00001c9c       ??_C@_02CJNFDJBF@PM?$AA@   00503c9c     LIBCMT:strftime.obj
 0002:00001ca0       ??_C@_02DEDBPAFC@AM?$AA@   00503ca0     LIBCMT:strftime.obj
 0002:00001ca4       ??_C@_08EDHMEBNP@December?$AA@ 00503ca4     LIBCMT:strftime.obj
 0002:00001cb0       ??_C@_08HCHEGEOA@November?$AA@ 00503cb0     LIBCMT:strftime.obj
 0002:00001cbc       ??_C@_07JJNFCEND@October?$AA@ 00503cbc     LIBCMT:strftime.obj
 0002:00001cc4       ??_C@_09BHHEALKD@September?$AA@ 00503cc4     LIBCMT:strftime.obj
 0002:00001cd0       ??_C@_06LBBHFDDG@August?$AA@ 00503cd0     LIBCMT:strftime.obj
 0002:00001cd8       ??_C@_04MIEPOIFP@July?$AA@ 00503cd8     LIBCMT:strftime.obj
 0002:00001ce0       ??_C@_04CNLMGBGM@June?$AA@ 00503ce0     LIBCMT:strftime.obj
 0002:00001ce8       ??_C@_05DMJDNLEJ@April?$AA@ 00503ce8     LIBCMT:strftime.obj
 0002:00001cf0       ??_C@_05HPCKOFNC@March?$AA@ 00503cf0     LIBCMT:strftime.obj
 0002:00001cf8       ??_C@_08GNJGEPFN@February?$AA@ 00503cf8     LIBCMT:strftime.obj
 0002:00001d04       ??_C@_07CGJPFGJA@January?$AA@ 00503d04     LIBCMT:strftime.obj
 0002:00001d0c       ??_C@_03MKABNOCG@Dec?$AA@  00503d0c     LIBCMT:strftime.obj
 0002:00001d10       ??_C@_03JPJOFNIA@Nov?$AA@  00503d10     LIBCMT:strftime.obj
 0002:00001d14       ??_C@_03BMAOKBAD@Oct?$AA@  00503d14     LIBCMT:strftime.obj
 0002:00001d18       ??_C@_03GGCAPAJC@Sep?$AA@  00503d18     LIBCMT:strftime.obj
 0002:00001d1c       ??_C@_03IFJFEIGA@Aug?$AA@  00503d1c     LIBCMT:strftime.obj
 0002:00001d20       ??_C@_03LBGABGKK@Jul?$AA@  00503d20     LIBCMT:strftime.obj
 0002:00001d24       ??_C@_03IDFGHECI@Jun?$AA@  00503d24     LIBCMT:strftime.obj
 0002:00001d28       ??_C@_03CNMDKL@May?$AA@    00503d28     LIBCMT:strftime.obj
 0002:00001d2c       ??_C@_03LEOLGMJP@Apr?$AA@  00503d2c     LIBCMT:strftime.obj
 0002:00001d30       ??_C@_03ODNJBKGA@Mar?$AA@  00503d30     LIBCMT:strftime.obj
 0002:00001d34       ??_C@_03HJBDCHOM@Feb?$AA@  00503d34     LIBCMT:strftime.obj
 0002:00001d38       ??_C@_03JIHJHPIE@Jan?$AA@  00503d38     LIBCMT:strftime.obj
 0002:00001d3c       ??_C@_08INBOOONO@Saturday?$AA@ 00503d3c     LIBCMT:strftime.obj
 0002:00001d48       ??_C@_06JECMNKMI@Friday?$AA@ 00503d48     LIBCMT:strftime.obj
 0002:00001d50       ??_C@_08HACCIKIA@Thursday?$AA@ 00503d50     LIBCMT:strftime.obj
 0002:00001d5c       ??_C@_09DLIGFAKA@Wednesday?$AA@ 00503d5c     LIBCMT:strftime.obj
 0002:00001d68       ??_C@_07BAAGCFCM@Tuesday?$AA@ 00503d68     LIBCMT:strftime.obj
 0002:00001d70       ??_C@_06JLEDEDGH@Monday?$AA@ 00503d70     LIBCMT:strftime.obj
 0002:00001d78       ??_C@_06OOPIFAJ@Sunday?$AA@ 00503d78     LIBCMT:strftime.obj
 0002:00001d80       ??_C@_03FEFJNEK@Sat?$AA@   00503d80     LIBCMT:strftime.obj
 0002:00001d84       ??_C@_03IDIOELNC@Fri?$AA@  00503d84     LIBCMT:strftime.obj
 0002:00001d88       ??_C@_03IOFIKPDN@Thu?$AA@  00503d88     LIBCMT:strftime.obj
 0002:00001d8c       ??_C@_03MHOMLAJA@Wed?$AA@  00503d8c     LIBCMT:strftime.obj
 0002:00001d90       ??_C@_03NAGEINEP@Tue?$AA@  00503d90     LIBCMT:strftime.obj
 0002:00001d94       ??_C@_03PDAGKDH@Mon?$AA@   00503d94     LIBCMT:strftime.obj
 0002:00001d98       ??_C@_03KOEHGMDN@Sun?$AA@  00503d98     LIBCMT:strftime.obj
 0002:00001d9c       ??_C@_03EBAPMIKO@a?1p?$AA@ 00503d9c     LIBCMT:strftime.obj
 0002:00001da0       ??_C@_05JAMEPDIN@am?1pm?$AA@ 00503da0     LIBCMT:strftime.obj
 0002:00001e28       ??_C@_0O@NLDKAIKN@EncodePointer?$AA@ 00503e28     LIBCMT:tidtable.obj
 0002:00001e38       ??_C@_1BK@DBDEIDLH@?$AAK?$AAE?$AAR?$AAN?$AAE?$AAL?$AA3?$AA2?$AA?4?$AAD?$AAL?$AAL?$AA?$AA@ 00503e38     LIBCMT:tidtable.obj
 0002:00001e54       ??_C@_0O@KBPMFGHI@DecodePointer?$AA@ 00503e54     LIBCMT:tidtable.obj
 0002:00001e64       ??_C@_07PEJMOBNF@FlsFree?$AA@ 00503e64     LIBCMT:tidtable.obj
 0002:00001e6c       ??_C@_0M@JCPCPOEF@FlsSetValue?$AA@ 00503e6c     LIBCMT:tidtable.obj
 0002:00001e78       ??_C@_0M@GDNOONDI@FlsGetValue?$AA@ 00503e78     LIBCMT:tidtable.obj
 0002:00001e84       ??_C@_08KNHFBNJ@FlsAlloc?$AA@ 00503e84     LIBCMT:tidtable.obj
 0002:00001eb0       ??_C@_1O@CEDCILHN@?$AA?$CI?$AAn?$AAu?$AAl?$AAl?$AA?$CJ?$AA?$AA@ 00503eb0     LIBCMT:output.obj
 0002:00001ec0       ??_C@_06OJHGLDPL@?$CInull?$CJ?$AA@ 00503ec0     LIBCMT:output.obj
 0002:00001ec8       ___lookuptable             00503ec8     LIBCMT:output.obj
 0002:00001f24       ??_C@_0P@GGKDKEEG@runtime?5error?5?$AA@ 00503f24     LIBCMT:crt0msg.obj
 0002:00001f34       ??_C@_0O@MJNIPGOH@TLOSS?5error?$AN?6?$AA@ 00503f34     LIBCMT:crt0msg.obj
 0002:00001f44       ??_C@_0N@BONNPDHF@SING?5error?$AN?6?$AA@ 00503f44     LIBCMT:crt0msg.obj
 0002:00001f54       ??_C@_0P@MBDAJNE@DOMAIN?5error?$AN?6?$AA@ 00503f54     LIBCMT:crt0msg.obj
 0002:00001f68       ??_C@_0JL@DFDOOABL@R6034?$AN?6An?5application?5has?5made?5a@ 00503f68     LIBCMT:crt0msg.obj
 0002:00002008       ??_C@_0PH@EPAFIJ@R6033?$AN?6?9?5Attempt?5to?5use?5MSIL?5cod@ 00504008     LIBCMT:crt0msg.obj
 0002:00002100       ??_C@_0DD@BKEEABMM@R6032?$AN?6?9?5not?5enough?5space?5for?5lo@ 00504100     LIBCMT:crt0msg.obj
 0002:00002138       ??_C@_0GD@OFKILIED@R6031?$AN?6?9?5Attempt?5to?5initialize?5t@ 00504138     LIBCMT:crt0msg.obj
 0002:0000219c       ??_C@_0BP@LPMHJOKI@R6030?$AN?6?9?5CRT?5not?5initialized?$AN?6?$AA@ 0050419c     LIBCMT:crt0msg.obj
 0002:000021bc       ??_C@_0CF@KJDAIALP@R6028?$AN?6?9?5unable?5to?5initialize?5he@ 005041bc     LIBCMT:crt0msg.obj
 0002:000021e4       ??_C@_0DF@GAKBPDFP@R6027?$AN?6?9?5not?5enough?5space?5for?5lo@ 005041e4     LIBCMT:crt0msg.obj
 0002:0000221c       ??_C@_0DF@IBLNNAIG@R6026?$AN?6?9?5not?5enough?5space?5for?5st@ 0050421c     LIBCMT:crt0msg.obj
 0002:00002254       ??_C@_0CG@IOHKGFNJ@R6025?$AN?6?9?5pure?5virtual?5function?5c@ 00504254     LIBCMT:crt0msg.obj
 0002:0000227c       ??_C@_0DF@JIJJFJDC@R6024?$AN?6?9?5not?5enough?5space?5for?5_o@ 0050427c     LIBCMT:crt0msg.obj
 0002:000022b4       ??_C@_0CJ@EGEJHFME@R6019?$AN?6?9?5unable?5to?5open?5console?5@ 005042b4     LIBCMT:crt0msg.obj
 0002:000022e0       ??_C@_0CB@GNHNIELH@R6018?$AN?6?9?5unexpected?5heap?5error?$AN?6@ 005042e0     LIBCMT:crt0msg.obj
 0002:00002304       ??_C@_0CN@FOLDKNG@R6017?$AN?6?9?5unexpected?5multithread?5@ 00504304     LIBCMT:crt0msg.obj
 0002:00002334       ??_C@_0CM@FAHFJNHO@R6016?$AN?6?9?5not?5enough?5space?5for?5th@ 00504334     LIBCMT:crt0msg.obj
 0002:00002360       ??_C@_0JG@LBKMGKLD@?$AN?6This?5application?5has?5requested@ 00504360     LIBCMT:crt0msg.obj
 0002:000023f8       ??_C@_0CM@FLCNIPKK@R6009?$AN?6?9?5not?5enough?5space?5for?5en@ 005043f8     LIBCMT:crt0msg.obj
 0002:00002424       ??_C@_0CK@KMMJOAPP@R6008?$AN?6?9?5not?5enough?5space?5for?5ar@ 00504424     LIBCMT:crt0msg.obj
 0002:00002450       ??_C@_0CN@LEKKICBM@R6002?$AN?6?9?5floating?5point?5support?5@ 00504450     LIBCMT:crt0msg.obj
 0002:00002480       ??_C@_0CF@GOGNBNAK@Microsoft?5Visual?5C?$CL?$CL?5Runtime?5Lib@ 00504480     LIBCMT:crt0msg.obj
 0002:000024a8       ??_C@_02PHMGELLB@?6?6?$AA@ 005044a8     LIBCMT:crt0msg.obj
 0002:000024ac       ??_C@_03KHICJKCI@?4?4?4?$AA@ 005044ac     LIBCMT:crt0msg.obj
 0002:000024b0       ??_C@_0BH@DNAGHKFM@?$DMprogram?5name?5unknown?$DO?$AA@ 005044b0     LIBCMT:crt0msg.obj
 0002:000024c8       ??_C@_0BK@OFGJDLJJ@Runtime?5Error?$CB?6?6Program?3?5?$AA@ 005044c8     LIBCMT:crt0msg.obj
 0002:000024e8       __XcptActTab               005044e8     LIBCMT:winxfltr.obj
 0002:00002564       ??_7exception@std@@6B@     00504564     LIBCMT:stdexcpt.obj
 0002:0000256c       ??_C@_0BC@EOODALEL@Unknown?5exception?$AA@ 0050456c     LIBCMT:stdexcpt.obj
 0002:00002584       ??_7bad_cast@std@@6B@      00504584     LIBCMT:stdexcpt.obj
 0002:00002590       ??_7bad_typeid@std@@6B@    00504590     LIBCMT:stdexcpt.obj
 0002:0000259c       ??_7__non_rtti_object@std@@6B@ 0050459c     LIBCMT:stdexcpt.obj
 0002:00002630       ??_C@_04GFPJNGEK@ceil?$AA@ 00504630     LIBCMT:_libm_error_.obj
 0002:00002638       ??_C@_05EOHGHCHD@exp10?$AA@ 00504638     LIBCMT:_libm_error_.obj
 0002:00002640       ??_C@_03MGHMBJCF@log?$AA@  00504640     LIBCMT:_libm_error_.obj
 0002:00002644       __FPinit                   00504644     LIBCMT:_fpinit_.obj
 0002:00002648       __FPmtinit                 00504648     LIBCMT:_fpinit_.obj
 0002:0000264c       __FPmtterm                 0050464c     LIBCMT:_fpinit_.obj
 0002:00002658       __DEFAULT_CW_in_mem        00504658     LIBCMT:_common_.obj
 0002:0000265a       __pi_by_2_to_61            0050465a     LIBCMT:_common_.obj
 0002:000037f0       ??_C@_0L@KDOEJCKC@_nextafter?$AA@ 005057f0     LIBCMT:_fpexcept_.obj
 0002:000037fc       ??_C@_05JGDBENOH@_logb?$AA@ 005057fc     LIBCMT:_fpexcept_.obj
 0002:00003804       ??_C@_03ONILCKOB@_yn?$AA@  00505804     LIBCMT:_fpexcept_.obj
 0002:00003808       ??_C@_03NAKIGLHK@_y1?$AA@  00505808     LIBCMT:_fpexcept_.obj
 0002:0000380c       ??_C@_03MJLDFKDL@_y0?$AA@  0050580c     LIBCMT:_fpexcept_.obj
 0002:00003810       ??_C@_05GKKHEGJL@frexp?$AA@ 00505810     LIBCMT:_fpexcept_.obj
 0002:00003818       ??_C@_04KEPJIHGP@fmod?$AA@ 00505818     LIBCMT:_fpexcept_.obj
 0002:00003820       ??_C@_06MEIMCGCF@_hypot?$AA@ 00505820     LIBCMT:_fpexcept_.obj
 0002:00003828       ??_C@_05KBKMEMPO@_cabs?$AA@ 00505828     LIBCMT:_fpexcept_.obj
 0002:00003830       ??_C@_05CEJMAHNP@ldexp?$AA@ 00505830     LIBCMT:_fpexcept_.obj
 0002:00003838       ??_C@_04ODHECPBC@fabs?$AA@ 00505838     LIBCMT:_fpexcept_.obj
 0002:00003840       ??_C@_05KNGEOGJB@atan2?$AA@ 00505840     LIBCMT:_fpexcept_.obj
 0002:00003848       ??_C@_04FJHINJAO@tanh?$AA@ 00505848     LIBCMT:_fpexcept_.obj
 0002:00003850       ??_C@_04HPJJNFIM@cosh?$AA@ 00505850     LIBCMT:_fpexcept_.obj
 0002:00003858       ??_C@_04COOMCNPB@sinh?$AA@ 00505858     LIBCMT:_fpexcept_.obj
 0002:000089b0       __real@3fe0000000000000    0050a9b0     LIBCMT:_powhlp_.obj
 0002:0000a960       ??_C@_02CLFPBFFP@TZ?$AA@   0050c960     LIBCMT:tzset.obj
 0002:0000a964       ___dnames                  0050c964     LIBCMT:timeset.obj
 0002:0000a97c       ___mnames                  0050c97c     LIBCMT:timeset.obj
 0002:0000a9a4       __real@00000000            0050c9a4      CIL library: CIL module
 0002:0000a9a4       ??_C@_13NOLLCAOD@?$AA?$AA?$AA?$AA@ 0050c9a4     LIBCMT:a_map.obj
 0002:0000d140       ___lookuptable_s           0050f140     LIBCMT:outputs.obj
 0002:0000d19c       ??_C@_0BG@KLEAJEFJ@Illegal?5byte?5sequence?$AA@ 0050f19c     LIBCMT:syserr.obj
 0002:0000d1b4       ??_C@_0BE@ICMCHPHH@Directory?5not?5empty?$AA@ 0050f1b4     LIBCMT:syserr.obj
 0002:0000d1c8       ??_C@_0BJ@IHEHINLI@Function?5not?5implemented?$AA@ 0050f1c8     LIBCMT:syserr.obj
 0002:0000d1e4       ??_C@_0BD@CLHBCGPB@No?5locks?5available?$AA@ 0050f1e4     LIBCMT:syserr.obj
 0002:0000d1f8       ??_C@_0BC@BEDIHIDK@Filename?5too?5long?$AA@ 0050f1f8     LIBCMT:syserr.obj
 0002:0000d20c       ??_C@_0BK@JAEBMJJM@Resource?5deadlock?5avoided?$AA@ 0050f20c     LIBCMT:syserr.obj
 0002:0000d228       ??_C@_0BB@FCBJFCAJ@Result?5too?5large?$AA@ 0050f228     LIBCMT:syserr.obj
 0002:0000d23c       ??_C@_0N@MMJPGLJK@Domain?5error?$AA@ 0050f23c     LIBCMT:syserr.obj
 0002:0000d24c       ??_C@_0M@LHEPIIOM@Broken?5pipe?$AA@ 0050f24c     LIBCMT:syserr.obj
 0002:0000d258       ??_C@_0P@PKCJJLLM@Too?5many?5links?$AA@ 0050f258     LIBCMT:syserr.obj
 0002:0000d268       ??_C@_0BG@DDBFNKBH@Read?9only?5file?5system?$AA@ 0050f268     LIBCMT:syserr.obj
 0002:0000d280       ??_C@_0N@FEHLOILP@Invalid?5seek?$AA@ 0050f280     LIBCMT:syserr.obj
 0002:0000d290       ??_C@_0BI@FEALHKLD@No?5space?5left?5on?5device?$AA@ 0050f290     LIBCMT:syserr.obj
 0002:0000d2a8       ??_C@_0P@LFMMIPAE@File?5too?5large?$AA@ 0050f2a8     LIBCMT:syserr.obj
 0002:0000d2b8       ??_C@_0CE@ONOKNLPF@Inappropriate?5I?1O?5control?5operat@ 0050f2b8     LIBCMT:syserr.obj
 0002:0000d2dc       ??_C@_0BE@INBJMKGG@Too?5many?5open?5files?$AA@ 0050f2dc     LIBCMT:syserr.obj
 0002:0000d2f0       ??_C@_0BO@IIFBODJE@Too?5many?5open?5files?5in?5system?$AA@ 0050f2f0     LIBCMT:syserr.obj
 0002:0000d310       ??_C@_0BB@HMGGCEBG@Invalid?5argument?$AA@ 0050f310     LIBCMT:syserr.obj
 0002:0000d324       ??_C@_0P@NDHGCGKE@Is?5a?5directory?$AA@ 0050f324     LIBCMT:syserr.obj
 0002:0000d334       ??_C@_0BA@CJBACOOL@Not?5a?5directory?$AA@ 0050f334     LIBCMT:syserr.obj
 0002:0000d344       ??_C@_0P@NLEIANHE@No?5such?5device?$AA@ 0050f344     LIBCMT:syserr.obj
 0002:0000d354       ??_C@_0O@OAMDNOCP@Improper?5link?$AA@ 0050f354     LIBCMT:syserr.obj
 0002:0000d364       ??_C@_0M@NAAJNNGH@File?5exists?$AA@ 0050f364     LIBCMT:syserr.obj
 0002:0000d370       ??_C@_0BA@BIBLIOEK@Resource?5device?$AA@ 0050f370     LIBCMT:syserr.obj
 0002:0000d380       ??_C@_0O@NIPGCINC@Unknown?5error?$AA@ 0050f380     LIBCMT:syserr.obj
 0002:0000d390       ??_C@_0M@LOEHLCJD@Bad?5address?$AA@ 0050f390     LIBCMT:syserr.obj
 0002:0000d39c       ??_C@_0BC@HFNFNKAI@Permission?5denied?$AA@ 0050f39c     LIBCMT:syserr.obj
 0002:0000d3b0       ??_C@_0BB@IMDKMPFB@Not?5enough?5space?$AA@ 0050f3b0     LIBCMT:syserr.obj
 0002:0000d3c4       ??_C@_0CB@EPFKGNAK@Resource?5temporarily?5unavailable@ 0050f3c4     LIBCMT:syserr.obj
 0002:0000d3e8       ??_C@_0BD@LOHELEP@No?5child?5processes?$AA@ 0050f3e8     LIBCMT:syserr.obj
 0002:0000d3fc       ??_C@_0BE@NFGDDCEF@Bad?5file?5descriptor?$AA@ 0050f3fc     LIBCMT:syserr.obj
 0002:0000d410       ??_C@_0BC@HKPNECK@Exec?5format?5error?$AA@ 0050f410     LIBCMT:syserr.obj
 0002:0000d424       ??_C@_0BC@MFFGCDFL@Arg?5list?5too?5long?$AA@ 0050f424     LIBCMT:syserr.obj
 0002:0000d438       ??_C@_0BK@DPKMCKJ@No?5such?5device?5or?5address?$AA@ 0050f438     LIBCMT:syserr.obj
 0002:0000d454       ??_C@_0BD@KKNFOBBD@Input?1output?5error?$AA@ 0050f454     LIBCMT:syserr.obj
 0002:0000d468       ??_C@_0BK@FJBOAFDK@Interrupted?5function?5call?$AA@ 0050f468     LIBCMT:syserr.obj
 0002:0000d484       ??_C@_0BA@FKIAIBGA@No?5such?5process?$AA@ 0050f484     LIBCMT:syserr.obj
 0002:0000d494       ??_C@_0BK@FMDHKPNF@No?5such?5file?5or?5directory?$AA@ 0050f494     LIBCMT:syserr.obj
 0002:0000d4b0       ??_C@_0BI@BJFCGOHL@Operation?5not?5permitted?$AA@ 0050f4b0     LIBCMT:syserr.obj
 0002:0000d4c8       ??_C@_08INEPGKHH@No?5error?$AA@ 0050f4c8     LIBCMT:syserr.obj
 0002:0000d4d8       ___newctype                0050f4d8     LIBCMT:ctype.obj
 0002:0000d7d8       __wctype                   0050f7d8     LIBCMT:ctype.obj
 0002:0000d9e0       ___newclmap                0050f9e0     LIBCMT:ctype.obj
 0002:0000db60       ___newcumap                0050fb60     LIBCMT:ctype.obj
 0002:0000dce0       ??_C@_0BI@DFKBFLJE@GetProcessWindowStation?$AA@ 0050fce0     LIBCMT:crtmbox.obj
 0002:0000dcf8       ??_C@_0BK@CIDNPOGP@GetUserObjectInformationA?$AA@ 0050fcf8     LIBCMT:crtmbox.obj
 0002:0000dd14       ??_C@_0BD@HHGDFDBJ@GetLastActivePopup?$AA@ 0050fd14     LIBCMT:crtmbox.obj
 0002:0000dd28       ??_C@_0BA@HNOPNCHB@GetActiveWindow?$AA@ 0050fd28     LIBCMT:crtmbox.obj
 0002:0000dd38       ??_C@_0M@CHKKJDAI@MessageBoxA?$AA@ 0050fd38     LIBCMT:crtmbox.obj
 0002:0000dd44       ??_C@_0L@NDEGIDAG@USER32?4DLL?$AA@ 0050fd44     LIBCMT:crtmbox.obj
 0002:0000dd50       ??_C@_05KLBDPFGC@e?$CL000?$AA@ 0050fd50     LIBCMT:cvt.obj
 0002:0000dd58       __real@4150017ec0000000    0050fd58     LIBCMT:_testfdiv_.obj
 0002:0000dd60       __real@4147ffff80000000    0050fd60     LIBCMT:_testfdiv_.obj
 0002:0000dd68       ??_C@_0BK@NHEOCAHP@IsProcessorFeaturePresent?$AA@ 0050fd68     LIBCMT:_testfdiv_.obj
 0002:0000dd84       ??_C@_08CPNIBGIE@KERNEL32?$AA@ 0050fd84     LIBCMT:_testfdiv_.obj
 0002:0000dd90       ??_C@_0BK@CFCOFLF@?5Complete?5Object?5Locator?8?$AA@ 0050fd90     LIBCMT:undname.obj
 0002:0000ddac       ??_C@_0BN@MECKDCOJ@?5Class?5Hierarchy?5Descriptor?8?$AA@ 0050fdac     LIBCMT:undname.obj
 0002:0000ddcc       ??_C@_0BD@LGICGFMM@?5Base?5Class?5Array?8?$AA@ 0050fdcc     LIBCMT:undname.obj
 0002:0000dde0       ??_C@_0BM@LDKODKLH@?5Base?5Class?5Descriptor?5at?5?$CI?$AA@ 0050fde0     LIBCMT:undname.obj
 0002:0000ddfc       ??_C@_0BC@DAFEJGAK@?5Type?5Descriptor?8?$AA@ 0050fdfc     LIBCMT:undname.obj
 0002:0000de10       ??_C@_0BM@PMGGMLDN@?$GAlocal?5static?5thread?5guard?8?$AA@ 0050fe10     LIBCMT:undname.obj
 0002:0000de2c       ??_C@_0CL@FGIJHLCE@?$GAmanaged?5vector?5copy?5constructor@ 0050fe2c     LIBCMT:undname.obj
 0002:0000de58       ??_C@_0CJ@GJELGAMM@?$GAvector?5vbase?5copy?5constructor?5i@ 0050fe58     LIBCMT:undname.obj
 0002:0000de84       ??_C@_0CD@CGAJBKEJ@?$GAvector?5copy?5constructor?5iterato@ 0050fe84     LIBCMT:undname.obj
 0002:0000dea8       ??_C@_0CB@PDBIFEP@?$GAdynamic?5atexit?5destructor?5for?5?8@ 0050fea8     LIBCMT:undname.obj
 0002:0000decc       ??_C@_0BL@CLIPGLGB@?$GAdynamic?5initializer?5for?5?8?$AA@ 0050fecc     LIBCMT:undname.obj
 0002:0000dee8       ??_C@_0CM@FCBBDIGB@?$GAeh?5vector?5vbase?5copy?5constructo@ 0050fee8     LIBCMT:undname.obj
 0002:0000df14       ??_C@_0CG@HLDDJMAG@?$GAeh?5vector?5copy?5constructor?5iter@ 0050ff14     LIBCMT:undname.obj
 0002:0000df3c       ??_C@_0CF@IMGKMJNO@?$GAmanaged?5vector?5destructor?5itera@ 0050ff3c     LIBCMT:undname.obj
 0002:0000df64       ??_C@_0CG@CFDHKGGD@?$GAmanaged?5vector?5constructor?5iter@ 0050ff64     LIBCMT:undname.obj
 0002:0000df8c       ??_C@_0BN@CKNJLHMB@?$GAplacement?5delete?$FL?$FN?5closure?8?$AA@ 0050ff8c     LIBCMT:undname.obj
 0002:0000dfac       ??_C@_0BL@CNOONJFP@?$GAplacement?5delete?5closure?8?$AA@ 0050ffac     LIBCMT:undname.obj
 0002:0000dfc8       ??_C@_0P@HJKNJFNN@?$GAomni?5callsig?8?$AA@ 0050ffc8     LIBCMT:undname.obj
 0002:0000dfd8       ??_C@_09LBNFPBCA@?5delete?$FL?$FN?$AA@ 0050ffd8     LIBCMT:undname.obj
 0002:0000dfe4       ??_C@_06FHBGPFGH@?5new?$FL?$FN?$AA@ 0050ffe4     LIBCMT:undname.obj
 0002:0000dfec       ??_C@_0CE@IIHCMGGL@?$GAlocal?5vftable?5constructor?5closu@ 0050ffec     LIBCMT:undname.obj
 0002:0000e010       ??_C@_0BA@KKLDJDLB@?$GAlocal?5vftable?8?$AA@ 00510010     LIBCMT:undname.obj
 0002:0000e020       ??_C@_05KHLCHHI@?$GARTTI?$AA@ 00510020     LIBCMT:undname.obj
 0002:0000e028       ??_C@_03KLGMFNMG@?$GAEH?$AA@ 00510028     LIBCMT:undname.obj
 0002:0000e02c       ??_C@_0BA@KBCDOMBN@?$GAudt?5returning?8?$AA@ 0051002c     LIBCMT:undname.obj
 0002:0000e03c       ??_C@_0BL@LLKPOHJI@?$GAcopy?5constructor?5closure?8?$AA@ 0051003c     LIBCMT:undname.obj
 0002:0000e058       ??_C@_0CH@OOJPLCPH@?$GAeh?5vector?5vbase?5constructor?5ite@ 00510058     LIBCMT:undname.obj
 0002:0000e080       ??_C@_0CA@GCEOPDGL@?$GAeh?5vector?5destructor?5iterator?8?$AA@ 00510080     LIBCMT:undname.obj
 0002:0000e0a0       ??_C@_0CB@JONCMFFK@?$GAeh?5vector?5constructor?5iterator?8@ 005100a0     LIBCMT:undname.obj
 0002:0000e0c4       ??_C@_0BL@NILFHHPC@?$GAvirtual?5displacement?5map?8?$AA@ 005100c4     LIBCMT:undname.obj
 0002:0000e0e0       ??_C@_0CE@IKBNEHA@?$GAvector?5vbase?5constructor?5iterat@ 005100e0     LIBCMT:undname.obj
 0002:0000e104       ??_C@_0BN@LFPFMEDL@?$GAvector?5destructor?5iterator?8?$AA@ 00510104     LIBCMT:undname.obj
 0002:0000e124       ??_C@_0BO@PFGOCPJJ@?$GAvector?5constructor?5iterator?8?$AA@ 00510124     LIBCMT:undname.obj
 0002:0000e144       ??_C@_0BN@IMDCHIKM@?$GAscalar?5deleting?5destructor?8?$AA@ 00510144     LIBCMT:undname.obj
 0002:0000e164       ??_C@_0BO@OBMKPJIG@?$GAdefault?5constructor?5closure?8?$AA@ 00510164     LIBCMT:undname.obj
 0002:0000e184       ??_C@_0BN@DEGPLNFK@?$GAvector?5deleting?5destructor?8?$AA@ 00510184     LIBCMT:undname.obj
 0002:0000e1a4       ??_C@_0BD@JDLKDPAB@?$GAvbase?5destructor?8?$AA@ 005101a4     LIBCMT:undname.obj
 0002:0000e1b8       ??_C@_08OBABFOLI@?$GAstring?8?$AA@ 005101b8     LIBCMT:undname.obj
 0002:0000e1c4       ??_C@_0BF@KDPPACIK@?$GAlocal?5static?5guard?8?$AA@ 005101c4     LIBCMT:undname.obj
 0002:0000e1dc       ??_C@_08LLFFHHDJ@?$GAtypeof?8?$AA@ 005101dc     LIBCMT:undname.obj
 0002:0000e1e8       ??_C@_07FEEIOKP@?$GAvcall?8?$AA@ 005101e8     LIBCMT:undname.obj
 0002:0000e1f0       ??_C@_09BLBHBJP@?$GAvbtable?8?$AA@ 005101f0     LIBCMT:undname.obj
 0002:0000e1fc       ??_C@_09IFPLHPGF@?$GAvftable?8?$AA@ 005101fc     LIBCMT:undname.obj
 0002:0000e208       ??_C@_02MHEGNOJ@?$FO?$DN?$AA@ 00510208     LIBCMT:undname.obj
 0002:0000e20c       ??_C@_02DHLNPPGH@?$HM?$DN?$AA@ 0051020c     LIBCMT:undname.obj
 0002:0000e210       ??_C@_02FGJGFEAB@?$CG?$DN?$AA@ 00510210     LIBCMT:undname.obj
 0002:0000e214       ??_C@_03CDNPDDLA@?$DM?$DM?$DN?$AA@ 00510214     LIBCMT:undname.obj
 0002:0000e218       ??_C@_03IKFCCPFF@?$DO?$DO?$DN?$AA@ 00510218     LIBCMT:undname.obj
 0002:0000e21c       ??_C@_02FENAOKFI@?$CF?$DN?$AA@ 0051021c     LIBCMT:undname.obj
 0002:0000e220       ??_C@_02FJEHGPIO@?1?$DN?$AA@ 00510220     LIBCMT:undname.obj
 0002:0000e224       ??_C@_02FKMDLLOA@?9?$DN?$AA@ 00510224     LIBCMT:undname.obj
 0002:0000e228       ??_C@_02FOEOMHFC@?$CL?$DN?$AA@ 00510228     LIBCMT:undname.obj
 0002:0000e22c       ??_C@_02FPIMKNGF@?$CK?$DN?$AA@ 0051022c     LIBCMT:undname.obj
 0002:0000e230       ??_C@_02HCKGKOFO@?$CI?$CJ?$AA@ 00510230     LIBCMT:undname.obj
 0002:0000e234       ??_C@_03MNHNFDLC@?9?$DO?$CK?$AA@ 00510234     LIBCMT:undname.obj
 0002:0000e238       ??_C@_02BAABKJLB@?9?9?$AA@ 00510238     LIBCMT:undname.obj
 0002:0000e23c       ??_C@_02ECNGHCIF@?$CL?$CL?$AA@ 0051023c     LIBCMT:undname.obj
 0002:0000e240       ??_C@_02HBOOOICD@?9?$DO?$AA@ 00510240     LIBCMT:undname.obj
 0002:0000e244       ??_C@_08LHJFAFGD@operator?$AA@ 00510244     LIBCMT:undname.obj
 0002:0000e250       ??_C@_02GPECMEKF@?$FL?$FN?$AA@ 00510250     LIBCMT:undname.obj
 0002:0000e254       ??_C@_02EGOFBIJA@?$DN?$DN?$AA@ 00510254     LIBCMT:undname.obj
 0002:0000e258       ??_C@_07FPCDHGMM@?5delete?$AA@ 00510258     LIBCMT:undname.obj
 0002:0000e260       ??_C@_04NIHEBCM@?5new?$AA@ 00510260     LIBCMT:undname.obj
 0002:0000e268       ??_C@_0M@GFIIJFMG@__unaligned?$AA@ 00510268     LIBCMT:undname.obj
 0002:0000e274       ??_C@_0L@PILCLIHE@__restrict?$AA@ 00510274     LIBCMT:undname.obj
 0002:0000e280       ??_C@_07JOMMBBKO@__ptr64?$AA@ 00510280     LIBCMT:undname.obj
 0002:0000e288       ??_C@_09HIJEGCPM@__clrcall?$AA@ 00510288     LIBCMT:undname.obj
 0002:0000e294       ??_C@_0L@JMKHOMEK@__fastcall?$AA@ 00510294     LIBCMT:undname.obj
 0002:0000e2a0       ??_C@_0L@NPHFGOKO@__thiscall?$AA@ 005102a0     LIBCMT:undname.obj
 0002:0000e2ac       ??_C@_09IFJBGAPI@__stdcall?$AA@ 005102ac     LIBCMT:undname.obj
 0002:0000e2b8       ??_C@_08GHMPAG@__pascal?$AA@ 005102b8     LIBCMT:undname.obj
 0002:0000e2c4       ??_C@_07KOLFKCDI@__cdecl?$AA@ 005102c4     LIBCMT:undname.obj
 0002:0000e2cc       ??_C@_08EHJDFFNH@__based?$CI?$AA@ 005102cc     LIBCMT:undname.obj
 0002:0000e460       __atan_table               00510460     LIBCMT:_atan_table_.obj
 0002:0000fc70       ??_C@_07GPDNMNG@CONOUT$?$AA@ 00511c70     LIBCMT:initcon.obj
 0002:0000fc78       ??_C@_06IMKFLFPG@1?$CDQNAN?$AA@ 00511c78     LIBCMT:_x10fout_.obj
 0002:0000fc80       ??_C@_05DNEBIAHO@1?$CDINF?$AA@ 00511c80     LIBCMT:_x10fout_.obj
 0002:0000fc88       ??_C@_05PHHOCPM@1?$CDIND?$AA@ 00511c88     LIBCMT:_x10fout_.obj
 0002:0000fc90       ??_C@_06PGGFOGJG@1?$CDSNAN?$AA@ 00511c90     LIBCMT:_x10fout_.obj
 0002:00010b50       ?skiny@gui@@2QBHB          00512b50     3dgui.obj
 0002:00010b7c       ?skinx@gui@@2QBHB          00512b7c     3dgui.obj
 0002:00010bb8       ?patches@gui@@2QBUpatch@1@B 00512bb8     3dgui.obj
 0002:00010d20       ?JUMPVEL@@3MB              00512d20     physics.obj
 0002:00010d24       ?GRAVITY@@3MB              00512d24     physics.obj
 0002:00010d6c       ?fv@@3QAY03$$CBEA          00512d6c     octa.obj
 0002:00010d90       ?fvmasks@@3QBEB            00512d90     octa.obj
 0002:00010dd0       ?faceedgesidx@@3QAY03$$CBEA 00512dd0     octa.obj
 0002:00010e3c       ??_C@_07KJFPOMFC@?$CFs?3?5?$CFs?6?$AA@ 00512e3c     SDL_win32_main.obj
 0002:00010e44       ??_C@_0BJ@HFNMHALN@Out?5of?5memory?5?9?5aborting?$AA@ 00512e44     SDL_win32_main.obj
 0002:00010e60       ??_C@_0M@HFFOIJBL@Fatal?5Error?$AA@ 00512e60     SDL_win32_main.obj
 0002:00010e6c       ??_C@_02JDPG@rb?$AA@       00512e6c     SDL_win32_main.obj
 0002:00010e70       ??_C@_01NOFIACDB@w?$AA@    00512e70     SDL_win32_main.obj
 0002:00010e74       ??_C@_0BA@KMDNPDDA@WinMain?$CI?$CJ?5error?$AA@ 00512e74     SDL_win32_main.obj
 0002:00010e84       ??_C@_0P@DKHCFOLI@blendpaintmode?$AA@ 00512e84     blend.obj
 0002:00010e94       ??_C@_0CE@GKLGOCGP@could?5not?5load?5blend?5brush?5image@ 00512e94     blend.obj
 0002:00010eb8       ??_C@_0DB@KCKFCGKP@blend?5brush?5image?5size?5exceeded?5@ 00512eb8     blend.obj
 0002:00010ee9       ??_C@_00CNPNBAHC@?$AA@     00512ee9     blend.obj
 0002:00010eec       ??_C@_0BC@NEGFKPJL@clearblendbrushes?$AA@ 00512eec     blend.obj
 0002:00010f00       ??_C@_01LKDEMHDF@s?$AA@    00512f00     blend.obj
 0002:00010f04       ??_C@_0O@ILOCGBKL@delblendbrush?$AA@ 00512f04     blend.obj
 0002:00010f14       ??_C@_02FCBLNKNB@ss?$AA@   00512f14     blend.obj
 0002:00010f18       ??_C@_0O@NENLKALN@addblendbrush?$AA@ 00512f18     blend.obj
 0002:00010f28       ??_C@_01KBJDNOO@i?$AA@     00512f28     blend.obj
 0002:00010f2c       ??_C@_0P@EGPHPKMN@nextblendbrush?$AA@ 00512f2c     blend.obj
 0002:00010f3c       ??_C@_0O@ICIJGMAF@setblendbrush?$AA@ 00512f3c     blend.obj
 0002:00010f4c       ??_C@_0BC@EHPCBGLN@getblendbrushname?$AA@ 00512f4c     blend.obj
 0002:00010f60       ??_C@_0O@LPABFDFD@curblendbrush?$AA@ 00512f60     blend.obj
 0002:00010f70       ??_C@_0CL@EOPOHJKA@operation?5only?5allowed?5in?5blend?5@ 00512f70     blend.obj
 0002:00010f9c       ??_C@_0BI@FIONHOHB@no?5blend?5brush?5selected?$AA@ 00512f9c     blend.obj
 0002:00010fb4       ??_C@_0BB@GICOMJLE@rotateblendbrush?$AA@ 00512fb4     blend.obj
 0002:00010fc8       ??_C@_0BD@BIBPFMLF@paintblendmapdelay?$AA@ 00512fc8     blend.obj
 0002:00010fdc       ??_C@_0BG@ICMPADBN@paintblendmapinterval?$AA@ 00512fdc     blend.obj
 0002:00010ff4       ??_C@_01CKDDGHAB@D?$AA@    00512ff4     blend.obj
 0002:00010ff8       ??_C@_0O@ICMAMPOP@paintblendmap?$AA@ 00512ff8     blend.obj
 0002:00011008       ??_C@_0BB@HFGDPOFD@clearblendmapsel?$AA@ 00513008     blend.obj
 0002:0001101c       ??_C@_0BC@HOEDPBNE@invertblendmapsel?$AA@ 0051301c     blend.obj
 0002:00011030       ??_C@_0P@HFFPDFKA@invertblendmap?$AA@ 00513030     blend.obj
 0002:00011040       ??_C@_0N@NDCHHINC@showblendmap?$AA@ 00513040     blend.obj
 0002:00011050       ??_C@_0BB@PIKIAINA@optimizeblendmap?$AA@ 00513050     blend.obj
 0002:00011064       ??_C@_0O@EENDHPCG@clearblendmap?$AA@ 00513064     blend.obj
 0002:00011074       ??_C@_0BA@HBMBINDF@importcuberemip?$AA@ 00513074     cubeloader.obj
 0002:00011084       ??_C@_0BH@JHFKBAFM@creating?5cubes?4?4?4?5?$CFd?$CF?$CF?$AA@ 00513084     cubeloader.obj
 0002:0001109c       ??_C@_07KMMCDPHI@cube?1?$CFs?$AA@ 0051309c     cubeloader.obj
 0002:000110a4       ??_C@_0BA@OFNGFJLA@packages?1?$CFs?4cgz?$AA@ 005130a4     cubeloader.obj
 0002:000110b4       ??_C@_0BL@MOCCFNFE@could?5not?5read?5cube?5map?5?$CFs?$AA@ 005130b4     cubeloader.obj
 0002:000110d0       ??_C@_04CEENDHAF@CUBE?$AA@ 005130d0     cubeloader.obj
 0002:000110d8       ??_C@_04BHBGMNAP@ACMP?$AA@ 005130d8     cubeloader.obj
 0002:000110e0       ??_C@_0BP@DELPDANB@map?5?$CFs?5has?5malformatted?5header?$AA@ 005130e0     cubeloader.obj
 0002:00011100       ??_C@_0N@HKPFLAFL@importing?5?$CFs?$AA@ 00513100     cubeloader.obj
 0002:00011110       ??_C@_07JEMIPMLL@?$CFd?5?$EA?5?$CFd?$AA@ 00513110     cubeloader.obj
 0002:00011118       ??_C@_0CH@JAGAMOFA@while?5reading?5map?3?5type?5out?5of?5r@ 00513118     cubeloader.obj
 0002:00011140       ??_C@_0BF@FPGPPMPD@packages?1cube?1?$CFs?4cfg?$AA@ 00513140     cubeloader.obj
 0002:00011158       ??_C@_0BK@FMCKCEIA@packages?1cube?1package?4cfg?$AA@ 00513158     cubeloader.obj
 0002:00011174       ??_C@_0CA@MMGGPEH@read?5cube?5map?5?$CFs?5?$CI?$CF?41f?5seconds?$CJ?$AA@ 00513174     cubeloader.obj
 0002:00011194       ??_C@_0L@FIHOELOG@importcube?$AA@ 00513194     cubeloader.obj
 0002:000111a0       ??_C@_0P@HLFCKHKL@lightprecision?$AA@ 005131a0     lightmap.obj
 0002:000111b0       ??_C@_0L@IEPABEDF@lighterror?$AA@ 005131b0     lightmap.obj
 0002:000111bc       ??_C@_09JAEKHCCH@bumperror?$AA@ 005131bc     lightmap.obj
 0002:000111c8       ??_C@_08PJALPBCH@lightlod?$AA@ 005131c8     lightmap.obj
 0002:000111d4       ??_C@_07LIABELBC@ambient?$AA@ 005131d4     lightmap.obj
 0002:000111dc       ??_C@_08GENLAOJJ@skylight?$AA@ 005131dc     lightmap.obj
 0002:000111e8       ??_C@_09HJPHDPLC@lmshadows?$AA@ 005131e8     lightmap.obj
 0002:000111f4       ??_C@_04JJKAEGIB@lmaa?$AA@ 005131f4     lightmap.obj
 0002:000111fc       ??_C@_0BH@ODOBLJFP@?$CFd?$CF?$CF?5using?5?$CFd?5textures?$AA@ 005131fc     lightmap.obj
 0002:00011214       ??_C@_0O@BIFMPIKC@lightcompress?$AA@ 00513214     lightmap.obj
 0002:00011224       ??_C@_0BA@IBFLMHPP@skytexturelight?$AA@ 00513224     lightmap.obj
 0002:00011234       ??_C@_07KJBFLEOB@blurlms?$AA@ 00513234     lightmap.obj
 0002:0001123c       ??_C@_0N@LDJILJDN@blurskylight?$AA@ 0051323c     lightmap.obj
 0002:000112e0       ??_C@_0O@NMNBENPE@edgetolerance?$AA@ 005132e0     lightmap.obj
 0002:000112f0       ??_C@_0P@IEPOFCMK@adaptivesample?$AA@ 005132f0     lightmap.obj
 0002:00011340       ??_C@_0P@GIDFMGKC@lightcachesize?$AA@ 00513340     lightmap.obj
 0002:00011350       ??_C@_0N@IIIEMJBH@lightthreads?$AA@ 00513350     lightmap.obj
 0002:00011360       ??_C@_0CL@DPKNEPMB@valid?5range?5for?5calclight?5qualit@ 00513360     lightmap.obj
 0002:0001138c       ??_C@_0CG@NAICJAFF@computing?5lightmaps?4?4?4?5?$CIesc?5to?5a@ 0051338c     lightmap.obj
 0002:000113b4       ??_C@_0BB@BNPILHCM@lighting?5done?4?4?4?$AA@ 005133b4     lightmap.obj
 0002:000113c8       ??_C@_0BC@JJACDAHL@calclight?5aborted?$AA@ 005133c8     lightmap.obj
 0002:000113e0       ??_C@_0EA@PDNDMFEG@generated?5?$CFd?5lightmaps?5using?5?$CFd?$CF@ 005133e0     lightmap.obj
 0002:00011420       ??_C@_09BANFGNFM@calclight?$AA@ 00513420     lightmap.obj
 0002:0001142c       ??_C@_0N@DDIKEBIE@patchnormals?$AA@ 0051342c     lightmap.obj
 0002:0001143c       ??_C@_0CM@HBPODCAL@valid?5range?5for?5patchlight?5quali@ 0051343c     lightmap.obj
 0002:00011468       ??_C@_0CF@PAJDEPLO@patching?5lightmaps?4?4?4?5?$CIesc?5to?5ab@ 00513468     lightmap.obj
 0002:00011490       ??_C@_0BF@MBCHIICN@computing?5normals?4?4?4?$AA@ 00513490     lightmap.obj
 0002:000114a8       ??_C@_0BD@OKOKEINJ@patchlight?5aborted?$AA@ 005134a8     lightmap.obj
 0002:000114bc       ??_C@_0DO@BIPOHHDP@patched?5?$CFd?5lightmaps?5using?5?$CFd?$CF?$CF?5@ 005134bc     lightmap.obj
 0002:000114fc       ??_C@_0L@FPHPHHGA@patchlight?$AA@ 005134fc     lightmap.obj
 0002:00011508       ??_C@_0BG@IOKONHDI@clearing?5lightmaps?4?4?4?$AA@ 00513508     lightmap.obj
 0002:00011520       ??_C@_0P@KACGDJJH@clearlightmaps?$AA@ 00513520     lightmap.obj
 0002:00011530       ??_C@_0L@GEONJGBK@fullbright?$AA@ 00513530     lightmap.obj
 0002:0001153c       ??_C@_0BA@PFDEDJDH@fullbrightlevel?$AA@ 0051353c     lightmap.obj
 0002:0001154c       ??_C@_0L@CFOHJAIM@convertlms?$AA@ 0051354c     lightmap.obj
 0002:00011558       ??_C@_0BB@OKADECAN@roundlightmaptex?$AA@ 00513558     lightmap.obj
 0002:0001156c       ??_C@_0P@GHNEOPKL@batchlightmaps?$AA@ 0051356c     lightmap.obj
 0002:0001157c       ??_C@_0BD@JMLGBJKB@lightmap_?$CFs_?$CFd?4png?$AA@ 0051357c     lightmap.obj
 0002:00011590       ??_C@_07IHJLHON@dumplms?$AA@ 00513590     lightmap.obj
 0002:00011598       ??_C@_09NJFLIGJF@lerpangle?$AA@ 00513598     normal.obj
 0002:000115a4       ??_C@_0L@GEMHMDHJ@lerpsubdiv?$AA@ 005135a4     normal.obj
 0002:000115b0       ??_C@_0P@PCAKHDDF@lerpsubdivsize?$AA@ 005135b0     normal.obj
 0002:000115c0       ??_C@_0BJ@MAFBKHJN@?$DN?5?$CFp?5?$DN?5?$CI?$CFd?0?5?$CFd?0?5?$CFd?$CJ?5?$EA?5?$CFd?$AA@ 005135c0     octa.obj
 0002:000115dc       ??_C@_08KIPBOANC@?5x?5?5?$CF?48x?$AA@ 005135dc     octa.obj
 0002:000115e8       ??_C@_08GEFLOAEM@?5y?5?5?$CF?48x?$AA@ 005135e8     octa.obj
 0002:000115f4       ??_C@_08OKNEOHKP@?5z?5?5?$CF?48x?$AA@ 005135f4     octa.obj
 0002:00011600       ??_C@_09GBFNOHCC@printcube?$AA@ 00513600     octa.obj
 0002:0001160c       ??_C@_06FDJLJGCD@mipvis?$AA@ 0051360c     octa.obj
 0002:00011614       ??_C@_0N@OGILLOA@remipping?4?4?4?$AA@ 00513614     octa.obj
 0002:00011624       ??_C@_05PIHAKMCM@remip?$AA@ 00513624     octa.obj
 0002:0001162c       ??_C@_0CF@LIEBPPBH@WARNING?3?5old?5map?0?5use?5savecurren@ 0051362c     octa.obj
 0002:000116c8       ??_C@_07DKBAAKPA@minface?$AA@ 005136c8     octa.obj
 0002:000116d0       ??_C@_08GIAHNCC@maxmerge?$AA@ 005136d0     octa.obj
 0002:000116dc       ??_C@_0BE@IKKCKJEH@merging?5surfaces?4?4?4?$AA@ 005136dc     octa.obj
 0002:000116f0       ??_C@_0CA@IDNDHILF@invalidating?5merged?5surfaces?4?4?4?$AA@ 005136f0     octa.obj
 0002:00011710       ??_C@_08MLPFNNDJ@dragging?$AA@ 00513710     octaedit.obj
 0002:0001171c       ??_C@_06CJBJAGIH@moving?$AA@ 0051371c     octaedit.obj
 0002:00011724       ??_C@_09PEPLNHHC@gridpower?$AA@ 00513724     octaedit.obj
 0002:00011730       ??_C@_0P@MMCAOJOE@passthroughsel?$AA@ 00513730     octaedit.obj
 0002:00011740       ??_C@_07HAFNFNOB@editing?$AA@ 00513740     octaedit.obj
 0002:00011748       ??_C@_0O@CMDPCADK@selectcorners?$AA@ 00513748     octaedit.obj
 0002:00011758       ??_C@_08HKIDODCD@hmapedit?$AA@ 00513758     octaedit.obj
 0002:00011764       ??_C@_0CE@FFBGEABP@operation?5only?5allowed?5in?5edit?5m@ 00513764     octaedit.obj
 0002:00011788       ??_C@_0BG@KMLAPNDI@selection?5not?5in?5view?$AA@ 00513788     octaedit.obj
 0002:000117a0       ??_C@_0L@IAAMPIAA@edittoggle?$AA@ 005137a0     octaedit.obj
 0002:000117ac       ??_C@_09GGDDKLMH@entcancel?$AA@ 005137ac     octaedit.obj
 0002:000117b8       ??_C@_0L@FGIDMBCN@cubecancel?$AA@ 005137b8     octaedit.obj
 0002:000117c4       ??_C@_09OIKHHPFL@cancelsel?$AA@ 005137c4     octaedit.obj
 0002:000117d0       ??_C@_08PFHMHGMO@reorient?$AA@ 005137d0     octaedit.obj
 0002:000117dc       ??_C@_09ONDGDNFE@selextend?$AA@ 005137dc     octaedit.obj
 0002:000117e8       ??_C@_07MGGFOIDK@havesel?$AA@ 005137e8     octaedit.obj
 0002:000117f0       ??_C@_0L@IELONJHO@gridlookup?$AA@ 005137f0     octaedit.obj
 0002:000117fc       ??_C@_0BA@IFEGHEHN@passthroughcube?$AA@ 005137fc     octaedit.obj
 0002:0001180c       ??_C@_08MECIEJGG@undomegs?$AA@ 0051380c     octaedit.obj
 0002:00011818       ??_C@_0L@GJOHGMDK@clearundos?$AA@ 00513818     octaedit.obj
 0002:00011824       ??_C@_08IMBMPHKA@nompedit?$AA@ 00513824     octaedit.obj
 0002:00011830       ??_C@_0BD@KNNPPEDE@nothing?5more?5to?5?$CFs?$AA@ 00513830     octaedit.obj
 0002:00011844       ??_C@_04HOKNPDPJ@undo?$AA@ 00513844     octaedit.obj
 0002:0001184c       ??_C@_04BLIMKIOI@redo?$AA@ 0051384c     octaedit.obj
 0002:00011854       ??_C@_04COAGEIMF@copy?$AA@ 00513854     octaedit.obj
 0002:0001185c       ??_C@_0M@NPDMNCLK@pastehilite?$AA@ 0051385c     octaedit.obj
 0002:00011868       ??_C@_05NDLFFNHM@paste?$AA@ 00513868     octaedit.obj
 0002:00011870       ??_C@_06NBMKNICM@brushx?$AA@ 00513870     octaedit.obj
 0002:00011878       ??_C@_06MINBOJGN@brushy?$AA@ 00513878     octaedit.obj
 0002:00011880       ??_C@_0L@IGILIFOO@clearbrush?$AA@ 00513880     octaedit.obj
 0002:0001188c       ??_C@_03GLKMLICL@iii?$AA@  0051388c     octaedit.obj
 0002:00011890       ??_C@_09KMOJGCHA@brushvert?$AA@ 00513890     octaedit.obj
 0002:0001189c       ??_C@_0L@EMANIEPP@hmapcancel?$AA@ 0051389c     octaedit.obj
 0002:000118a8       ??_C@_0L@GJHPLCHA@hmapselect?$AA@ 005138a8     octaedit.obj
 0002:000118b4       ??_C@_0BF@EACIFAFI@bypassheightmapcheck?$AA@ 005138b4     octaedit.obj
 0002:000118cc       ??_C@_0BB@PDFCDJPB@invalidcubeguard?$AA@ 005138cc     octaedit.obj
 0002:000118e0       ??_C@_0O@DGDHBMKK@selectionsurf?$AA@ 005138e0     octaedit.obj
 0002:000118f0       ??_C@_07FCPHCPHL@pushsel?$AA@ 005138f0     octaedit.obj
 0002:000118f8       ??_C@_02PDIHAGKM@ii?$AA@   005138f8     octaedit.obj
 0002:000118fc       ??_C@_08BCMNDPAK@editface?$AA@ 005138fc     octaedit.obj
 0002:00011908       ??_C@_07LJGOPPCL@delcube?$AA@ 00513908     octaedit.obj
 0002:00011910       ??_C@_09EONBAKCL@usevdelta?$AA@ 00513910     octaedit.obj
 0002:0001191c       ??_C@_08IANOCEHK@allfaces?$AA@ 0051391c     octaedit.obj
 0002:00011928       ??_C@_06HBHCKCDA@vdelta?$AA@ 00513928     octaedit.obj
 0002:00011930       ??_C@_07LGANENAL@vrotate?$AA@ 00513930     octaedit.obj
 0002:00011938       ??_C@_07DJAGFAGM@voffset?$AA@ 00513938     octaedit.obj
 0002:00011940       ??_C@_02HPEDFNFO@ff?$AA@   00513940     octaedit.obj
 0002:00011944       ??_C@_07MLNAENNG@vscroll?$AA@ 00513944     octaedit.obj
 0002:0001194c       ??_C@_01INIBCBCB@f?$AA@    0051394c     octaedit.obj
 0002:00011950       ??_C@_06GENCIKKC@vscale?$AA@ 00513950     octaedit.obj
 0002:00011958       ??_C@_06HDGNKJOF@vlayer?$AA@ 00513958     octaedit.obj
 0002:00011960       ??_C@_06CDFMODMB@valpha?$AA@ 00513960     octaedit.obj
 0002:00011968       ??_C@_03LPALPDIP@fff?$AA@  00513968     octaedit.obj
 0002:0001196c       ??_C@_06FHFLIHCK@vcolor?$AA@ 0051396c     octaedit.obj
 0002:00011974       ??_C@_06IGNGCLCM@vreset?$AA@ 00513974     octaedit.obj
 0002:0001197c       ??_C@_05LEEJHALC@sffff?$AA@ 0051397c     octaedit.obj
 0002:00011984       ??_C@_0N@HIAPGBLA@vshaderparam?$AA@ 00513984     octaedit.obj
 0002:00011994       ??_C@_07BDCBDDNM@edittex?$AA@ 00513994     octaedit.obj
 0002:0001199c       ??_C@_06DFEOEHPC@gettex?$AA@ 0051399c     octaedit.obj
 0002:000119a4       ??_C@_09DOKEGHFK@getcurtex?$AA@ 005139a4     octaedit.obj
 0002:000119b0       ??_C@_09IFHMNAOM@getseltex?$AA@ 005139b0     octaedit.obj
 0002:000119bc       ??_C@_09IGBLKBNL@getreptex?$AA@ 005139bc     octaedit.obj
 0002:000119c8       ??_C@_0L@JMOOHNBK@gettexname?$AA@ 005139c8     octaedit.obj
 0002:000119d4       ??_C@_0CG@JDIDDNFG@can?5only?5replace?5after?5a?5texture@ 005139d4     octaedit.obj
 0002:000119fc       ??_C@_07CLEHDIEJ@replace?$AA@ 005139fc     octaedit.obj
 0002:00011a04       ??_C@_0L@HOLCPMLO@replacesel?$AA@ 00513a04     octaedit.obj
 0002:00011a10       ??_C@_04DGGGELON@flip?$AA@ 00513a10     octaedit.obj
 0002:00011a18       ??_C@_06CEHMNFAL@rotate?$AA@ 00513a18     octaedit.obj
 0002:00011a20       ??_C@_0BG@HGOHELP@unknown?5material?5?$CC?$CFs?$CC?$AA@ 00513a20     octaedit.obj
 0002:00011a38       ??_C@_07JFIMMMBJ@editmat?$AA@ 00513a38     octaedit.obj
 0002:00011a40       ??_C@_0M@GNHKGPJA@texguiwidth?$AA@ 00513a40     octaedit.obj
 0002:00011a4c       ??_C@_0N@OHFJEFEF@texguiheight?$AA@ 00513a4c     octaedit.obj
 0002:00011a5c       ??_C@_0L@PPEKPADA@texguitime?$AA@ 00513a5c     octaedit.obj
 0002:00011a68       ??_C@_08LHKGDOJC@texgui2d?$AA@ 00513a68     octaedit.obj
 0002:00011a74       ??_C@_08FLHNKADJ@Textures?$AA@ 00513a74     octaedit.obj
 0002:00011a80       ??_C@_0L@NNIPJMKJ@showtexgui?$AA@ 00513a80     octaedit.obj
 0002:00011a8c       ??_C@_07COPKBG@rgbonly?$AA@ 00513a8c     octaedit.obj
 0002:00011a98       ??_7texturegui@@6B@        00513a98     octaedit.obj
 0002:00011aa4       ??_7g3d_callback@@6B@      00513aa4     octaedit.obj
 0002:00011aac       ??_C@_08MAMAAIBM@printvbo?$AA@ 00513aac     octarender.obj
 0002:00011ab8       ??_C@_07KMNJAIDA@vbosize?$AA@ 00513ab8     octarender.obj
 0002:00011ac0       ??_C@_0CC@CJMJGMBH@vbo?5?$CFd?3?5type?5?$CFd?0?5size?5?$CFd?0?5?$CFd?5use@ 00513ac0     octarender.obj
 0002:00011ae4       ??_C@_05JOBLOEL@grass?$AA@ 00513ae4     octarender.obj
 0002:00011aec       ??_C@_0M@PPBPIAHA@filltjoints?$AA@ 00513aec     octarender.obj
 0002:00011b04       ??_C@_0BD@DDFMAHIA@fixing?5t?9joints?4?4?4?$AA@ 00513b04     octarender.obj
 0002:00011b18       ??_C@_09DPFPIEDO@vacubemax?$AA@ 00513b18     octarender.obj
 0002:00011b24       ??_C@_0L@MADEAIKP@vacubesize?$AA@ 00513b24     octarender.obj
 0002:00011b30       ??_C@_09CNNEGAFB@vacubemin?$AA@ 00513b30     octarender.obj
 0002:00011b3c       ??_C@_0BK@IIPIFLME@recalculating?5geometry?4?4?4?$AA@ 00513b3c     octarender.obj
 0002:00011b58       ??_C@_0BK@GNNBPDFJ@clearing?5vertex?5arrays?4?4?4?$AA@ 00513b58     octarender.obj
 0002:00011b74       ??_C@_06BDEIOILB@recalc?$AA@ 00513b74     octarender.obj
 0002:00011b7c       ??_C@_06DPMIMFNG@bounce?$AA@ 00513b7c     physics.obj
 0002:00011b84       ??_C@_09HKLMEOCN@step?5down?$AA@ 00513b84     physics.obj
 0002:00011b90       ??_C@_07NMPJEAII@step?5up?$AA@ 00513b90     physics.obj
 0002:00011b98       ??_C@_05PBJFFIGL@floor?$AA@ 00513b98     physics.obj
 0002:00011ba0       ??_C@_05LAHHKLJI@slope?$AA@ 00513ba0     physics.obj
 0002:00011ba8       ??_C@_05IODDPPOI@slide?$AA@ 00513ba8     physics.obj
 0002:00011bb0       ??_C@_04CELAAMIG@fall?$AA@ 00513bb0     physics.obj
 0002:00011bb8       ??_C@_05KNFBNCOH@float?$AA@ 00513bb8     physics.obj
 0002:00011bc0       ??_C@_0L@IAAJNJIP@dynentsize?$AA@ 00513bc0     physics.obj
 0002:00011bd0       ??_C@_0EP@FPPBJMBJ@PHYS?$CIpl?$CJ?3?5?$CFs?0?5air?5?$CFd?0?5floor?3?5?$CI?$CFf@ 00513bd0     physics.obj
 0002:00011c20       ??_C@_0FA@KGAIIKF@PHYS?$CIcam?$CJ?3?5?$CFs?0?5air?5?$CFd?0?5floor?3?5?$CI?$CF@ 00513c20     physics.obj
 0002:00011c70       ??_C@_08DFDFCNI@phystest?$AA@ 00513c70     physics.obj
 0002:00011c7c       ??_C@_07HDFBBPBE@maxroll?$AA@ 00513c7c     physics.obj
 0002:00011c84       ??_C@_0L@BGIDLBFG@straferoll?$AA@ 00513c84     physics.obj
 0002:00011c90       ??_C@_0L@FHGPNDAH@floatspeed?$AA@ 00513c90     physics.obj
 0002:00011c9c       ??_C@_0L@ICIFFIHD@physinterp?$AA@ 00513c9c     physics.obj
 0002:00011ca8       ??_C@_06JMLBDJHL@attack?$AA@ 00513ca8     physics.obj
 0002:00011cb0       ??_C@_0DB@PPNKBMFI@can?8t?5find?5entity?5spawn?5spot?$CB?5?$CI?$CF@ 00513cb0     physics.obj
 0002:00011ce4       ??_C@_04NJIOBGCF@jump?$AA@ 00513ce4     physics.obj
 0002:00011cec       ??_C@_05DHJDAOHK@right?$AA@ 00513cec     physics.obj
 0002:00011cf4       ??_C@_04GOOOJOPP@left?$AA@ 00513cf4     physics.obj
 0002:00011cfc       ??_C@_08DBMDPFJD@backward?$AA@ 00513cfc     physics.obj
 0002:00011d08       ??_C@_07CJMBKHEI@forward?$AA@ 00513d08     physics.obj
 0002:00011d10       ??_C@_0O@GOMBIGFP@maxpvsblocker?$AA@ 00513d10     pvs.obj
 0002:00011d20       ??_C@_0M@MDAJDJME@pvsleafsize?$AA@ 00513d20     pvs.obj
 0002:00011d2c       ??_C@_0L@BHAOAGJP@pvsthreads?$AA@ 00513d2c     pvs.obj
 0002:00011d38       ??_C@_0CH@FAJPFCNG@?$CFd?$CF?$CF?5?9?5?$CFd?5of?5?$CFd?5view?5cells?5?$CI?$CFd?5u@ 00513d38     pvs.obj
 0002:00011d60       ??_C@_0CF@LNDJIBDD@locked?5view?5cell?5at?5?$CF?41f?0?5?$CF?41f?0?5@ 00513d60     pvs.obj
 0002:00011d88       ??_C@_07DPLEAMIN@lockpvs?$AA@ 00513d88     pvs.obj
 0002:00011d90       ??_C@_03OBOKLOKI@pvs?$AA@  00513d90     pvs.obj
 0002:00011d94       ??_C@_08GNCIKCFN@waterpvs?$AA@ 00513d94     pvs.obj
 0002:00011da0       ??_C@_08FNDJHBJN@clearpvs?$AA@ 00513da0     pvs.obj
 0002:00011dac       ??_C@_0DP@LCFLEMC@generated?5test?5view?5cell?5of?5size@ 00513dac     pvs.obj
 0002:00011dec       ??_C@_07NFPMHLJF@testpvs?$AA@ 00513dec     pvs.obj
 0002:00011df4       ??_C@_0BJ@MANDPFBI@map?5is?5too?5large?5for?5PVS?$AA@ 00513df4     pvs.obj
 0002:00011e10       ??_C@_0BO@IPAPMGLG@generating?5PVS?5?$CIesc?5to?5abort?$CJ?$AA@ 00513e10     pvs.obj
 0002:00011e30       ??_C@_0BD@KEEBJBLG@finding?5view?5cells?$AA@ 00513e30     pvs.obj
 0002:00011e44       ??_C@_0BB@BNDBHBCK@creating?5threads?$AA@ 00513e44     pvs.obj
 0002:00011e58       ??_C@_0P@HBCCEHFN@genpvs?5aborted?$AA@ 00513e58     pvs.obj
 0002:00011e68       ??_C@_0FC@PFNMEHGM@generated?5?$CFd?5unique?5view?5cells?5t@ 00513e68     pvs.obj
 0002:00011ebc       ??_C@_06GNOIJLGE@genpvs?$AA@ 00513ebc     pvs.obj
 0002:00011ec4       ??_C@_0DJ@BMJNKCHA@?$CFd?5unique?5view?5cells?5totaling?5?$CF?4@ 00513ec4     pvs.obj
 0002:00011f00       ??_C@_08LHODJJK@pvsstats?$AA@ 00513f00     pvs.obj
 0002:00011f0c       ??_C@_0L@HEEMIGIK@mapversion?$AA@ 00513f0c     world.obj
 0002:00011f18       ??_C@_08MNAKLCJO@mapscale?$AA@ 00513f18     world.obj
 0002:00011f24       ??_C@_07EOGAIPJO@mapsize?$AA@ 00513f24     world.obj
 0002:00011f2c       ??_C@_0BI@DJPFJNDC@Untitled?5Map?5by?5Unknown?$AA@ 00513f2c     world.obj
 0002:00011f44       ??_C@_08PNHIDNCK@maptitle?$AA@ 00513f44     world.obj
 0002:00011f50       ??_C@_0M@MJOBAMJH@octaentsize?$AA@ 00513f50     world.obj
 0002:00011f5c       ??_C@_0N@CEOKPFKE@entselradius?$AA@ 00513f5c     world.obj
 0002:00011f6c       ??_C@_02LMMGGCAJ@?3?5?$AA@ 00513f6c     world.obj
 0002:00011f70       ??_C@_0L@DNBKKPAE@entediting?$AA@ 00513f70     world.obj
 0002:00011f7c       ??_C@_0N@NGHHLMAK@attachradius?$AA@ 00513f7c     world.obj
 0002:00011f8c       ??_C@_0L@FAFMCKKN@entselsnap?$AA@ 00513f8c     world.obj
 0002:00011f98       ??_C@_0BA@GAOFJCDA@entmovingshadow?$AA@ 00513f98     world.obj
 0002:00011fa8       ??_C@_0O@COPLFDID@showentradius?$AA@ 00513fa8     world.obj
 0002:00011fb8       ??_C@_0L@KKHFHLHM@entitysurf?$AA@ 00513fb8     world.obj
 0002:00011fc4       ??_C@_09NMIKLLOH@entmoving?$AA@ 00513fc4     world.obj
 0002:00011fd0       ??_C@_0BA@LJIFFCEL@entautoviewdist?$AA@ 00513fd0     world.obj
 0002:00011fe0       ??_C@_0M@JJCILCOM@entautoview?$AA@ 00513fe0     world.obj
 0002:00011fec       ??_C@_07EGFHLFCJ@entflip?$AA@ 00513fec     world.obj
 0002:00011ff4       ??_C@_09NBOPGIGL@entrotate?$AA@ 00513ff4     world.obj
 0002:00012000       ??_C@_07BHEMHBOB@entpush?$AA@ 00514000     world.obj
 0002:00012008       ??_C@_0BJ@IDBMAGIP@unknown?5entity?5type?5?$CC?$CFs?$CC?$AA@ 00514008     world.obj
 0002:00012024       ??_C@_07IINMLKFH@entdrop?$AA@ 00514024     world.obj
 0002:0001202c       ??_C@_09KIAEKOLE@attachent?$AA@ 0051402c     world.obj
 0002:00012038       ??_C@_0BC@NHAFOOKN@too?5many?5entities?$AA@ 00514038     world.obj
 0002:0001204c       ??_C@_06LBNNDJFB@siiiii?$AA@ 0051404c     world.obj
 0002:00012054       ??_C@_06KPDDOIOG@newent?$AA@ 00514054     world.obj
 0002:0001205c       ??_C@_06BMHDBBDL@delent?$AA@ 0051405c     world.obj
 0002:00012064       ??_C@_07LABJEPHM@dropent?$AA@ 00514064     world.obj
 0002:0001206c       ??_C@_07FODHLGAB@entcopy?$AA@ 0051406c     world.obj
 0002:00012074       ??_C@_08EPMMGKCL@entpaste?$AA@ 00514074     world.obj
 0002:00012080       ??_C@_0BC@EEEKBGBA@?$CFs?5?$CFd?5?$CFd?5?$CFd?5?$CFd?5?$CFd?$AA@ 00514080     world.obj
 0002:00012094       ??_C@_0L@ILCCBKNP@enthavesel?$AA@ 00514094     world.obj
 0002:000120a0       ??_C@_09EDEBJNEI@entselect?$AA@ 005140a0     world.obj
 0002:000120ac       ??_C@_07BKNPHONE@entloop?$AA@ 005140ac     world.obj
 0002:000120b4       ??_C@_05LJBKOLPA@insel?$AA@ 005140b4     world.obj
 0002:000120bc       ??_C@_06CGAPBBGF@entget?$AA@ 005140bc     world.obj
 0002:000120c4       ??_C@_08MGADGENE@entindex?$AA@ 005140c4     world.obj
 0002:000120d0       ??_C@_06PJHENBKN@entset?$AA@ 005140d0     world.obj
 0002:000120d8       ??_C@_0L@FJPBDINI@nearestent?$AA@ 005140d8     world.obj
 0002:000120e4       ??_C@_09MBCHPELG@gamespeed?$AA@ 005140e4     world.obj
 0002:000120f0       ??_C@_06EKGGOLPA@paused?$AA@ 005140f0     world.obj
 0002:000120f8       ??_C@_0CB@MNEFMKAM@newmap?5only?5allowed?5in?5edit?5mode@ 005140f8     world.obj
 0002:0001211c       ??_C@_0BO@JFIDHGKH@data?1default_map_settings?4cfg?$AA@ 0051411c     world.obj
 0002:0001213c       ??_C@_0CF@HMNMOLON@mapenlarge?5only?5allowed?5in?5edit?5@ 0051413c     world.obj
 0002:00012164       ??_C@_0BG@BGNDFEGH@shrunk?5map?5to?5size?5?$CFd?$AA@ 00514164     world.obj
 0002:0001217c       ??_C@_06FLHECDA@newmap?$AA@ 0051417c     world.obj
 0002:00012184       ??_C@_0L@MNHMBLFM@mapenlarge?$AA@ 00514184     world.obj
 0002:00012190       ??_C@_09GFJBMKDM@shrinkmap?$AA@ 00514190     world.obj
 0002:0001219c       ??_C@_07KMNEBLH@mapname?$AA@ 0051419c     world.obj
 0002:000121a4       ??_C@_02GMLFBBN@wb?$AA@    005141a4     worldio.obj
 0002:000121a8       ??_C@_07EHFJMLKG@savebak?$AA@ 005141a8     worldio.obj
 0002:000121b0       ??_C@_04LMCBDCAL@?4ogz?$AA@ 005141b0     worldio.obj
 0002:000121b8       ??_C@_02CFKBDFGI@?1?2?$AA@ 005141b8     worldio.obj
 0002:000121bc       ??_C@_04BHIIPFEC@base?$AA@ 005141bc     worldio.obj
 0002:000121c4       ??_C@_07DLHDFGAF@base?1?$CFs?$AA@ 005141c4     worldio.obj
 0002:000121cc       ??_C@_0BA@KPAAOGAI@packages?1?$CFs?4ogz?$AA@ 005141cc     worldio.obj
 0002:000121dc       ??_C@_0BA@HMFKMAL@packages?1?$CFs?4BAK?$AA@ 005141dc     worldio.obj
 0002:000121ec       ??_C@_0BD@JOHJEEGO@packages?1?$CFs_?$CFd?4BAK?$AA@ 005141ec     worldio.obj
 0002:00012200       ??_C@_0BD@DAEHBEEN@packages?1?$CFs?1?$CFs?4cfg?$AA@ 00514200     worldio.obj
 0002:00012214       ??_C@_0BA@HONLMPND@packages?1?$CFs?4jpg?$AA@ 00514214     worldio.obj
 0002:00012224       ??_C@_08GDFANMDE@untitled?$AA@ 00514224     worldio.obj
 0002:00012230       ??_C@_0L@JPFAEGAJ@mapcfgname?$AA@ 00514230     worldio.obj
 0002:0001223c       ??_C@_0P@PBJEKMIN@garbage?5in?5map?$AA@ 0051423c     worldio.obj
 0002:0001224c       ??_C@_07GBMLPPPL@dbgvars?$AA@ 0051424c     worldio.obj
 0002:00012254       ??_C@_0BK@MMNKLJGP@could?5not?5write?5map?5to?5?$CFs?$AA@ 00514254     worldio.obj
 0002:00012270       ??_C@_0O@CMLJIOPC@saving?5map?4?4?4?$AA@ 00514270     worldio.obj
 0002:00012280       ??_C@_04OIAIMIIB@OCTA?$AA@ 00514280     worldio.obj
 0002:00012288       ??_C@_0BB@KPHOBAIL@wrote?5var?5?$CFs?3?5?$CFd?$AA@ 00514288     worldio.obj
 0002:0001229c       ??_C@_0BC@BOOOJGJN@wrote?5fvar?5?$CFs?3?5?$CFf?$AA@ 0051429c     worldio.obj
 0002:000122b0       ??_C@_0BC@LNOAOKGF@wrote?5svar?5?$CFs?3?5?$CFs?$AA@ 005142b0     worldio.obj
 0002:000122c4       ??_C@_0O@LFOANLBN@wrote?5?$CFd?5vars?$AA@ 005142c4     worldio.obj
 0002:000122d4       ??_C@_0BC@GPFGLKNK@wrote?5map?5file?5?$CFs?$AA@ 005142d4     worldio.obj
 0002:000122e8       ??_C@_0BG@IENFPLMB@could?5not?5read?5map?5?$CFs?$AA@ 005142e8     worldio.obj
 0002:00012300       ??_C@_0DH@FOANNPDH@map?5?$CFs?5requires?5a?5newer?5version?5@ 00514300     worldio.obj
 0002:00012338       ??_C@_0L@IPBIFIDN@loading?4?4?4?$AA@ 00514338     worldio.obj
 0002:00012348       ??_C@_0FP@HOGDDCHK@loading?5older?5?1?5less?5efficient?5m@ 00514348     worldio.obj
 0002:000123a8       ??_C@_0M@HBMJEING@watercolour?$AA@ 005143a8     worldio.obj
 0002:000123b4       ??_C@_0BA@GKGPPIOF@waterfallcolour?$AA@ 005143b4     worldio.obj
 0002:000123c4       ??_C@_0L@FMCDBIPJ@lavacolour?$AA@ 005143c4     worldio.obj
 0002:000123d0       ??_C@_0BA@JGIEOOMJ@read?5var?5?$CFs?3?5?$CFd?$AA@ 005143d0     worldio.obj
 0002:000123e0       ??_C@_0BB@IGAFEMNP@read?5fvar?5?$CFs?3?5?$CFf?$AA@ 005143e0     worldio.obj
 0002:000123f4       ??_C@_0BB@CFALDACH@read?5svar?5?$CFs?3?5?$CFs?$AA@ 005143f4     worldio.obj
 0002:00012408       ??_C@_0N@DONJBGAL@read?5?$CFd?5vars?$AA@ 00514408     worldio.obj
 0002:00012418       ??_C@_03JABFMKFJ@fps?$AA@  00514418     worldio.obj
 0002:00012420       ??_C@_0FC@JGMDPNDD@WARNING?3?5loading?5map?5from?5?$CFs?5gam@ 00514420     worldio.obj
 0002:00012474       ??_C@_0BC@DCHMDFAI@clearing?5world?4?4?4?$AA@ 00514474     worldio.obj
 0002:00012488       ??_C@_0BE@CJBBIHIP@loading?5entities?4?4?4?$AA@ 00514488     worldio.obj
 0002:000124a0       ??_C@_0EB@OABDHGPF@warning?3?5ent?5outside?5of?5world?3?5e@ 005144a0     worldio.obj
 0002:000124e4       ??_C@_0DG@HBAGAPFA@warning?3?5mapmodel?5ent?5?$CIindex?5?$CFd?$CJ@ 005144e4     worldio.obj
 0002:0001251c       ??_C@_0BN@DDINLBGK@warning?3?5map?5has?5?$CFd?5entities?$AA@ 0051451c     worldio.obj
 0002:0001253c       ??_C@_0BB@BDCJLDLJ@loading?5slots?4?4?4?$AA@ 0051453c     worldio.obj
 0002:00012550       ??_C@_0BC@ODCPBFJJ@loading?5octree?4?4?4?$AA@ 00514550     worldio.obj
 0002:00012564       ??_C@_0O@CMLICMCJ@validating?4?4?4?$AA@ 00514564     worldio.obj
 0002:00012574       ??_C@_0BF@GLOAPPLE@loading?5lightmaps?4?4?4?$AA@ 00514574     worldio.obj
 0002:0001258c       ??_C@_0BL@HCIKLEFF@read?5map?5?$CFs?5?$CI?$CF?41f?5seconds?$CJ?$AA@ 0051458c     worldio.obj
 0002:000125a8       ??_C@_02DKCKIIND@?$CFs?$AA@ 005145a8     worldio.obj
 0002:000125ac       ??_C@_07LGAMBAGK@savemap?$AA@ 005145ac     worldio.obj
 0002:000125b4       ??_C@_0P@CFANOFNA@savecurrentmap?$AA@ 005145b4     worldio.obj
 0002:000125c4       ??_C@_06LLFFKDIG@?$CFs?4obj?$AA@ 005145c4     worldio.obj
 0002:000125cc       ??_C@_0BN@FNKFNDOC@?$CD?5obj?5file?5of?5Cube?52?5level?6?6?$AA@ 005145cc     worldio.obj
 0002:000125ec       ??_C@_06FPKNBDEJ@?$CFs?4mtl?$AA@ 005145ec     worldio.obj
 0002:000125f4       ??_C@_0M@FOFCMCHJ@mtllib?5?$CFs?6?6?$AA@ 005145f4     worldio.obj
 0002:00012600       ??_C@_07CNIPEAIC@v?5?$CF?43f?5?$AA@ 00514600     worldio.obj
 0002:00012608       ??_C@_05BPDBIHNG@v?5?$CFd?5?$AA@ 00514608     worldio.obj
 0002:00012610       ??_C@_05FMONJPMD@?$CF?43f?5?$AA@ 00514610     worldio.obj
 0002:00012618       ??_C@_03JDANDILB@?$CFd?5?$AA@ 00514618     worldio.obj
 0002:0001261c       ??_C@_05DDIGFDOL@?$CF?43f?6?$AA@ 0051461c     worldio.obj
 0002:00012624       ??_C@_03PMGGPEJJ@?$CFd?6?$AA@ 00514624     worldio.obj
 0002:00012628       ??_C@_01EEMJAFIK@?6?$AA@   00514628     worldio.obj
 0002:0001262c       ??_C@_0O@DGLNHHKK@vt?5?$CF?46f?5?$CF?46f?6?$AA@ 0051462c     worldio.obj
 0002:0001263c       ??_C@_09BEFLJFDL@g?5slot?$CFd?6?$AA@ 0051463c     worldio.obj
 0002:00012648       ??_C@_0BA@DLBOBIPD@usemtl?5slot?$CFd?6?6?$AA@ 00514648     worldio.obj
 0002:00012658       ??_C@_06FBLLMJNF@?5?$CFd?1?$CFd?$AA@ 00514658     worldio.obj
 0002:00012660       ??_C@_0BN@HOOKAPAP@?$CD?5mtl?5file?5of?5Cube?52?5level?6?6?$AA@ 00514660     worldio.obj
 0002:00012680       ??_C@_0P@EAFAIPME@newmtl?5slot?$CFd?6?$AA@ 00514680     worldio.obj
 0002:00012690       ??_C@_08GFNEJDPJ@packages?$AA@ 00514690     worldio.obj
 0002:0001269c       ??_C@_0L@GCKEPKJJ@map_Kd?5?$CFs?6?$AA@ 0051469c     worldio.obj
 0002:000126a8       ??_C@_08LAKBGEK@writeobj?$AA@ 005146a8     worldio.obj
 0002:000126b4       ??_C@_0CH@HDLCKFDP@operation?5not?5available?5in?5multi@ 005146b4     client.obj
 0002:000126dc       ??_C@_04HCCHHEEF@rate?$AA@ 005146dc     client.obj
 0002:000126e4       ??_C@_0CO@PJIHNDGB@?$AM3WARNING?3?5?$AM2Command?5?$CCrate?$CC?5has?5@ 005146e4     client.obj
 0002:00012714       ??_C@_0BC@HEEPLBOG@throttle_interval?$AA@ 00514714     client.obj
 0002:00012728       ??_C@_0P@GOIDANDD@throttle_accel?$AA@ 00514728     client.obj
 0002:00012738       ??_C@_0P@LBAOGJCA@throttle_decel?$AA@ 00514738     client.obj
 0002:00012748       ??_C@_0M@NMIICMBL@isconnected?$AA@ 00514748     client.obj
 0002:00012754       ??_C@_0M@HMAMCNCD@connectedip?$AA@ 00514754     client.obj
 0002:00012760       ??_C@_0O@ICNKOFOO@connectedport?$AA@ 00514760     client.obj
 0002:00012770       ??_C@_0M@MLOKCMI@connectname?$AA@ 00514770     client.obj
 0002:0001277c       ??_C@_0M@HHBCDLEF@connectport?$AA@ 0051477c     client.obj
 0002:00012788       ??_C@_0BM@JCJFMNM@aborting?5connection?5attempt?$AA@ 00514788     client.obj
 0002:000127a4       ??_C@_0BP@GKFBIINM@attempting?5to?5connect?5to?5?$CFs?3?$CFd?$AA@ 005147a4     client.obj
 0002:000127c4       ??_C@_0BO@NMCAKEIN@?$AM3could?5not?5resolve?5server?5?$CFs?$AA@ 005147c4     client.obj
 0002:000127e4       ??_C@_0BP@DBNKPJGO@attempting?5to?5connect?5over?5LAN?$AA@ 005147e4     client.obj
 0002:00012804       ??_C@_0BO@FMIGNLBM@?$AM3could?5not?5connect?5to?5server?$AA@ 00514804     client.obj
 0002:00012824       ??_C@_0BH@PDLLCBCC@no?5previous?5connection?$AA@ 00514824     client.obj
 0002:0001283c       ??_C@_0N@GGGDBMDO@disconnected?$AA@ 0051483c     client.obj
 0002:0001284c       ??_C@_0BM@KHAAGKOC@attempting?5to?5disconnect?4?4?4?$AA@ 0051484c     client.obj
 0002:00012868       ??_C@_0O@GLMIBBEG@not?5connected?$AA@ 00514868     client.obj
 0002:00012878       ??_C@_03OECFPFAL@sis?$AA@  00514878     client.obj
 0002:0001287c       ??_C@_07KAIBNCHO@connect?$AA@ 0051487c     client.obj
 0002:00012884       ??_C@_02EDKKPMHH@is?$AA@   00514884     client.obj
 0002:00012888       ??_C@_0L@FOGOINHM@lanconnect?$AA@ 00514888     client.obj
 0002:00012894       ??_C@_09MCGBPECP@reconnect?$AA@ 00514894     client.obj
 0002:000128a0       ??_C@_0L@KKPFIJOL@disconnect?$AA@ 005148a0     client.obj
 0002:000128ac       ??_C@_0N@EJBMDGIO@localconnect?$AA@ 005148ac     client.obj
 0002:000128bc       ??_C@_0BA@KLJNCDMD@localdisconnect?$AA@ 005148bc     client.obj
 0002:000128cc       ??_C@_0BP@BDHIAHKH@?$AM3illegal?5network?5message?5?$CI?$CFs?$CJ?$AA@ 005148cc     client.obj
 0002:000128ec       ??_C@_0BJ@NFIAENFO@attempting?5to?5connect?4?4?4?$AA@ 005148ec     client.obj
 0002:00012908       ??_C@_0BE@FHNLFBGA@connected?5to?5server?$AA@ 00514908     client.obj
 0002:0001291c       ??_C@_0CL@LNKAMNHH@?$AM3server?5network?5error?0?5disconne@ 0051491c     client.obj
 0002:00012948       ??_C@_08CLAAFLMB@overflow?$AA@ 00514948     server.obj
 0002:00012954       ??_C@_0BF@BGNPCDGL@connection?5timed?5out?$AA@ 00514954     server.obj
 0002:0001296c       ??_C@_0M@GNAEPDCL@server?5FULL?$AA@ 0051496c     server.obj
 0002:00012978       ??_C@_0BK@CIAFDEPO@server?5is?5in?5private?5mode?$AA@ 00514978     server.obj
 0002:00012994       ??_C@_0N@KLGGLKFD@ip?5is?5banned?$AA@ 00514994     server.obj
 0002:000129a4       ??_C@_08LHFLPAFL@tag?5type?$AA@ 005149a4     server.obj
 0002:000129b0       ??_C@_0O@DDBOENOP@kicked?1banned?$AA@ 005149b0     server.obj
 0002:000129c0       ??_C@_0L@CNDFKLPO@client?5num?$AA@ 005149c0     server.obj
 0002:000129cc       ??_C@_0O@JBDOGIMF@end?5of?5packet?$AA@ 005149cc     server.obj
 0002:000129dc       ??_C@_06IKLLLDHL@normal?$AA@ 005149dc     server.obj
 0002:000129e4       ??_C@_0CF@KNOLEFJL@client?5?$CI?$CFs?$CJ?5disconnected?5because@ 005149e4     server.obj
 0002:00012a0c       ??_C@_0N@LIIFAPFN@updatemaster?$AA@ 00514a0c     server.obj
 0002:00012a1c       ??_C@_0L@LCFAMLEL@mastername?$AA@ 00514a1c     server.obj
 0002:00012a28       ??_C@_0L@MJPMFCMG@masterport?$AA@ 00514a28     server.obj
 0002:00012a34       ??_C@_07HHDHJGJJ@failreg?$AA@ 00514a34     server.obj
 0002:00012a3c       ??_C@_0CG@HCBAKCCK@master?5server?5registration?5faile@ 00514a3c     server.obj
 0002:00012a64       ??_C@_07PDDGKFLM@succreg?$AA@ 00514a64     server.obj
 0002:00012a6c       ??_C@_0CF@GLNKPO@master?5server?5registration?5succe@ 00514a6c     server.obj
 0002:00012a94       ??_C@_0L@JKCONGEA@maxclients?$AA@ 00514a94     server.obj
 0002:00012aa0       ??_C@_0N@BMFEHACO@serveruprate?$AA@ 00514aa0     server.obj
 0002:00012ab0       ??_C@_08BGICIMDD@serverip?$AA@ 00514ab0     server.obj
 0002:00012abc       ??_C@_0L@GJMJAOEP@serverport?$AA@ 00514abc     server.obj
 0002:00012ac8       ??_C@_0M@EKFGIGOH@regserv?5?$CFd?6?$AA@ 00514ac8     server.obj
 0002:00012ad4       ??_C@_0DI@OCJOGBJA@status?3?5?$CFd?5remote?5clients?0?5?$CF?41f?5@ 00514ad4     server.obj
 0002:00012b0c       ??_C@_07CIFAGBMG@unknown?$AA@ 00514b0c     server.obj
 0002:00012b14       ??_C@_0BH@HNHNFPPG@client?5connected?5?$CI?$CFs?$CJ?6?$AA@ 00514b14     server.obj
 0002:00012b2c       ??_C@_0BK@ILDBAMNM@disconnected?5client?5?$CI?$CFs?$CJ?6?$AA@ 00514b2c     server.obj
 0002:00012b48       ??_C@_05IDKHKMLA@local?$AA@ 00514b48     server.obj
 0002:00012b50       ??_C@_0EC@JPKNINDD@dedicated?5server?5started?0?5waitin@ 00514b50     server.obj
 0002:00012b94       ??_C@_0CA@JDMEILNB@WARNING?3?5server?5ip?5not?5resolved?$AA@ 00514b94     server.obj
 0002:00012bb4       ??_C@_0BN@JBKHAIPE@could?5not?5create?5server?5host?$AA@ 00514bb4     server.obj
 0002:00012bd4       ??_C@_0CE@OEAOIBIG@could?5not?5create?5server?5info?5soc@ 00514bd4     server.obj
 0002:00012bf8       ??_C@_0DB@KOAJBNHP@WARNING?3?5could?5not?5create?5LAN?5se@ 00514bf8     server.obj
 0002:00012c2c       ??_C@_0BA@KDOHKEDP@server?9init?4cfg?$AA@ 00514c2c     server.obj
 0002:00012c3c       ??_C@_0BG@HADKKDCA@listen?5server?5started?$AA@ 00514c3c     server.obj
 0002:00012c54       ??_C@_0CB@KNJNHDHB@listen?5server?5is?5already?5running@ 00514c54     server.obj
 0002:00012c78       ??_C@_0BP@BFDIOKG@?5and?5listed?5with?5master?5server?$AA@ 00514c78     server.obj
 0002:00012c98       ??_C@_0CH@LIGKGCFD@listen?5server?5started?5for?5?$CFd?5cli@ 00514c98     server.obj
 0002:00012cc0       ??_C@_0BC@BHCJIDBA@startlistenserver?$AA@ 00514cc0     server.obj
 0002:00012cd4       ??_C@_0BN@FDPFGMFL@listen?5server?5is?5not?5running?$AA@ 00514cd4     server.obj
 0002:00012cf4       ??_C@_0BG@LPJCAGGH@listen?5server?5stopped?$AA@ 00514cf4     server.obj
 0002:00012d0c       ??_C@_0BB@IHBPAJFB@stoplistenserver?$AA@ 00514d0c     server.obj
 0002:00012d20       ??_C@_01BNIGIBBF@Q?$AA@    00514d20     serverbrowser.obj
 0002:00012d24       ??_C@_02IKLBENJG@YA?$AA@   00514d24     serverbrowser.obj
 0002:00012d28       ??_C@_02JMAJMDOM@GA?$AA@   00514d28     serverbrowser.obj
 0002:00012d2c       ??_C@_02EAFMPNHD@MH?$AA@   00514d2c     serverbrowser.obj
 0002:00012d30       ??_C@_01IGIGCIAN@H?$AA@    00514d30     serverbrowser.obj
 0002:00012d34       ??_C@_02ENLJPMBB@PI?$AA@   00514d34     serverbrowser.obj
 0002:00012d38       ??_C@_02CJKHLNKB@GL?$AA@   00514d38     serverbrowser.obj
 0002:00012d3c       ??_C@_02EODNCIHP@RI?$AA@   00514d3c     serverbrowser.obj
 0002:00012d40       ??_C@_02DDEKNMDK@RL?$AA@   00514d40     serverbrowser.obj
 0002:00012d44       ??_C@_02MNFKMMLG@CG?$AA@   00514d44     serverbrowser.obj
 0002:00012d48       ??_C@_02NBHMGPMG@SG?$AA@   00514d48     serverbrowser.obj
 0002:00012d50       ??_C@_0JN@NMPCNFIJ@Efficiency?5Hold?5The?5Flag?3?5Hold?5?$AM@ 00514d50     serverbrowser.obj
 0002:00012df0       ??_C@_0BA@LALIJCOM@efficiency?5hold?$AA@ 00514df0     serverbrowser.obj
 0002:00012e00       ??_C@_0PG@PNCMDFJC@Efficiency?5Protect?5The?5Flag?3?5Tou@ 00514e00     serverbrowser.obj
 0002:00012ef8       ??_C@_0BD@GECMAGFE@efficiency?5protect?$AA@ 00514ef8     serverbrowser.obj
 0002:00012f10       ??_C@_0LP@MKFCIANI@Efficiency?5Capture?5The?5Flag?3?5Cap@ 00514f10     serverbrowser.obj
 0002:00012fd0       ??_C@_0P@BPEIEICB@efficiency?5ctf?$AA@ 00514fd0     serverbrowser.obj
 0002:00012fe0       ??_C@_0LE@BKFEPACN@Instagib?5Hold?5The?5Flag?3?5Hold?5?$AMs?$AM@ 00514fe0     serverbrowser.obj
 0002:00013094       ??_C@_0L@DBMNLHEO@insta?5hold?$AA@ 00515094     serverbrowser.obj
 0002:000130a0       ??_C@_0GP@IFOMEBAP@Hold?5The?5Flag?3?5Hold?5?$AMs?$AM7the?5flag@ 005150a0     serverbrowser.obj
 0002:00013110       ??_C@_04LDIGEPNM@hold?$AA@ 00515110     serverbrowser.obj
 0002:00013118       ??_C@_0BAN@OOKPLCNE@Instagib?5Protect?5The?5Flag?3?5Touch@ 00515118     serverbrowser.obj
 0002:00013228       ??_C@_0O@HGEMNKIP@insta?5protect?$AA@ 00515228     serverbrowser.obj
 0002:00013238       ??_C@_0MI@CHKAADHB@Protect?5The?5Flag?3?5Touch?5?$AMs?$AM3the?5@ 00515238     serverbrowser.obj
 0002:00013300       ??_C@_07LFLAEFDO@protect?$AA@ 00515300     serverbrowser.obj
 0002:00013308       ??_C@_0NG@KIMGFBKL@Instagib?5Capture?5The?5Flag?3?5Captu@ 00515308     serverbrowser.obj
 0002:000133e0       ??_C@_09NEHLCHPF@insta?5ctf?$AA@ 005153e0     serverbrowser.obj
 0002:000133f0       ??_C@_0JB@LLFPMHLC@Capture?5The?5Flag?3?5Capture?5?$AMs?$AM3th@ 005153f0     serverbrowser.obj
 0002:00013484       ??_C@_03JHHHHEKD@ctf?$AA@  00515484     serverbrowser.obj
 0002:00013488       ??_C@_0PD@MAOBCNLI@Regen?5Capture?3?5Capture?5neutral?5b@ 00515488     serverbrowser.obj
 0002:0001357c       ??_C@_0O@GBMEEJLF@regen?5capture?$AA@ 0051557c     serverbrowser.obj
 0002:00013590       ??_C@_0BBE@JIFJBNGI@Capture?3?5Capture?5neutral?5bases?5o@ 00515590     serverbrowser.obj
 0002:000136a4       ??_C@_07PNBGPICD@capture?$AA@ 005156a4     serverbrowser.obj
 0002:000136b0       ??_C@_0IP@OCCALLDK@Tactics?5Team?3?5You?5spawn?5with?5two@ 005156b0     serverbrowser.obj
 0002:00013740       ??_C@_0N@OCMBPADH@tactics?5team?$AA@ 00515740     serverbrowser.obj
 0002:00013750       ??_C@_0GK@HICGMKHF@Tactics?3?5You?5spawn?5with?5two?5rand@ 00515750     serverbrowser.obj
 0002:000137bc       ??_C@_07BFJJCEJD@tactics?$AA@ 005157bc     serverbrowser.obj
 0002:000137c8       ??_C@_0IL@LEEDPEIG@Efficiency?5Team?3?5You?5spawn?5with?5@ 005157c8     serverbrowser.obj
 0002:00013854       ??_C@_0BA@KDAPCABB@efficiency?5team?$AA@ 00515854     serverbrowser.obj
 0002:00013868       ??_C@_0GG@JNGMKJHO@Efficiency?3?5You?5spawn?5with?5all?5w@ 00515868     serverbrowser.obj
 0002:000138d0       ??_C@_0L@CCDNIEMB@efficiency?$AA@ 005158d0     serverbrowser.obj
 0002:000138e0       ??_C@_0KC@MFFEPHEC@Instagib?5Team?3?5You?5spawn?5with?5fu@ 005158e0     serverbrowser.obj
 0002:00013984       ??_C@_0O@KOBPMHEA@instagib?5team?$AA@ 00515984     serverbrowser.obj
 0002:00013998       ??_C@_0HN@NIGLOEJH@Instagib?3?5You?5spawn?5with?5full?5ri@ 00515998     serverbrowser.obj
 0002:00013a18       ??_C@_08HDAKIDIL@instagib?$AA@ 00515a18     serverbrowser.obj
 0002:00013a28       ??_C@_0GB@JLPHNPPL@Teamplay?3?5Collect?5items?5for?5ammo@ 00515a28     serverbrowser.obj
 0002:00013a8c       ??_C@_08IKNDEHFO@teamplay?$AA@ 00515a8c     serverbrowser.obj
 0002:00013a98       ??_C@_0EF@HIMJEDFH@Cooperative?5Editing?3?5Edit?5maps?5w@ 00515a98     serverbrowser.obj
 0002:00013ae0       ??_C@_09KOLDNFLB@coop?5edit?$AA@ 00515ae0     serverbrowser.obj
 0002:00013af0       ??_C@_0EF@LDILNPJL@Free?5For?5All?3?5Collect?5items?5for?5@ 00515af0     serverbrowser.obj
 0002:00013b38       ??_C@_03PAEKGFEI@ffa?$AA@  00515b38     serverbrowser.obj
 0002:00013b3c       ??_C@_04PLPNPBEF@demo?$AA@ 00515b3c     serverbrowser.obj
 0002:00013b44       ??_C@_04CJJBLLDG@DMSP?$AA@ 00515b44     serverbrowser.obj
 0002:00013b4c       ??_C@_02NEPPOLFA@SP?$AA@   00515b4c     serverbrowser.obj
 0002:00013b50       ??_C@_0BP@GPILIJPG@resolving?5?$CFs?4?4?4?5?$CIesc?5to?5abort?$CJ?$AA@ 00515b50     serverbrowser.obj
 0002:00013b70       ??_C@_0CD@MKLNNOMI@connecting?5to?5?$CFs?4?4?4?5?$CIesc?5to?5abor@ 00515b70     serverbrowser.obj
 0002:00013b94       ??_C@_0L@OFJJNEOG@sortbythat?$AA@ 00515b94     serverbrowser.obj
 0002:00013ba0       ??_C@_09JEPAOCCD@searchlan?$AA@ 00515ba0     serverbrowser.obj
 0002:00013bac       ??_C@_0N@KANIKAHK@servpingrate?$AA@ 00515bac     serverbrowser.obj
 0002:00013bbc       ??_C@_0O@KEEFACIB@servpingdecay?$AA@ 00515bbc     serverbrowser.obj
 0002:00013bcc       ??_C@_0N@CJHGHGFN@maxservpings?$AA@ 00515bcc     serverbrowser.obj
 0002:00013bdc       ??_C@_0P@NNKKDLJC@?$FLunknown?5host?$FN?$AA@ 00515bdc     serverbrowser.obj
 0002:00013bec       ??_C@_0BH@HEHAEIEH@?$FLwaiting?5for?5response?$FN?$AA@ 00515bec     serverbrowser.obj
 0002:00013c04       ??_C@_0BA@BAAFLNKM@connectselected?$AA@ 00515c04     serverbrowser.obj
 0002:00013c14       ??_C@_0CN@DHOIFNKG@retrieving?5servers?5from?5?$CFs?4?4?4?5?$CIe@ 00515c14     serverbrowser.obj
 0002:00013c44       ??_C@_05HFLEKDDF@list?6?$AA@ 00515c44     serverbrowser.obj
 0002:00013c4c       ??_C@_0BL@EGCJNHEC@master?5server?5not?5replying?$AA@ 00515c4c     serverbrowser.obj
 0002:00013c68       ??_C@_09GMJEIMCB@addserver?$AA@ 00515c68     serverbrowser.obj
 0002:00013c74       ??_C@_0L@HBANMPCP@keepserver?$AA@ 00515c74     serverbrowser.obj
 0002:00013c80       ??_C@_0N@DLKPENKN@clearservers?$AA@ 00515c80     serverbrowser.obj
 0002:00013c90       ??_C@_0BB@MIFKGAAB@updatefrommaster?$AA@ 00515c90     serverbrowser.obj
 0002:00013ca4       ??_C@_0DP@ENHKENPC@?1?1?5servers?5that?5should?5never?5be?5@ 00515ca4     serverbrowser.obj
 0002:00013ce4       ??_C@_0BH@PJDADBCI@keepserver?5?$CFs?5?$CFd?5?$CC?$CFs?$CC?6?$AA@ 00515ce4     serverbrowser.obj
 0002:00013cfc       ??_C@_0BC@PIABBGCA@keepserver?5?$CFs?5?$CFd?6?$AA@ 00515cfc     serverbrowser.obj
 0002:00013d10       ??_C@_0DH@LBOGOOCC@?1?1?5servers?5connected?5to?5are?5adde@ 00515d10     serverbrowser.obj
 0002:00013d48       ??_C@_0BG@DPJKJLNN@addserver?5?$CFs?5?$CFd?5?$CC?$CFs?$CC?6?$AA@ 00515d48     serverbrowser.obj
 0002:00013d60       ??_C@_0BB@FPJHNPJM@addserver?5?$CFs?5?$CFd?6?$AA@ 00515d60     serverbrowser.obj
 0002:00013d74       ??_C@_04HDOCAJNK@?$CFs?$CFs?$AA@ 00515d74     3dgui.obj
 0002:00013d7c       ??_C@_01KDCPPGHE@r?$AA@    00515d7c     3dgui.obj
 0002:00013d80       ??_C@_08GEIOEOPC@textlist?$AA@ 00515d80     3dgui.obj
 0002:00013d8c       ??_C@_02KEGNLNML@?0?5?$AA@ 00515d8c     3dgui.obj
 0002:00013d90       ??_C@_08JDCABD@textshow?$AA@ 00515d90     3dgui.obj
 0002:00013d9c       ??_C@_02OCDGCAAK@si?$AA@   00515d9c     3dgui.obj
 0002:00013da0       ??_C@_09CIMFNMCF@textfocus?$AA@ 00515da0     3dgui.obj
 0002:00013dac       ??_C@_08GMBLFJKP@textprev?$AA@ 00515dac     3dgui.obj
 0002:00013db8       ??_C@_08DGDFKOHL@textmode?$AA@ 00515db8     3dgui.obj
 0002:00013dc4       ??_C@_02DPKJAMEF@?$CFd?$AA@ 00515dc4     3dgui.obj
 0002:00013dc8       ??_C@_08BGJIIHLF@textsave?$AA@ 00515dc8     3dgui.obj
 0002:00013dd4       ??_C@_08BEIFHEGB@textload?$AA@ 00515dd4     3dgui.obj
 0002:00013de0       ??_C@_03PFJENDKN@sss?$AA@  00515de0     3dgui.obj
 0002:00013de4       ??_C@_08CAAINPJN@textinit?$AA@ 00515de4     3dgui.obj
 0002:00013df0       ??_C@_08HEFNEGOL@textcopy?$AA@ 00515df0     3dgui.obj
 0002:00013dfc       ??_C@_0N@HPPJKNOE@?$CDpastebuffer?$AA@ 00515dfc     3dgui.obj
 0002:00013e0c       ??_C@_09PDJALLN@textpaste?$AA@ 00515e0c     3dgui.obj
 0002:00013e18       ??_C@_08FAMCCLAE@textmark?$AA@ 00515e18     3dgui.obj
 0002:00013e24       ??_C@_01HIHLOKLC@1?$AA@    00515e24     3dgui.obj
 0002:00013e28       ??_C@_01FDFGLJHB@2?$AA@    00515e28     3dgui.obj
 0002:00013e2c       ??_C@_0O@HOILJEOE@textselectall?$AA@ 00515e2c     3dgui.obj
 0002:00013e3c       ??_C@_09BIPHFCHH@textclear?$AA@ 00515e3c     3dgui.obj
 0002:00013e48       ??_C@_0BA@KFJPHIDP@textcurrentline?$AA@ 00515e48     3dgui.obj
 0002:00013e58       ??_C@_08JMBDEHCN@textexec?$AA@ 00515e58     3dgui.obj
 0002:00013e64       ??_C@_0L@NOHENLJA@guiautotab?$AA@ 00515e64     3dgui.obj
 0002:00013e70       ??_C@_0M@BMOCMIOO@guiclicktab?$AA@ 00515e70     3dgui.obj
 0002:00013e7c       ?tc@?1??rect_@gui@@QAEXMMMMH_N@Z@4QAY01$$CBMA 00515e7c     3dgui.obj
 0002:00013e7c       ?tc@?4??icon_@gui@@QAEXPAUTexture@@_NHHH1@Z@4QAY01$$CBMA 00515e7c     3dgui.obj
 0002:00013e9c       ??_C@_0BE@OCDHCKMA@data?1guioverlay?4png?$AA@ 00515e9c     3dgui.obj
 0002:00013eb0       ??_C@_0CD@CHIJAJFH@data?1themes?1default?1guioverlay?4p@ 00515eb0     3dgui.obj
 0002:00013ed4       ??_C@_0BO@DIPFDMPJ@data?1themes?1se?1guioverlay?4png?$AA@ 00515ed4     3dgui.obj
 0002:00013ef4       ??_C@_0CB@FEMAADPK@data?1themes?1crash?1guioverlay?4png@ 00515ef4     3dgui.obj
 0002:00013f18       ??_C@_0CH@CFEIFDEB@data?1themes?1red?5eclipse?1guioverl@ 00515f18     3dgui.obj
 0002:00013f40       ??_C@_0CC@OGFPOOIA@data?1themes?1default?1guislider?4pn@ 00515f40     3dgui.obj
 0002:00013f64       ??_C@_0BN@EAOJCOFD@data?1themes?1se?1guislider?4png?$AA@ 00515f64     3dgui.obj
 0002:00013f84       ??_C@_0CA@HDEDMAAH@data?1themes?1crash?1guislider?4png?$AA@ 00515f84     3dgui.obj
 0002:00013fa4       ??_C@_0CG@EKJGPCED@data?1themes?1red?5eclipse?1guislide@ 00515fa4     3dgui.obj
 0002:00013fcc       ??_C@_04GNPKBLNA@?4jpg?$AA@ 00515fcc     3dgui.obj
 0002:00013fd4       ??_C@_0CD@KJKJMLKM@data?1themes?1red?5eclipse?1icons?1?$CFs@ 00515fd4     3dgui.obj
 0002:00013ff8       ??_C@_0BE@FFOAAHDP@packages?1icons?1?$CFs?$CFs?$AA@ 00515ff8     3dgui.obj
 0002:0001400c       ??_C@_0CA@EAACFAOG@data?1themes?1default?1guiskin?4png?$AA@ 0051600c     3dgui.obj
 0002:0001402c       ??_C@_0BL@NHBINCGI@data?1themes?1se?1guiskin?4png?$AA@ 0051602c     3dgui.obj
 0002:00014048       ??_C@_0BO@JIAHOMIE@data?1themes?1crash?1guiskin?4png?$AA@ 00516048     3dgui.obj
 0002:00014068       ??_C@_0CE@MPCCOHCE@data?1themes?1red?5eclipse?1guiskin?4@ 00516068     3dgui.obj
 0002:0001408c       ??_C@_0M@GACLHFED@guipushdist?$AA@ 0051608c     3dgui.obj
 0002:00014098       ??_C@_01CLKCMJKC@?5?$AA@   00516098     3dgui.obj
 0002:0001409c       ??_C@_07CFIJHJBL@guisens?$AA@ 0051609c     3dgui.obj
 0002:000140a4       ??_C@_09EFNNMAAB@guifollow?$AA@ 005160a4     3dgui.obj
 0002:000140b0       ??_C@_05KKOCJNF@gui2d?$AA@ 005160b0     3dgui.obj
 0002:000140bc       ??_7gui@@6B@               005160bc     3dgui.obj
 0002:0001411c       ??_7g3d_gui@@6B@           0051611c     3dgui.obj
 0002:00014178       ??_C@_05HLMHLIGP@blobs?$AA@ 00516178     blob.obj
 0002:00014180       ??_C@_0O@KKKALFLC@blobintensity?$AA@ 00516180     blob.obj
 0002:00014190       ??_C@_0L@JJCLAMCA@blobheight?$AA@ 00516190     blob.obj
 0002:0001419c       ??_C@_0M@ODADEJKM@blobfadelow?$AA@ 0051619c     blob.obj
 0002:000141a8       ??_C@_0N@LOGKFHEJ@blobfadehigh?$AA@ 005161a8     blob.obj
 0002:000141b8       ??_C@_0L@PGFNFHOO@blobmargin?$AA@ 005161b8     blob.obj
 0002:000141c4       ??_C@_07EBOGAFFH@dbgblob?$AA@ 005161c4     blob.obj
 0002:000141cc       ??_C@_0N@HHHENNCM@blobstattris?$AA@ 005161cc     blob.obj
 0002:000141dc       ??_C@_0M@NJCLJIDG@blobdyntris?$AA@ 005161dc     blob.obj
 0002:000141e8       ??_C@_0CC@PMNAHPJK@?$DMgrey?$DOpackages?1particles?1blob?4pn@ 005161e8     blob.obj
 0002:0001420c       ??_C@_0N@CFJCLMH@maxdecaltris?$AA@ 0051620c     decal.obj
 0002:0001421c       ??_C@_09BMKCDGNF@decalfade?$AA@ 0051621c     decal.obj
 0002:00014228       ??_C@_06MHMMBMIA@dbgdec?$AA@ 00516228     decal.obj
 0002:00014230       ??_C@_0BA@FFBIIFKG@overbrightdecal?$AA@ 00516230     decal.obj
 0002:00014240       ??_C@_0L@KEFAEFO@T?5?0?5C?5?$EA?5Ca?$AA@ 00516240     decal.obj
 0002:0001424c       ??_C@_0O@OAFPADAN@saturatedecal?$AA@ 0051624c     decal.obj
 0002:0001425c       ??_C@_09GBGKBBIM@C?5?$CK?5T?5x?52?$AA@ 0051625c     decal.obj
 0002:00014268       ??_C@_0CH@LANFJANA@tris?5?$DN?5?$CFd?0?5verts?5?$DN?5?$CFd?0?5total?5tri@ 00516268     decal.obj
 0002:00014290       ??_C@_0CL@CPOEJEHB@?$DMgrey?$DO?$DMdecal?$DOpackages?1particles?1@ 00516290     decal.obj
 0002:000142bc       ??_C@_0CD@MNLKHFAG@?$DMgrey?$DOpackages?1particles?1blood?4p@ 005162bc     decal.obj
 0002:000142e0       ??_C@_0CE@JOENDLCK@?$DMgrey?$DOpackages?1particles?1scorch?4@ 005162e0     decal.obj
 0002:00014304       ??_C@_06FNIEFDBE@decals?$AA@ 00516304     decal.obj
 0002:0001430c       ??_C@_0BB@CEPPFAON@maxdecaldistance?$AA@ 0051630c     decal.obj
 0002:00014320       ??_C@_0M@FLMOCJAF@ffdynlights?$AA@ 00516320     dynlight.obj
 0002:0001432c       ??_C@_0N@OOKIBFIK@maxdynlights?$AA@ 0051632c     dynlight.obj
 0002:0001433c       ??_C@_0N@HLCHDLOH@dynlightdist?$AA@ 0051633c     dynlight.obj
 0002:0001434c       ??_C@_0O@EFFIENC@dynlight?$CFdpos?$AA@ 0051634c     dynlight.obj
 0002:0001435c       ??_C@_0BA@IKGBEEGE@dynlight?$CFdcolor?$AA@ 0051635c     dynlight.obj
 0002:0001436c       ??_C@_0BB@KILPAGDI@dynlight?$CFdoffset?$AA@ 0051636c     dynlight.obj
 0002:00014380       ?rgbfmts@?4??colorformats@shadowmaptexture@@UBEPBIXZ@4QBIB 00516380     shadowmap.obj
 0002:00014380       ?colorfmts@?1??colorformats@rendertarget@@UBEPBIXZ@4QBIB 00516380     glare.obj
 0002:0001438c       ?depthfmts@?1??depthformats@rendertarget@@UBEPBIXZ@4QBIB 0051638c     glare.obj
 0002:000143a0       ??_C@_09BDCGFFAM@glaresize?$AA@ 005163a0     glare.obj
 0002:000143ac       ??_C@_05MLGLEIEI@glare?$AA@ 005163ac     glare.obj
 0002:000143b4       ??_C@_09GJCBHJJG@blurglare?$AA@ 005163b4     glare.obj
 0002:000143c0       ??_C@_0P@EGENGGOD@blurglaresigma?$AA@ 005163c0     glare.obj
 0002:000143d0       ??_C@_0L@BONJDGDE@debugglare?$AA@ 005163d0     glare.obj
 0002:000143dc       ??_C@_0L@NDFGAGCM@glarescale?$AA@ 005163dc     glare.obj
 0002:000143ec       ??_7rendertarget@@6B@      005163ec     glare.obj
 0002:0001443c       ??_7glaretexture@@6B@      0051643c     glare.obj
 0002:00014488       ??_C@_08IDHKAOED@dbggrass?$AA@ 00516488     grass.obj
 0002:00014494       ??_C@_09IKBEHFNA@grassdist?$AA@ 00516494     grass.obj
 0002:000144a0       ??_C@_0L@KHKHPCCG@grasstaper?$AA@ 005164a0     grass.obj
 0002:000144ac       ??_C@_09IGGAKLMG@grassstep?$AA@ 005164ac     grass.obj
 0002:000144b8       ??_C@_0M@HEFODBIP@grassheight?$AA@ 005164b8     grass.obj
 0002:000144c4       ??_C@_0BA@HCPIADAA@grassanimmillis?$AA@ 005164c4     grass.obj
 0002:000144d4       ??_C@_0P@BLNLEJNL@grassanimscale?$AA@ 005164d4     grass.obj
 0002:000144e4       ??_C@_0L@CCJFBOBN@grassscale?$AA@ 005164e4     grass.obj
 0002:000144f0       ??_C@_0M@JIDCHGCJ@grasscolour?$AA@ 005164f0     grass.obj
 0002:000144fc       ??_C@_0L@GFBLHHHO@grassalpha?$AA@ 005164fc     grass.obj
 0002:00014508       ??_C@_09KNPDCLGH@P?5?$CK?5T?5x?52?$AA@ 00516508     grass.obj
 0002:00014514       ??_C@_05IAEKHIAN@alpha?$AA@ 00516514     material.obj
 0002:0001451c       ??_C@_05PBMMFKGI@death?$AA@ 0051651c     material.obj
 0002:00014524       ??_C@_08EILGNIKK@gameclip?$AA@ 00516524     material.obj
 0002:00014530       ??_C@_04MKBPEMMM@lava?$AA@ 00516530     material.obj
 0002:00014538       ??_C@_06IHODGGMJ@noclip?$AA@ 00516538     material.obj
 0002:00014540       ??_C@_05NGDBJHKI@glass?$AA@ 00516540     material.obj
 0002:00014548       ??_C@_04POIGMEJN@clip?$AA@ 00516548     material.obj
 0002:00014550       ??_C@_05ELAABIKM@water?$AA@ 00516550     material.obj
 0002:00014558       ??_C@_03HCOFLFO@air?$AA@   00516558     material.obj
 0002:0001455c       ??_C@_07FKBPMEFO@optmats?$AA@ 0051655c     material.obj
 0002:00014564       ??_C@_09FOBOCPMC@lavaglare?$AA@ 00516564     material.obj
 0002:00014570       ??_C@_07HJABAHAM@showmat?$AA@ 00516570     material.obj
 0002:00014578       ??_C@_08IPGBCPIC@glassenv?$AA@ 00516578     material.obj
 0002:00014584       ??_C@_0N@MPOGCLL@waterfallenv?$AA@ 00516584     material.obj
 0002:000145a4       ??_C@_06FNKMPIBD@camera?$AA@ 005165a4     material.obj
 0002:000145ac       ??_C@_0BE@DCIABHCF@waterfallenvrefract?$AA@ 005165ac     material.obj
 0002:000145c0       ??_C@_0BB@HEEMNCNM@waterfallrefract?$AA@ 005165c0     material.obj
 0002:000145d4       ??_C@_0L@MGEBEFCH@dudvoffset?$AA@ 005165d4     material.obj
 0002:000145e0       ??_C@_0BF@IDPCDKON@assembly?1GLSL?5shader?$AA@ 005165e0     rendergl.obj
 0002:000145f8       ??_C@_0M@PFFECIFO@GLSL?5shader?$AA@ 005165f8     rendergl.obj
 0002:00014604       ??_C@_0BA@LMFCDNBE@assembly?5shader?$AA@ 00516604     rendergl.obj
 0002:00014614       ??_C@_0P@MGCNNGP@fixed?9function?$AA@ 00516614     rendergl.obj
 0002:00014624       ??_C@_0L@NOAIAAGA@renderpath?$AA@ 00516624     rendergl.obj
 0002:00014630       ??_C@_0P@KOMPNBFC@ati_skybox_bug?$AA@ 00516630     rendergl.obj
 0002:00014640       ??_C@_0L@GICMCGLN@ati_oq_bug?$AA@ 00516640     rendergl.obj
 0002:0001464c       ??_C@_0P@BHAEKIOL@ati_minmax_bug?$AA@ 0051664c     rendergl.obj
 0002:0001465c       ??_C@_0M@PGLLFKIP@ati_dph_bug?$AA@ 0051665c     rendergl.obj
 0002:00014668       ??_C@_0BB@NLNHMLGN@ati_teximage_bug?$AA@ 00516668     rendergl.obj
 0002:0001467c       ??_C@_0N@MCINCFGN@ati_line_bug?$AA@ 0051667c     rendergl.obj
 0002:0001468c       ??_C@_0BA@CJIEBKAC@ati_cubemap_bug?$AA@ 0051668c     rendergl.obj
 0002:0001469c       ??_C@_0M@KLOONGGF@ati_ubo_bug?$AA@ 0051669c     rendergl.obj
 0002:000146a8       ??_C@_0BD@NNEKBLNI@nvidia_scissor_bug?$AA@ 005166a8     rendergl.obj
 0002:000146bc       ??_C@_0BE@MNJKHLLG@apple_glsldepth_bug?$AA@ 005166bc     rendergl.obj
 0002:000146d0       ??_C@_0N@MNIOANAP@apple_ff_bug?$AA@ 005166d0     rendergl.obj
 0002:000146e0       ??_C@_0N@HPNPHAEH@apple_vp_bug?$AA@ 005166e0     rendergl.obj
 0002:000146f0       ??_C@_0BF@DNLHAGDA@sdl_backingstore_bug?$AA@ 005166f0     rendergl.obj
 0002:00014708       ??_C@_0BC@GFDAOJIL@intel_quadric_bug?$AA@ 00516708     rendergl.obj
 0002:0001471c       ??_C@_0BB@ICIELCCG@mesa_program_bug?$AA@ 0051671c     rendergl.obj
 0002:00014730       ??_C@_0N@GNMLALOH@avoidshaders?$AA@ 00516730     rendergl.obj
 0002:00014740       ??_C@_0BA@BCIJCKFI@minimizetcusage?$AA@ 00516740     rendergl.obj
 0002:00014750       ??_C@_0L@DHEIOBNO@emulatefog?$AA@ 00516750     rendergl.obj
 0002:0001475c       ??_C@_06PHHCJLDO@usevp2?$AA@ 0051675c     rendergl.obj
 0002:00014764       ??_C@_06OOGJKKHP@usevp3?$AA@ 00516764     rendergl.obj
 0002:0001476c       ??_C@_0L@IIEKEEED@usetexrect?$AA@ 0051676c     rendergl.obj
 0002:00014778       ??_C@_07PMLJLCOC@hasglsl?$AA@ 00516778     rendergl.obj
 0002:00014780       ??_C@_06PFHAGANH@useubo?$AA@ 00516780     rendergl.obj
 0002:00014788       ??_C@_06NLDIFCIO@usebue?$AA@ 00516788     rendergl.obj
 0002:00014790       ??_C@_09GNIGMMGI@rtscissor?$AA@ 00516790     rendergl.obj
 0002:0001479c       ??_C@_08HKGPHOB@blurtile?$AA@ 0051679c     rendergl.obj
 0002:000147a8       ??_C@_09IONDBCNC@rtsharefb?$AA@ 005167a8     rendergl.obj
 0002:000147b4       ??_C@_07GPBHHGAO@dbgexts?$AA@ 005167b4     rendergl.obj
 0002:000147bc       ??_C@_0BC@HJILAOAN@Renderer?3?5?$CFs?5?$CI?$CFs?$CJ?$AA@ 005167bc     rendergl.obj
 0002:000147d0       ??_C@_0L@HEPJLAJM@Driver?3?5?$CFs?$AA@ 005167d0     rendergl.obj
 0002:000147dc       ??_C@_0BL@JFMOHFPL@GL_EXT_texture_env_combine?$AA@ 005167dc     rendergl.obj
 0002:000147f8       ??_C@_0BL@MKOBGLKK@GL_ARB_texture_env_combine?$AA@ 005167f8     rendergl.obj
 0002:00014814       ??_C@_0BM@PEOEMMED@GL_ARB_texture_env_crossbar?$AA@ 00516814     rendergl.obj
 0002:00014830       ??_C@_0BM@EMDOGOG@GL_ATI_texture_env_combine3?$AA@ 00516830     rendergl.obj
 0002:0001484c       ??_C@_0BL@INAFKGJG@GL_NV_texture_env_combine4?$AA@ 0051684c     rendergl.obj
 0002:00014868       ??_C@_0BI@HELHCJPF@GL_EXT_texture_env_dot3?$AA@ 00516868     rendergl.obj
 0002:00014880       ??_C@_0BI@LPMFLNGJ@GL_ARB_texture_env_dot3?$AA@ 00516880     rendergl.obj
 0002:00014898       ??_C@_0CM@DFLGHDHA@Using?5GL_ARB_texture_env_combine@ 00516898     rendergl.obj
 0002:000148c8       ??_C@_0EM@BLFNMJBK@WARNING?3?5No?5texture_env_combine?5@ 005168c8     rendergl.obj
 0002:00014914       ??_C@_0BE@MEMOPMEA@GL_ARB_multitexture?$AA@ 00516914     rendergl.obj
 0002:00014928       ??_C@_0BD@IKCKKKNH@glActiveTextureARB?$AA@ 00516928     rendergl.obj
 0002:0001493c       ??_C@_0BJ@PBJNGLJH@glClientActiveTextureARB?$AA@ 0051693c     rendergl.obj
 0002:00014958       ??_C@_0BF@GFGCIEPA@glMultiTexCoord2fARB?$AA@ 00516958     rendergl.obj
 0002:00014970       ??_C@_0BF@KODOFHFF@glMultiTexCoord3fARB?$AA@ 00516970     rendergl.obj
 0002:00014988       ??_C@_0BF@LDDLGHON@glMultiTexCoord4fARB?$AA@ 00516988     rendergl.obj
 0002:000149a0       ??_C@_0CF@OKPGHELH@Using?5GL_ARB_multitexture?5extens@ 005169a0     rendergl.obj
 0002:000149c8       ??_C@_0CE@HEJCOKIJ@WARNING?3?5No?5multitexture?5extensi@ 005169c8     rendergl.obj
 0002:000149ec       ??_C@_0BM@OOMEFFAE@GL_ARB_vertex_buffer_object?$AA@ 005169ec     rendergl.obj
 0002:00014a08       ??_C@_0CN@LCEMFMKD@Using?5GL_ARB_vertex_buffer_objec@ 00516a08     rendergl.obj
 0002:00014a38       ??_C@_0EP@JMJMBGDP@WARNING?3?5No?5vertex_buffer_object@ 00516a38     rendergl.obj
 0002:00014a88       ??_C@_0BL@CHKAOFBM@GL_ARB_pixel_buffer_object?$AA@ 00516a88     rendergl.obj
 0002:00014aa4       ??_C@_0CM@KLHINJPG@Using?5GL_ARB_pixel_buffer_object@ 00516aa4     rendergl.obj
 0002:00014ad0       ??_C@_0BA@COIMKEED@glGenBuffersARB?$AA@ 00516ad0     rendergl.obj
 0002:00014ae0       ??_C@_0BA@FDIFNALK@glBindBufferARB?$AA@ 00516ae0     rendergl.obj
 0002:00014af0       ??_C@_0P@GLCCGPAH@glMapBufferARB?$AA@ 00516af0     rendergl.obj
 0002:00014b00       ??_C@_0BB@IODLHHEP@glUnmapBufferARB?$AA@ 00516b00     rendergl.obj
 0002:00014b14       ??_C@_0BA@HLIGBCAN@glBufferDataARB?$AA@ 00516b14     rendergl.obj
 0002:00014b24       ??_C@_0BD@KFMFAAJP@glBufferSubDataARB?$AA@ 00516b24     rendergl.obj
 0002:00014b38       ??_C@_0BD@FPFIIGCI@glDeleteBuffersARB?$AA@ 00516b38     rendergl.obj
 0002:00014b4c       ??_C@_0BG@DNDEGANA@glGetBufferSubDataARB?$AA@ 00516b4c     rendergl.obj
 0002:00014b64       ??_C@_0BL@BBECEKLJ@GL_EXT_draw_range_elements?$AA@ 00516b64     rendergl.obj
 0002:00014b80       ??_C@_0BH@GFFILNEF@glDrawRangeElementsEXT?$AA@ 00516b80     rendergl.obj
 0002:00014b98       ??_C@_0CM@CEGDGNDH@Using?5GL_EXT_draw_range_elements@ 00516b98     rendergl.obj
 0002:00014bc4       ??_C@_0BJ@BEDGNCEH@GL_EXT_multi_draw_arrays?$AA@ 00516bc4     rendergl.obj
 0002:00014be0       ??_C@_0BF@MOHHALAE@glMultiDrawArraysEXT?$AA@ 00516be0     rendergl.obj
 0002:00014bf8       ??_C@_0BH@CPIJKLBJ@glMultiDrawElementsEXT?$AA@ 00516bf8     rendergl.obj
 0002:00014c10       ??_C@_0CK@LCBHLCIK@Using?5GL_EXT_multi_draw_arrays?5e@ 00516c10     rendergl.obj
 0002:00014c3c       ??_C@_0BF@IMLAOOOI@GL_ARB_texture_float?$AA@ 00516c3c     rendergl.obj
 0002:00014c54       ??_C@_0BF@HBFPHCFN@GL_ATI_texture_float?$AA@ 00516c54     rendergl.obj
 0002:00014c6c       ??_C@_0CG@PHDBLDJH@Using?5GL_ARB_texture_float?5exten@ 00516c6c     rendergl.obj
 0002:00014c94       ??_C@_0BD@JIMCHLAF@GL_NV_float_buffer?$AA@ 00516c94     rendergl.obj
 0002:00014ca8       ??_C@_0CE@CLNNBKIB@Using?5GL_NV_float_buffer?5extensi@ 00516ca8     rendergl.obj
 0002:00014ccc       ??_C@_0BK@GDONINOA@GL_EXT_framebuffer_object?$AA@ 00516ccc     rendergl.obj
 0002:00014ce8       ??_C@_0BG@GLKALDNN@glBindRenderbufferEXT?$AA@ 00516ce8     rendergl.obj
 0002:00014d00       ??_C@_0BJ@FCLEPNJL@glDeleteRenderbuffersEXT?$AA@ 00516d00     rendergl.obj
 0002:00014d1c       ??_C@_0BG@HHIDFCMP@glGenRenderbuffersEXT?$AA@ 00516d1c     rendergl.obj
 0002:00014d34       ??_C@_0BJ@NPDAOAPK@glRenderbufferStorageEXT?$AA@ 00516d34     rendergl.obj
 0002:00014d50       ??_C@_0BM@GOHPHGGE@glCheckFramebufferStatusEXT?$AA@ 00516d50     rendergl.obj
 0002:00014d6c       ??_C@_0BF@EMIECBAK@glBindFramebufferEXT?$AA@ 00516d6c     rendergl.obj
 0002:00014d84       ??_C@_0BI@NPEJNLO@glDeleteFramebuffersEXT?$AA@ 00516d84     rendergl.obj
 0002:00014d9c       ??_C@_0BF@FFIJGJAM@glGenFramebuffersEXT?$AA@ 00516d9c     rendergl.obj
 0002:00014db4       ??_C@_0BK@LFOBEPCF@glFramebufferTexture2DEXT?$AA@ 00516db4     rendergl.obj
 0002:00014dd0       ??_C@_0BN@BAGKOCJP@glFramebufferRenderbufferEXT?$AA@ 00516dd0     rendergl.obj
 0002:00014df0       ??_C@_0BE@CIGLHJJK@glGenerateMipmapEXT?$AA@ 00516df0     rendergl.obj
 0002:00014e04       ??_C@_0CL@EBBBBBJA@Using?5GL_EXT_framebuffer_object?5@ 00516e04     rendergl.obj
 0002:00014e30       ??_C@_0BI@HCGEDMJI@GL_EXT_framebuffer_blit?$AA@ 00516e30     rendergl.obj
 0002:00014e48       ??_C@_0BF@GOMLACDI@glBlitFramebufferEXT?$AA@ 00516e48     rendergl.obj
 0002:00014e60       ??_C@_0CJ@GGLOBKAL@Using?5GL_EXT_framebuffer_blit?5ex@ 00516e60     rendergl.obj
 0002:00014e90       ??_C@_0EH@GGHBJMHC@WARNING?3?5No?5framebuffer?5object?5s@ 00516e90     rendergl.obj
 0002:00014ed8       ??_C@_0BH@NKOBMOPI@GL_ARB_occlusion_query?$AA@ 00516ed8     rendergl.obj
 0002:00014ef0       ??_C@_0BA@DPEEILJC@glGetQueryivARB?$AA@ 00516ef0     rendergl.obj
 0002:00014f00       ??_C@_0BA@BJHFNMK@glGenQueriesARB?$AA@ 00516f00     rendergl.obj
 0002:00014f10       ??_C@_0BD@HAEDHPKB@glDeleteQueriesARB?$AA@ 00516f10     rendergl.obj
 0002:00014f24       ??_C@_0BA@LPKBABEB@glBeginQueryARB?$AA@ 00516f24     rendergl.obj
 0002:00014f34       ??_C@_0O@EFJDHGFG@glEndQueryARB?$AA@ 00516f34     rendergl.obj
 0002:00014f44       ??_C@_0BG@EDFKPCGN@glGetQueryObjectivARB?$AA@ 00516f44     rendergl.obj
 0002:00014f5c       ??_C@_0BH@OOHKBDPD@glGetQueryObjectuivARB?$AA@ 00516f5c     rendergl.obj
 0002:00014f74       ??_C@_0CI@MGKKAJBE@Using?5GL_ARB_occlusion_query?5ext@ 00516f74     rendergl.obj
 0002:00014fa0       ??_C@_0GD@KEHNEELF@WARNING?3?5Using?5ATI?5occlusion?5que@ 00516fa0     rendergl.obj
 0002:00015004       ??_C@_0DO@KNDHONLH@WARNING?3?5No?5occlusion?5query?5supp@ 00517004     rendergl.obj
 0002:00015044       ??_C@_03LHBNGNJL@ATI?$AA@  00517044     rendergl.obj
 0002:00015048       ??_C@_06HLMMPIBG@NVIDIA?$AA@ 00517048     rendergl.obj
 0002:00015050       ??_C@_0BD@MHBCPECK@GL_EXT_gpu_shader4?$AA@ 00517050     rendergl.obj
 0002:00015064       ??_C@_07DBEFADEB@GeForce?$AA@ 00517064     rendergl.obj
 0002:0001506c       ??_C@_05CDGBNGHP@Intel?$AA@ 0051706c     rendergl.obj
 0002:00015074       ??_C@_08PDMNIOLD@Tungsten?$AA@ 00517074     rendergl.obj
 0002:00015080       ??_C@_04LPBHBPME@Mesa?$AA@ 00517080     rendergl.obj
 0002:00015088       ??_C@_03IEEOOBBL@DRI?$AA@  00517088     rendergl.obj
 0002:0001508c       ??_C@_09IBPOIBJJ@Microsoft?$AA@ 0051708c     rendergl.obj
 0002:00015098       ??_C@_0M@OCJAPGFL@S3?5Graphics?$AA@ 00517098     rendergl.obj
 0002:000150a4       ??_C@_0BG@LDHOGOBF@GL_ARB_vertex_program?$AA@ 005170a4     rendergl.obj
 0002:000150bc       ??_C@_0BI@LELAEDDA@GL_ARB_fragment_program?$AA@ 005170bc     rendergl.obj
 0002:000150d4       ??_C@_0BB@JDDNIFAN@glGenProgramsARB?$AA@ 005170d4     rendergl.obj
 0002:000150e8       ??_C@_0BE@EJCMOJPP@glDeleteProgramsARB?$AA@ 005170e8     rendergl.obj
 0002:000150fc       ??_C@_0BB@OAGHGJAC@glBindProgramARB?$AA@ 005170fc     rendergl.obj
 0002:00015110       ??_C@_0BD@HIBLHAHB@glProgramStringARB?$AA@ 00517110     rendergl.obj
 0002:00015124       ??_C@_0BC@OHCOJECC@glGetProgramivARB?$AA@ 00517124     rendergl.obj
 0002:00015138       ??_C@_0BL@PPAMELBE@glProgramEnvParameter4fARB?$AA@ 00517138     rendergl.obj
 0002:00015154       ??_C@_0BM@JFOBMKCG@glProgramEnvParameter4fvARB?$AA@ 00517154     rendergl.obj
 0002:00015170       ??_C@_0BN@FKABDPBF@glEnableVertexAttribArrayARB?$AA@ 00517170     rendergl.obj
 0002:00015190       ??_C@_0BO@HGKLJN@glDisableVertexAttribArrayARB?$AA@ 00517190     rendergl.obj
 0002:000151b0       ??_C@_0BJ@KNOILOPF@glVertexAttribPointerARB?$AA@ 005171b0     rendergl.obj
 0002:000151cc       ??_C@_0BM@IABMMANC@GL_ARB_shading_language_100?$AA@ 005171cc     rendergl.obj
 0002:000151e8       ??_C@_0BG@OLLFAEMA@GL_ARB_shader_objects?$AA@ 005171e8     rendergl.obj
 0002:00015200       ??_C@_0BF@GNLBPIJF@GL_ARB_vertex_shader?$AA@ 00517200     rendergl.obj
 0002:00015218       ??_C@_0BH@MOFIMEJB@GL_ARB_fragment_shader?$AA@ 00517218     rendergl.obj
 0002:00015230       ??_C@_0BJ@KGMBEPBI@glCreateProgramObjectARB?$AA@ 00517230     rendergl.obj
 0002:0001524c       ??_C@_0BC@MJFNICLA@glDeleteObjectARB?$AA@ 0051724c     rendergl.obj
 0002:00015260       ??_C@_0BG@JEOFPDIM@glUseProgramObjectARB?$AA@ 00517260     rendergl.obj
 0002:00015278       ??_C@_0BI@FMNPOEGE@glCreateShaderObjectARB?$AA@ 00517278     rendergl.obj
 0002:00015290       ??_C@_0BC@MCCOFGJG@glShaderSourceARB?$AA@ 00517290     rendergl.obj
 0002:000152a4       ??_C@_0BD@BEDGBOPM@glCompileShaderARB?$AA@ 005172a4     rendergl.obj
 0002:000152b8       ??_C@_0BK@IDAIKMOL@glGetObjectParameterivARB?$AA@ 005172b8     rendergl.obj
 0002:000152d4       ??_C@_0BC@GINLBKLJ@glAttachObjectARB?$AA@ 005172d4     rendergl.obj
 0002:000152e8       ??_C@_0BA@FLIOBLOG@glGetInfoLogARB?$AA@ 005172e8     rendergl.obj
 0002:000152f8       ??_C@_0BB@HPIAOOAG@glLinkProgramARB?$AA@ 005172f8     rendergl.obj
 0002:0001530c       ??_C@_0BI@CAFPPHDC@glGetUniformLocationARB?$AA@ 0051730c     rendergl.obj
 0002:00015324       ??_C@_0P@KFNIAEEC@glUniform1fARB?$AA@ 00517324     rendergl.obj
 0002:00015334       ??_C@_0P@CDEMHGOM@glUniform2fARB?$AA@ 00517334     rendergl.obj
 0002:00015344       ??_C@_0P@OIBAKFEJ@glUniform3fARB?$AA@ 00517344     rendergl.obj
 0002:00015354       ??_C@_0P@PFBFJFPB@glUniform4fARB?$AA@ 00517354     rendergl.obj
 0002:00015364       ??_C@_0BA@BHLDOKKI@glUniform1fvARB?$AA@ 00517364     rendergl.obj
 0002:00015374       ??_C@_0BA@CGFLPADF@glUniform2fvARB?$AA@ 00517374     rendergl.obj
 0002:00015384       ??_C@_0BA@IACMPLIB@glUniform3fvARB?$AA@ 00517384     rendergl.obj
 0002:00015394       ??_C@_0BA@EFILMFAP@glUniform4fvARB?$AA@ 00517394     rendergl.obj
 0002:000153a4       ??_C@_0P@CHIIJDJD@glUniform1iARB?$AA@ 005173a4     rendergl.obj
 0002:000153b4       ??_C@_0BI@HAONMJFP@glBindAttribLocationARB?$AA@ 005173b4     rendergl.obj
 0002:000153cc       ??_C@_0BG@FNEOAGIK@glGetActiveUniformARB?$AA@ 005173cc     rendergl.obj
 0002:000153e8       ??_C@_0GI@MGMMEOBK@WARNING?3?5Using?5Apple?5GLSL?5depth?5@ 005173e8     rendergl.obj
 0002:00015450       ??_C@_0BN@GDAFGLIP@GL_NV_vertex_program2_option?$AA@ 00517450     rendergl.obj
 0002:00015470       ??_C@_0BG@KPIALAPB@GL_NV_vertex_program3?$AA@ 00517470     rendergl.obj
 0002:00015488       ??_C@_0BO@JOJLOPAH@GL_EXT_gpu_program_parameters?$AA@ 00517488     rendergl.obj
 0002:000154a8       ??_C@_0BN@FHPFOAIA@glProgramEnvParameters4fvEXT?$AA@ 005174a8     rendergl.obj
 0002:000154c8       ??_C@_0BP@JDOGGDOI@glProgramLocalParameters4fvEXT?$AA@ 005174c8     rendergl.obj
 0002:000154e8       ??_C@_0CP@JFHNHAAL@Using?5GL_EXT_gpu_program_paramet@ 005174e8     rendergl.obj
 0002:00015518       ??_C@_0BN@GLDJDGLC@GL_ARB_uniform_buffer_object?$AA@ 00517518     rendergl.obj
 0002:00015538       ??_C@_0BE@MDPMIDEE@glGetUniformIndices?$AA@ 00517538     rendergl.obj
 0002:0001554c       ??_C@_0BG@JEHIMPCG@glGetActiveUniformsiv?$AA@ 0051754c     rendergl.obj
 0002:00015564       ??_C@_0BH@CBDIMHHE@glGetUniformBlockIndex?$AA@ 00517564     rendergl.obj
 0002:0001557c       ??_C@_0BK@DMHOPJGL@glGetActiveUniformBlockiv?$AA@ 0051757c     rendergl.obj
 0002:00015598       ??_C@_0BG@BOLEKKCP@glUniformBlockBinding?$AA@ 00517598     rendergl.obj
 0002:000155b0       ??_C@_0BB@LDPKOCJI@glBindBufferBase?$AA@ 005175b0     rendergl.obj
 0002:000155c4       ??_C@_0BC@EEMMCHMB@glBindBufferRange?$AA@ 005175c4     rendergl.obj
 0002:000155d8       ??_C@_0CO@MBCPJNAF@Using?5GL_ARB_uniform_buffer_obje@ 005175d8     rendergl.obj
 0002:00015608       ??_C@_0BI@FJEJKAHN@GL_EXT_bindable_uniform?$AA@ 00517608     rendergl.obj
